
kernel8.elf:     file format elf64-littleaarch64


Disassembly of section .text:

0000000000080000 <_boot>:
   80000:	d53800a1 	mrs	x1, mpidr_el1
   80004:	92400421 	and	x1, x1, #0x3
   80008:	b5000441 	cbnz	x1, 80090 <hang>
   8000c:	580004a1 	ldr	x1, 800a0 <hang+0x10>
   80010:	d5384240 	mrs	x0, currentel
   80014:	d342fc00 	lsr	x0, x0, #2
   80018:	f1000c1f 	cmp	x0, #0x3
   8001c:	54000101 	b.ne	8003c <el2_setup>  // b.any
   80020:	d280b622 	mov	x2, #0x5b1                 	// #1457
   80024:	d51e1102 	msr	scr_el3, x2
   80028:	d2807922 	mov	x2, #0x3c9                 	// #969
   8002c:	d51e4002 	msr	spsr_el3, x2
   80030:	10000062 	adr	x2, 8003c <el2_setup>
   80034:	d51e4022 	msr	elr_el3, x2
   80038:	d69f03e0 	eret

000000000008003c <el2_setup>:
   8003c:	d5384240 	mrs	x0, currentel
   80040:	d342fc00 	lsr	x0, x0, #2
   80044:	f100041f 	cmp	x0, #0x1
   80048:	54000140 	b.eq	80070 <start_el1>  // b.none
   8004c:	d51c4101 	msr	sp_el1, x1
   80050:	d2b00000 	mov	x0, #0x80000000            	// #2147483648
   80054:	b27f0000 	orr	x0, x0, #0x2
   80058:	d51c1100 	msr	hcr_el2, x0
   8005c:	d28078a2 	mov	x2, #0x3c5                 	// #965
   80060:	d51c4002 	msr	spsr_el2, x2
   80064:	10000062 	adr	x2, 80070 <start_el1>
   80068:	d51c4022 	msr	elr_el2, x2
   8006c:	d69f03e0 	eret

0000000000080070 <start_el1>:
   80070:	9100003f 	mov	sp, x1
   80074:	580001a1 	ldr	x1, 800a8 <hang+0x18>
   80078:	18000102 	ldr	w2, 80098 <hang+0x8>
   8007c:	34000082 	cbz	w2, 8008c <start_el1+0x1c>
   80080:	f800843f 	str	xzr, [x1], #8
   80084:	51000442 	sub	w2, w2, #0x1
   80088:	35ffffa2 	cbnz	w2, 8007c <start_el1+0xc>
   8008c:	94001215 	bl	848e0 <main>

0000000000080090 <hang>:
   80090:	d503207f 	wfi
   80094:	17ffffff 	b	80090 <hang>
   80098:	00003fcd 	udf	#16333
   8009c:	00000000 	udf	#0
   800a0:	00080000 	.inst	0x00080000 ; undefined
   800a4:	00000000 	udf	#0
   800a8:	0008f198 	.inst	0x0008f198 ; undefined
	...

0000000000080800 <VBAR>:
   80800:	17fffe00 	b	80000 <_boot>
	...
   80880:	14000000 	b	80880 <VBAR+0x80>
	...
   80900:	14000000 	b	80900 <VBAR+0x100>
	...
   80980:	14000000 	b	80980 <VBAR+0x180>
	...
   80a00:	14000000 	b	80a00 <VBAR+0x200>
	...
   80a80:	14000000 	b	80a80 <VBAR+0x280>
	...
   80b00:	14000000 	b	80b00 <VBAR+0x300>
	...
   80b80:	14000000 	b	80b80 <VBAR+0x380>
	...
   80c00:	14000000 	b	80c00 <VBAR+0x400>
	...
   80c80:	14000000 	b	80c80 <VBAR+0x480>
	...
   80d00:	14000000 	b	80d00 <VBAR+0x500>
	...
   80d80:	14000000 	b	80d80 <VBAR+0x580>
	...
   80e00:	14000000 	b	80e00 <VBAR+0x600>
	...
   80e80:	14000000 	b	80e80 <VBAR+0x680>
	...
   80f00:	14000000 	b	80f00 <VBAR+0x700>
	...
   80f80:	14000000 	b	80f80 <VBAR+0x780>
	...

0000000000081000 <_freertos_vector_table>:
   81000:	14002100 	b	89400 <FreeRTOS_SWI_Handler>
	...
   81080:	140021a0 	b	89700 <FreeRTOS_IRQ_Handler>
	...
   81100:	14000000 	b	81100 <_freertos_vector_table+0x100>
	...
   81180:	14000000 	b	81180 <_freertos_vector_table+0x180>
	...
   81200:	14002080 	b	89400 <FreeRTOS_SWI_Handler>
	...
   81280:	14002120 	b	89700 <FreeRTOS_IRQ_Handler>
	...
   81300:	14000000 	b	81300 <_freertos_vector_table+0x300>
	...
   81380:	14000000 	b	81380 <_freertos_vector_table+0x380>
	...
   81400:	14000000 	b	81400 <_freertos_vector_table+0x400>
	...
   81480:	14000000 	b	81480 <_freertos_vector_table+0x480>
	...
   81500:	14000000 	b	81500 <_freertos_vector_table+0x500>
	...
   81580:	14000000 	b	81580 <_freertos_vector_table+0x580>
	...
   81600:	14000000 	b	81600 <_freertos_vector_table+0x600>
	...
   81680:	14000000 	b	81680 <_freertos_vector_table+0x680>
	...
   81700:	14000000 	b	81700 <_freertos_vector_table+0x700>
	...
   81780:	14000000 	b	81780 <_freertos_vector_table+0x780>
	...

0000000000081790 <enable_cntv>:
   81790:	52800020 	mov	w0, #0x1                   	// #1
   81794:	d51be320 	msr	cntv_ctl_el0, x0
   81798:	d5033fdf 	isb
   8179c:	d65f03c0 	ret

00000000000817a0 <write_cntv_tval>:
   817a0:	d51be300 	msr	cntv_tval_el0, x0
   817a4:	d5033fdf 	isb
   817a8:	d65f03c0 	ret
   817ac:	d503201f 	nop

00000000000817b0 <read_cntfrq>:
   817b0:	d53be000 	mrs	x0, cntfrq_el0
   817b4:	d65f03c0 	ret
   817b8:	d503201f 	nop
   817bc:	d503201f 	nop

00000000000817c0 <init_timer>:
   817c0:	d53be000 	mrs	x0, cntfrq_el0
   817c4:	d0000061 	adrp	x1, 8f000 <g_msg+0x18>
   817c8:	91068022 	add	x2, x1, #0x1a0
   817cc:	b901a020 	str	w0, [x1, #416]
   817d0:	b9000440 	str	w0, [x2, #4]
   817d4:	d51be300 	msr	cntv_tval_el0, x0
   817d8:	d5033fdf 	isb
   817dc:	d65f03c0 	ret

00000000000817e0 <timer_set_tick_rate_hz>:
   817e0:	d0000062 	adrp	x2, 8f000 <g_msg+0x18>
   817e4:	91068041 	add	x1, x2, #0x1a0
   817e8:	b9400421 	ldr	w1, [x1, #4]
   817ec:	1ac00820 	udiv	w0, w1, w0
   817f0:	b901a040 	str	w0, [x2, #416]
   817f4:	d51be300 	msr	cntv_tval_el0, x0
   817f8:	d5033fdf 	isb
   817fc:	d65f03c0 	ret

0000000000081800 <vConfigureTickInterrupt>:
   81800:	a9bf7bfd 	stp	x29, x30, [sp, #-16]!
   81804:	910003fd 	mov	x29, sp
   81808:	d53be000 	mrs	x0, cntfrq_el0
   8180c:	d0000061 	adrp	x1, 8f000 <g_msg+0x18>
   81810:	91068022 	add	x2, x1, #0x1a0
   81814:	b901a020 	str	w0, [x1, #416]
   81818:	b9000440 	str	w0, [x2, #4]
   8181c:	d51be300 	msr	cntv_tval_el0, x0
   81820:	d5033fdf 	isb
   81824:	b9400440 	ldr	w0, [x2, #4]
   81828:	5289ba62 	mov	w2, #0x4dd3                	// #19923
   8182c:	72a20c42 	movk	w2, #0x1062, lsl #16
   81830:	9ba27c00 	umull	x0, w0, w2
   81834:	d366fc00 	lsr	x0, x0, #38
   81838:	b901a020 	str	w0, [x1, #416]
   8183c:	d51be300 	msr	cntv_tval_el0, x0
   81840:	d5033fdf 	isb
   81844:	94001d1f 	bl	88cc0 <kr_irqctrl_init>
   81848:	52800020 	mov	w0, #0x1                   	// #1
   8184c:	d51be320 	msr	cntv_ctl_el0, x0
   81850:	d5033fdf 	isb
   81854:	a8c17bfd 	ldp	x29, x30, [sp], #16
   81858:	d65f03c0 	ret
   8185c:	d503201f 	nop

0000000000081860 <vClearTickInterrupt>:
   81860:	d0000060 	adrp	x0, 8f000 <g_msg+0x18>
   81864:	b941a000 	ldr	w0, [x0, #416]
   81868:	d51be300 	msr	cntv_tval_el0, x0
   8186c:	d5033fdf 	isb
   81870:	d65f03c0 	ret
   81874:	d503201f 	nop
   81878:	d503201f 	nop
   8187c:	d503201f 	nop

0000000000081880 <vApplicationIRQHandler>:
   81880:	d0000061 	adrp	x1, 8f000 <g_msg+0x18>
   81884:	91068021 	add	x1, x1, #0x1a0
   81888:	b9400822 	ldr	w2, [x1, #8]
   8188c:	11000442 	add	w2, w2, #0x1
   81890:	b9000822 	str	w2, [x1, #8]
   81894:	37180080 	tbnz	w0, #3, 818a4 <vApplicationIRQHandler+0x24>
   81898:	37400040 	tbnz	w0, #8, 818a0 <vApplicationIRQHandler+0x20>
   8189c:	d65f03c0 	ret
   818a0:	14000bec 	b	84850 <irq_handler>
   818a4:	14001ea3 	b	89330 <FreeRTOS_Tick_Handler>
	...

00000000000818b0 <build_ticker>:
   818b0:	52911126 	mov	w6, #0x8889                	// #34953
   818b4:	72b11106 	movk	w6, #0x8888, lsl #16
   818b8:	aa0003e5 	mov	x5, x0
   818bc:	529678a4 	mov	w4, #0xb3c5                	// #46021
   818c0:	72b23444 	movk	w4, #0x91a2, lsl #16
   818c4:	9ba67c28 	umull	x8, w1, w6
   818c8:	52800740 	mov	w0, #0x3a                  	// #58
   818cc:	5280078b 	mov	w11, #0x3c                  	// #60
   818d0:	390008a0 	strb	w0, [x5, #2]
   818d4:	9ba47c27 	umull	x7, w1, w4
   818d8:	d365fd08 	lsr	x8, x8, #37
   818dc:	390014a0 	strb	w0, [x5, #5]
   818e0:	529999a3 	mov	w3, #0xcccd                	// #52429
   818e4:	72b99983 	movk	w3, #0xcccc, lsl #16
   818e8:	d36bfce7 	lsr	x7, x7, #43
   818ec:	52800149 	mov	w9, #0xa                   	// #10
   818f0:	9ba67d00 	umull	x0, w8, w6
   818f4:	5280040a 	mov	w10, #0x20                  	// #32
   818f8:	1b0b8506 	msub	w6, w8, w11, w1
   818fc:	390020aa 	strb	w10, [x5, #8]
   81900:	9ba37ce4 	umull	x4, w7, w3
   81904:	390024aa 	strb	w10, [x5, #9]
   81908:	d365fc00 	lsr	x0, x0, #37
   8190c:	390028aa 	strb	w10, [x5, #10]
   81910:	9ba37cc1 	umull	x1, w6, w3
   81914:	d363fc84 	lsr	x4, x4, #35
   81918:	1b0ba000 	msub	w0, w0, w11, w8
   8191c:	1100c088 	add	w8, w4, #0x30
   81920:	390000a8 	strb	w8, [x5]
   81924:	1b099c84 	msub	w4, w4, w9, w7
   81928:	d363fc21 	lsr	x1, x1, #35
   8192c:	1100c027 	add	w7, w1, #0x30
   81930:	390018a7 	strb	w7, [x5, #6]
   81934:	9ba37c03 	umull	x3, w0, w3
   81938:	1100c084 	add	w4, w4, #0x30
   8193c:	1b099821 	msub	w1, w1, w9, w6
   81940:	390004a4 	strb	w4, [x5, #1]
   81944:	d363fc63 	lsr	x3, x3, #35
   81948:	1100c021 	add	w1, w1, #0x30
   8194c:	1100c064 	add	w4, w3, #0x30
   81950:	39000ca4 	strb	w4, [x5, #3]
   81954:	39001ca1 	strb	w1, [x5, #7]
   81958:	1b098063 	msub	w3, w3, w9, w0
   8195c:	1100c063 	add	w3, w3, #0x30
   81960:	390010a3 	strb	w3, [x5, #4]
   81964:	39400043 	ldrb	w3, [x2]
   81968:	34000443 	cbz	w3, 819f0 <build_ticker+0x140>
   8196c:	d1002c44 	sub	x4, x2, #0xb
   81970:	d10004a0 	sub	x0, x5, #0x1
   81974:	d2800181 	mov	x1, #0xc                   	// #12
   81978:	14000002 	b	81980 <build_ticker+0xd0>
   8197c:	54000260 	b.eq	819c8 <build_ticker+0x118>  // b.none
   81980:	38216803 	strb	w3, [x0, x1]
   81984:	93407c22 	sxtw	x2, w1
   81988:	38616883 	ldrb	w3, [x4, x1]
   8198c:	91000421 	add	x1, x1, #0x1
   81990:	f103503f 	cmp	x1, #0xd4
   81994:	35ffff43 	cbnz	w3, 8197c <build_ticker+0xcc>
   81998:	11000441 	add	w1, w2, #0x1
   8199c:	11000844 	add	w4, w2, #0x2
   819a0:	11000c40 	add	w0, w2, #0x3
   819a4:	93407c21 	sxtw	x1, w1
   819a8:	93407c84 	sxtw	x4, w4
   819ac:	93407c06 	sxtw	x6, w0
   819b0:	52800403 	mov	w3, #0x20                  	// #32
   819b4:	382268a3 	strb	w3, [x5, x2]
   819b8:	382168a3 	strb	w3, [x5, x1]
   819bc:	382468a3 	strb	w3, [x5, x4]
   819c0:	382668bf 	strb	wzr, [x5, x6]
   819c4:	d65f03c0 	ret
   819c8:	d2801a62 	mov	x2, #0xd3                  	// #211
   819cc:	52800403 	mov	w3, #0x20                  	// #32
   819d0:	d2801aa4 	mov	x4, #0xd5                  	// #213
   819d4:	d2801ac6 	mov	x6, #0xd6                  	// #214
   819d8:	382268a3 	strb	w3, [x5, x2]
   819dc:	52801ac0 	mov	w0, #0xd6                  	// #214
   819e0:	382168a3 	strb	w3, [x5, x1]
   819e4:	382468a3 	strb	w3, [x5, x4]
   819e8:	382668bf 	strb	wzr, [x5, x6]
   819ec:	d65f03c0 	ret
   819f0:	528001c0 	mov	w0, #0xe                   	// #14
   819f4:	d28001c6 	mov	x6, #0xe                   	// #14
   819f8:	d28001a4 	mov	x4, #0xd                   	// #13
   819fc:	d2800181 	mov	x1, #0xc                   	// #12
   81a00:	d2800162 	mov	x2, #0xb                   	// #11
   81a04:	17ffffeb 	b	819b0 <build_ticker+0x100>
   81a08:	d503201f 	nop
   81a0c:	d503201f 	nop

0000000000081a10 <seq>:
   81a10:	39400004 	ldrb	w4, [x0]
   81a14:	d2800002 	mov	x2, #0x0                   	// #0
   81a18:	39400023 	ldrb	w3, [x1]
   81a1c:	350000a4 	cbnz	w4, 81a30 <seq+0x20>
   81a20:	14000008 	b	81a40 <seq+0x30>
   81a24:	54000141 	b.ne	81a4c <seq+0x3c>  // b.any
   81a28:	38626804 	ldrb	w4, [x0, x2]
   81a2c:	34000144 	cbz	w4, 81a54 <seq+0x44>
   81a30:	38626823 	ldrb	w3, [x1, x2]
   81a34:	91000442 	add	x2, x2, #0x1
   81a38:	6b04007f 	cmp	w3, w4
   81a3c:	35ffff43 	cbnz	w3, 81a24 <seq+0x14>
   81a40:	6b03009f 	cmp	w4, w3
   81a44:	1a9f17e0 	cset	w0, eq  // eq = none
   81a48:	d65f03c0 	ret
   81a4c:	52800000 	mov	w0, #0x0                   	// #0
   81a50:	d65f03c0 	ret
   81a54:	38626823 	ldrb	w3, [x1, x2]
   81a58:	6b03009f 	cmp	w4, w3
   81a5c:	1a9f17e0 	cset	w0, eq  // eq = none
   81a60:	17fffffa 	b	81a48 <seq+0x38>
   81a64:	d503201f 	nop
   81a68:	d503201f 	nop
   81a6c:	d503201f 	nop

0000000000081a70 <word>:
   81a70:	aa0003e4 	mov	x4, x0
   81a74:	52801be0 	mov	w0, #0xdf                  	// #223
   81a78:	f9400083 	ldr	x3, [x4]
   81a7c:	39400065 	ldrb	w5, [x3]
   81a80:	6a0000bf 	tst	w5, w0
   81a84:	540002a0 	b.eq	81ad8 <word+0x68>  // b.none
   81a88:	51000447 	sub	w7, w2, #0x1
   81a8c:	52800000 	mov	w0, #0x0                   	// #0
   81a90:	91000422 	add	x2, x1, #0x1
   81a94:	14000003 	b	81aa0 <word+0x30>
   81a98:	6b07001f 	cmp	w0, w7
   81a9c:	540001a0 	b.eq	81ad0 <word+0x60>  // b.none
   81aa0:	91000461 	add	x1, x3, #0x1
   81aa4:	f9000081 	str	x1, [x4]
   81aa8:	52801be5 	mov	w5, #0xdf                  	// #223
   81aac:	aa0203e1 	mov	x1, x2
   81ab0:	39400063 	ldrb	w3, [x3]
   81ab4:	11000400 	add	w0, w0, #0x1
   81ab8:	381ff043 	sturb	w3, [x2, #-1]
   81abc:	91000442 	add	x2, x2, #0x1
   81ac0:	f9400083 	ldr	x3, [x4]
   81ac4:	39400066 	ldrb	w6, [x3]
   81ac8:	6a0500df 	tst	w6, w5
   81acc:	54fffe61 	b.ne	81a98 <word+0x28>  // b.any
   81ad0:	3900003f 	strb	wzr, [x1]
   81ad4:	d65f03c0 	ret
   81ad8:	52800000 	mov	w0, #0x0                   	// #0
   81adc:	17fffffd 	b	81ad0 <word+0x60>

0000000000081ae0 <up_dec>:
   81ae0:	a9be7bfd 	stp	x29, x30, [sp, #-32]!
   81ae4:	910003fd 	mov	x29, sp
   81ae8:	39006bff 	strb	wzr, [sp, #26]
   81aec:	340002c0 	cbz	w0, 81b44 <up_dec+0x64>
   81af0:	52800143 	mov	w3, #0xa                   	// #10
   81af4:	910043e4 	add	x4, sp, #0x10
   81af8:	2a0303e6 	mov	w6, w3
   81afc:	529999a5 	mov	w5, #0xcccd                	// #52429
   81b00:	72b99985 	movk	w5, #0xcccc, lsl #16
   81b04:	d503201f 	nop
   81b08:	9ba57c01 	umull	x1, w0, w5
   81b0c:	71000463 	subs	w3, w3, #0x1
   81b10:	7a491800 	ccmp	w0, #0x9, #0x0, ne  // ne = any
   81b14:	d1000484 	sub	x4, x4, #0x1
   81b18:	d363fc21 	lsr	x1, x1, #35
   81b1c:	1b068022 	msub	w2, w1, w6, w0
   81b20:	2a0103e0 	mov	w0, w1
   81b24:	1100c041 	add	w1, w2, #0x30
   81b28:	39002881 	strb	w1, [x4, #10]
   81b2c:	54fffee8 	b.hi	81b08 <up_dec+0x28>  // b.pmore
   81b30:	910043e0 	add	x0, sp, #0x10
   81b34:	8b23c000 	add	x0, x0, w3, sxtw
   81b38:	94000c8a 	bl	84d60 <uart_puts>
   81b3c:	a8c27bfd 	ldp	x29, x30, [sp], #32
   81b40:	d65f03c0 	ret
   81b44:	90000060 	adrp	x0, 8d000 <la_logic_traces+0x60>
   81b48:	912ae000 	add	x0, x0, #0xab8
   81b4c:	94000c85 	bl	84d60 <uart_puts>
   81b50:	a8c27bfd 	ldp	x29, x30, [sp], #32
   81b54:	d65f03c0 	ret
   81b58:	d503201f 	nop
   81b5c:	d503201f 	nop

0000000000081b60 <print_help>:
   81b60:	a9bf7bfd 	stp	x29, x30, [sp, #-16]!
   81b64:	90000060 	adrp	x0, 8d000 <la_logic_traces+0x60>
   81b68:	912b0000 	add	x0, x0, #0xac0
   81b6c:	910003fd 	mov	x29, sp
   81b70:	94000c7c 	bl	84d60 <uart_puts>
   81b74:	90000060 	adrp	x0, 8d000 <la_logic_traces+0x60>
   81b78:	912b4000 	add	x0, x0, #0xad0
   81b7c:	94000c79 	bl	84d60 <uart_puts>
   81b80:	90000060 	adrp	x0, 8d000 <la_logic_traces+0x60>
   81b84:	912c2000 	add	x0, x0, #0xb08
   81b88:	94000c76 	bl	84d60 <uart_puts>
   81b8c:	90000060 	adrp	x0, 8d000 <la_logic_traces+0x60>
   81b90:	912cc000 	add	x0, x0, #0xb30
   81b94:	94000c73 	bl	84d60 <uart_puts>
   81b98:	90000060 	adrp	x0, 8d000 <la_logic_traces+0x60>
   81b9c:	912de000 	add	x0, x0, #0xb78
   81ba0:	94000c70 	bl	84d60 <uart_puts>
   81ba4:	90000060 	adrp	x0, 8d000 <la_logic_traces+0x60>
   81ba8:	912f0000 	add	x0, x0, #0xbc0
   81bac:	94000c6d 	bl	84d60 <uart_puts>
   81bb0:	90000060 	adrp	x0, 8d000 <la_logic_traces+0x60>
   81bb4:	91300000 	add	x0, x0, #0xc00
   81bb8:	94000c6a 	bl	84d60 <uart_puts>
   81bbc:	90000060 	adrp	x0, 8d000 <la_logic_traces+0x60>
   81bc0:	91310000 	add	x0, x0, #0xc40
   81bc4:	94000c67 	bl	84d60 <uart_puts>
   81bc8:	90000060 	adrp	x0, 8d000 <la_logic_traces+0x60>
   81bcc:	9131e000 	add	x0, x0, #0xc78
   81bd0:	94000c64 	bl	84d60 <uart_puts>
   81bd4:	90000060 	adrp	x0, 8d000 <la_logic_traces+0x60>
   81bd8:	91328000 	add	x0, x0, #0xca0
   81bdc:	94000c61 	bl	84d60 <uart_puts>
   81be0:	90000060 	adrp	x0, 8d000 <la_logic_traces+0x60>
   81be4:	91334000 	add	x0, x0, #0xcd0
   81be8:	94000c5e 	bl	84d60 <uart_puts>
   81bec:	90000060 	adrp	x0, 8d000 <la_logic_traces+0x60>
   81bf0:	91344000 	add	x0, x0, #0xd10
   81bf4:	94000c5b 	bl	84d60 <uart_puts>
   81bf8:	90000060 	adrp	x0, 8d000 <la_logic_traces+0x60>
   81bfc:	91354000 	add	x0, x0, #0xd50
   81c00:	94000c58 	bl	84d60 <uart_puts>
   81c04:	90000060 	adrp	x0, 8d000 <la_logic_traces+0x60>
   81c08:	91360000 	add	x0, x0, #0xd80
   81c0c:	94000c55 	bl	84d60 <uart_puts>
   81c10:	90000060 	adrp	x0, 8d000 <la_logic_traces+0x60>
   81c14:	9136c000 	add	x0, x0, #0xdb0
   81c18:	94000c52 	bl	84d60 <uart_puts>
   81c1c:	90000060 	adrp	x0, 8d000 <la_logic_traces+0x60>
   81c20:	91378000 	add	x0, x0, #0xde0
   81c24:	94000c4f 	bl	84d60 <uart_puts>
   81c28:	90000060 	adrp	x0, 8d000 <la_logic_traces+0x60>
   81c2c:	91384000 	add	x0, x0, #0xe10
   81c30:	94000c4c 	bl	84d60 <uart_puts>
   81c34:	90000060 	adrp	x0, 8d000 <la_logic_traces+0x60>
   81c38:	91390000 	add	x0, x0, #0xe40
   81c3c:	94000c49 	bl	84d60 <uart_puts>
   81c40:	90000060 	adrp	x0, 8d000 <la_logic_traces+0x60>
   81c44:	9139c000 	add	x0, x0, #0xe70
   81c48:	94000c46 	bl	84d60 <uart_puts>
   81c4c:	90000060 	adrp	x0, 8d000 <la_logic_traces+0x60>
   81c50:	913a8000 	add	x0, x0, #0xea0
   81c54:	94000c43 	bl	84d60 <uart_puts>
   81c58:	90000060 	adrp	x0, 8d000 <la_logic_traces+0x60>
   81c5c:	913b6000 	add	x0, x0, #0xed8
   81c60:	94000c40 	bl	84d60 <uart_puts>
   81c64:	90000060 	adrp	x0, 8d000 <la_logic_traces+0x60>
   81c68:	913c4000 	add	x0, x0, #0xf10
   81c6c:	94000c3d 	bl	84d60 <uart_puts>
   81c70:	a8c17bfd 	ldp	x29, x30, [sp], #16
   81c74:	90000060 	adrp	x0, 8d000 <la_logic_traces+0x60>
   81c78:	913d0000 	add	x0, x0, #0xf40
   81c7c:	14000c39 	b	84d60 <uart_puts>

0000000000081c80 <vButton>:
   81c80:	a9bc7bfd 	stp	x29, x30, [sp, #-64]!
   81c84:	52800001 	mov	w1, #0x0                   	// #0
   81c88:	528002a0 	mov	w0, #0x15                  	// #21
   81c8c:	910003fd 	mov	x29, sp
   81c90:	a90153f3 	stp	x19, x20, [sp, #16]
   81c94:	52800013 	mov	w19, #0x0                   	// #0
   81c98:	a9025bf5 	stp	x21, x22, [sp, #32]
   81c9c:	52800035 	mov	w21, #0x1                   	// #1
   81ca0:	b0000076 	adrp	x22, 8e000 <sc_scope_draw+0x570>
   81ca4:	913f22d6 	add	x22, x22, #0xfc8
   81ca8:	a90363f7 	stp	x23, x24, [sp, #48]
   81cac:	94000bb5 	bl	84b80 <gpio_set_function>
   81cb0:	52800041 	mov	w1, #0x2                   	// #2
   81cb4:	528002a0 	mov	w0, #0x15                  	// #21
   81cb8:	d0000077 	adrp	x23, 8f000 <g_msg+0x18>
   81cbc:	9106c2f7 	add	x23, x23, #0x1b0
   81cc0:	2a1503f4 	mov	w20, w21
   81cc4:	2a1503f8 	mov	w24, w21
   81cc8:	94000bc2 	bl	84bd0 <gpio_set_pull>
   81ccc:	14000005 	b	81ce0 <vButton+0x60>
   81cd0:	52800013 	mov	w19, #0x0                   	// #0
   81cd4:	2a0003f4 	mov	w20, w0
   81cd8:	d28001e0 	mov	x0, #0xf                   	// #15
   81cdc:	940021f9 	bl	8a4c0 <vTaskDelay>
   81ce0:	528002a0 	mov	w0, #0x15                  	// #21
   81ce4:	94000bdb 	bl	84c50 <gpio_read>
   81ce8:	6b00029f 	cmp	w20, w0
   81cec:	54ffff21 	b.ne	81cd0 <vButton+0x50>  // b.any
   81cf0:	71000e7f 	cmp	w19, #0x3
   81cf4:	1a93a673 	cinc	w19, w19, lt  // lt = tstop
   81cf8:	71000e7f 	cmp	w19, #0x3
   81cfc:	7a4002a4 	ccmp	w21, w0, #0x4, eq  // eq = none
   81d00:	54fffea0 	b.eq	81cd4 <vButton+0x54>  // b.none
   81d04:	2a0003f5 	mov	w21, w0
   81d08:	52800073 	mov	w19, #0x3                   	// #3
   81d0c:	35fffe40 	cbnz	w0, 81cd4 <vButton+0x54>
   81d10:	b94002c1 	ldr	w1, [x22]
   81d14:	52800015 	mov	w21, #0x0                   	// #0
   81d18:	52000021 	eor	w1, w1, #0x1
   81d1c:	b90002c1 	str	w1, [x22]
   81d20:	b90002f8 	str	w24, [x23]
   81d24:	17ffffec 	b	81cd4 <vButton+0x54>
   81d28:	d503201f 	nop
   81d2c:	d503201f 	nop

0000000000081d30 <vStepper>:
   81d30:	a9bb7bfd 	stp	x29, x30, [sp, #-80]!
   81d34:	910003fd 	mov	x29, sp
   81d38:	a90153f3 	stp	x19, x20, [sp, #16]
   81d3c:	b0000074 	adrp	x20, 8e000 <sc_scope_draw+0x570>
   81d40:	913f2294 	add	x20, x20, #0xfc8
   81d44:	a9025bf5 	stp	x21, x22, [sp, #32]
   81d48:	d0000076 	adrp	x22, 8f000 <g_msg+0x18>
   81d4c:	9106c2d6 	add	x22, x22, #0x1b0
   81d50:	a90363f7 	stp	x23, x24, [sp, #48]
   81d54:	d29ef9f7 	mov	x23, #0xf7cf                	// #63439
   81d58:	f2bc6a77 	movk	x23, #0xe353, lsl #16
   81d5c:	f2d374b7 	movk	x23, #0x9ba5, lsl #32
   81d60:	f2e41897 	movk	x23, #0x20c4, lsl #48
   81d64:	52800035 	mov	w21, #0x1                   	// #1
   81d68:	528000f8 	mov	w24, #0x7                   	// #7
   81d6c:	52807d13 	mov	w19, #0x3e8                 	// #1000
   81d70:	f90023f9 	str	x25, [sp, #64]
   81d74:	52800019 	mov	w25, #0x0                   	// #0
   81d78:	94001c56 	bl	88ed0 <stepper_init>
   81d7c:	d503201f 	nop
   81d80:	b94006c0 	ldr	w0, [x22, #4]
   81d84:	340002a0 	cbz	w0, 81dd8 <vStepper+0xa8>
   81d88:	b9400680 	ldr	w0, [x20, #4]
   81d8c:	7100001f 	cmp	w0, #0x0
   81d90:	1a9812a0 	csel	w0, w21, w24, ne  // ne = any
   81d94:	0b000339 	add	w25, w25, w0
   81d98:	12000b39 	and	w25, w25, #0x7
   81d9c:	2a1903e0 	mov	w0, w25
   81da0:	94001c6c 	bl	88f50 <stepper_phase>
   81da4:	b9400a81 	ldr	w1, [x20, #8]
   81da8:	710fa03f 	cmp	w1, #0x3e8
   81dac:	1a93d021 	csel	w1, w1, w19, le
   81db0:	7100003f 	cmp	w1, #0x0
   81db4:	1a95c020 	csel	w0, w1, w21, gt
   81db8:	1ac00a60 	udiv	w0, w19, w0
   81dbc:	9b337c00 	smull	x0, w0, w19
   81dc0:	d343fc00 	lsr	x0, x0, #3
   81dc4:	9bd77c00 	umulh	x0, x0, x23
   81dc8:	d344fc00 	lsr	x0, x0, #4
   81dcc:	940021bd 	bl	8a4c0 <vTaskDelay>
   81dd0:	b94006c0 	ldr	w0, [x22, #4]
   81dd4:	35fffda0 	cbnz	w0, 81d88 <vStepper+0x58>
   81dd8:	94001c82 	bl	88fe0 <stepper_release>
   81ddc:	d2800280 	mov	x0, #0x14                  	// #20
   81de0:	940021b8 	bl	8a4c0 <vTaskDelay>
   81de4:	17ffffe7 	b	81d80 <vStepper+0x50>
   81de8:	d503201f 	nop
   81dec:	d503201f 	nop

0000000000081df0 <vServo>:
   81df0:	a9bd7bfd 	stp	x29, x30, [sp, #-48]!
   81df4:	910003fd 	mov	x29, sp
   81df8:	a90153f3 	stp	x19, x20, [sp, #16]
   81dfc:	b0000073 	adrp	x19, 8e000 <sc_scope_draw+0x570>
   81e00:	913f2273 	add	x19, x19, #0xfc8
   81e04:	d0000074 	adrp	x20, 8f000 <g_msg+0x18>
   81e08:	9106c294 	add	x20, x20, #0x1b0
   81e0c:	f90013f5 	str	x21, [sp, #32]
   81e10:	52800035 	mov	w21, #0x1                   	// #1
   81e14:	b9400e60 	ldr	w0, [x19, #12]
   81e18:	94001c0e 	bl	88e50 <servo_set_angle>
   81e1c:	14000007 	b	81e38 <vServo+0x48>
   81e20:	52801680 	mov	w0, #0xb4                  	// #180
   81e24:	b900167f 	str	wzr, [x19, #20]
   81e28:	b9000e60 	str	w0, [x19, #12]
   81e2c:	94001c09 	bl	88e50 <servo_set_angle>
   81e30:	d2800280 	mov	x0, #0x14                  	// #20
   81e34:	940021a3 	bl	8a4c0 <vTaskDelay>
   81e38:	b9400a80 	ldr	w0, [x20, #8]
   81e3c:	34ffffa0 	cbz	w0, 81e30 <vServo+0x40>
   81e40:	b9401261 	ldr	w1, [x19, #16]
   81e44:	b9401662 	ldr	w2, [x19, #20]
   81e48:	b9400e60 	ldr	w0, [x19, #12]
   81e4c:	7100005f 	cmp	w2, #0x0
   81e50:	5a811421 	cneg	w1, w1, eq  // eq = none
   81e54:	0b010000 	add	w0, w0, w1
   81e58:	7102cc1f 	cmp	w0, #0xb3
   81e5c:	54fffe2c 	b.gt	81e20 <vServo+0x30>
   81e60:	7100001f 	cmp	w0, #0x0
   81e64:	54fffe2c 	b.gt	81e28 <vServo+0x38>
   81e68:	52800000 	mov	w0, #0x0                   	// #0
   81e6c:	b9001675 	str	w21, [x19, #20]
   81e70:	17ffffee 	b	81e28 <vServo+0x38>
   81e74:	d503201f 	nop
   81e78:	d503201f 	nop
   81e7c:	d503201f 	nop

0000000000081e80 <qr_blit>:
   81e80:	a9bb7bfd 	stp	x29, x30, [sp, #-80]!
   81e84:	12bfe004 	mov	w4, #0xffffff              	// #16777215
   81e88:	910003fd 	mov	x29, sp
   81e8c:	a9025bf5 	stp	x21, x22, [sp, #32]
   81e90:	2a0203f5 	mov	w21, w2
   81e94:	11002062 	add	w2, w3, #0x8
   81e98:	a90363f7 	stp	x23, x24, [sp, #48]
   81e9c:	2a0303f7 	mov	w23, w3
   81ea0:	1b157c43 	mul	w3, w2, w21
   81ea4:	a90153f3 	stp	x19, x20, [sp, #16]
   81ea8:	2a0003f3 	mov	w19, w0
   81eac:	2a0303e2 	mov	w2, w3
   81eb0:	a9046bf9 	stp	x25, x26, [sp, #64]
   81eb4:	2a0103f9 	mov	w25, w1
   81eb8:	94000e86 	bl	858d0 <fb_fill>
   81ebc:	710002ff 	cmp	w23, #0x0
   81ec0:	5400048d 	b.le	81f50 <qr_blit+0xd0>
   81ec4:	531e76ba 	lsl	w26, w21, #2
   81ec8:	d0000078 	adrp	x24, 8f000 <g_msg+0x18>
   81ecc:	9106c318 	add	x24, x24, #0x1b0
   81ed0:	0b1a0339 	add	w25, w25, w26
   81ed4:	91004318 	add	x24, x24, #0x10
   81ed8:	0b1a027a 	add	w26, w19, w26
   81edc:	52800016 	mov	w22, #0x0                   	// #0
   81ee0:	2a1a03f4 	mov	w20, w26
   81ee4:	52800013 	mov	w19, #0x0                   	// #0
   81ee8:	14000006 	b	81f00 <qr_blit+0x80>
   81eec:	11000660 	add	w0, w19, #0x1
   81ef0:	0b150294 	add	w20, w20, w21
   81ef4:	6b0002ff 	cmp	w23, w0
   81ef8:	54000240 	b.eq	81f40 <qr_blit+0xc0>  // b.none
   81efc:	2a0003f3 	mov	w19, w0
   81f00:	2a1603e2 	mov	w2, w22
   81f04:	2a1303e1 	mov	w1, w19
   81f08:	aa1803e0 	mov	x0, x24
   81f0c:	940018d1 	bl	88250 <qrcodegen_getModule>
   81f10:	72001c1f 	tst	w0, #0xff
   81f14:	54fffec0 	b.eq	81eec <qr_blit+0x6c>  // b.none
   81f18:	2a1403e0 	mov	w0, w20
   81f1c:	2a1503e3 	mov	w3, w21
   81f20:	2a1503e2 	mov	w2, w21
   81f24:	2a1903e1 	mov	w1, w25
   81f28:	52800004 	mov	w4, #0x0                   	// #0
   81f2c:	94000e69 	bl	858d0 <fb_fill>
   81f30:	11000660 	add	w0, w19, #0x1
   81f34:	0b150294 	add	w20, w20, w21
   81f38:	6b0002ff 	cmp	w23, w0
   81f3c:	54fffe01 	b.ne	81efc <qr_blit+0x7c>  // b.any
   81f40:	6b1302df 	cmp	w22, w19
   81f44:	0b150339 	add	w25, w25, w21
   81f48:	110006d6 	add	w22, w22, #0x1
   81f4c:	54fffca1 	b.ne	81ee0 <qr_blit+0x60>  // b.any
   81f50:	a94153f3 	ldp	x19, x20, [sp, #16]
   81f54:	a9425bf5 	ldp	x21, x22, [sp, #32]
   81f58:	a94363f7 	ldp	x23, x24, [sp, #48]
   81f5c:	a9446bf9 	ldp	x25, x26, [sp, #64]
   81f60:	a8c57bfd 	ldp	x29, x30, [sp], #80
   81f64:	d65f03c0 	ret
   81f68:	d503201f 	nop
   81f6c:	d503201f 	nop

0000000000081f70 <led_out_write>:
   81f70:	a9be7bfd 	stp	x29, x30, [sp, #-32]!
   81f74:	910003fd 	mov	x29, sp
   81f78:	a90153f3 	stp	x19, x20, [sp, #16]
   81f7c:	12001c14 	and	w20, w0, #0xff
   81f80:	528000f3 	mov	w19, #0x7                   	// #7
   81f84:	1400000e 	b	81fbc <led_out_write+0x4c>
   81f88:	52a00040 	mov	w0, #0x20000               	// #131072
   81f8c:	94000b29 	bl	84c30 <gpio_set>
   81f90:	52800020 	mov	w0, #0x1                   	// #1
   81f94:	94000ad7 	bl	84af0 <delay_us>
   81f98:	52a10000 	mov	w0, #0x8000000             	// #134217728
   81f9c:	94000b25 	bl	84c30 <gpio_set>
   81fa0:	52800020 	mov	w0, #0x1                   	// #1
   81fa4:	94000ad3 	bl	84af0 <delay_us>
   81fa8:	51000673 	sub	w19, w19, #0x1
   81fac:	52a10000 	mov	w0, #0x8000000             	// #134217728
   81fb0:	94000b24 	bl	84c40 <gpio_clear>
   81fb4:	3100067f 	cmn	w19, #0x1
   81fb8:	540000c0 	b.eq	81fd0 <led_out_write+0x60>  // b.none
   81fbc:	1ad32680 	lsr	w0, w20, w19
   81fc0:	3707fe40 	tbnz	w0, #0, 81f88 <led_out_write+0x18>
   81fc4:	52a00040 	mov	w0, #0x20000               	// #131072
   81fc8:	94000b1e 	bl	84c40 <gpio_clear>
   81fcc:	17fffff1 	b	81f90 <led_out_write+0x20>
   81fd0:	52a00800 	mov	w0, #0x400000              	// #4194304
   81fd4:	94000b17 	bl	84c30 <gpio_set>
   81fd8:	52800020 	mov	w0, #0x1                   	// #1
   81fdc:	94000ac5 	bl	84af0 <delay_us>
   81fe0:	a94153f3 	ldp	x19, x20, [sp, #16]
   81fe4:	52a00800 	mov	w0, #0x400000              	// #4194304
   81fe8:	a8c27bfd 	ldp	x29, x30, [sp], #32
   81fec:	14000b15 	b	84c40 <gpio_clear>

0000000000081ff0 <vSweep>:
   81ff0:	a9ba7bfd 	stp	x29, x30, [sp, #-96]!
   81ff4:	910003fd 	mov	x29, sp
   81ff8:	a90153f3 	stp	x19, x20, [sp, #16]
   81ffc:	d0000074 	adrp	x20, 8f000 <g_msg+0x18>
   82000:	9106c294 	add	x20, x20, #0x1b0
   82004:	a9025bf5 	stp	x21, x22, [sp, #32]
   82008:	90000076 	adrp	x22, 8e000 <sc_scope_draw+0x570>
   8200c:	913f22d6 	add	x22, x22, #0xfc8
   82010:	a90363f7 	stp	x23, x24, [sp, #48]
   82014:	52800037 	mov	w23, #0x1                   	// #1
   82018:	2a1703f8 	mov	w24, w23
   8201c:	a9046bf9 	stp	x25, x26, [sp, #64]
   82020:	d29ef9fa 	mov	x26, #0xf7cf                	// #63439
   82024:	f2bc6a7a 	movk	x26, #0xe353, lsl #16
   82028:	f2d374ba 	movk	x26, #0x9ba5, lsl #32
   8202c:	f2e4189a 	movk	x26, #0x20c4, lsl #48
   82030:	52800015 	mov	w21, #0x0                   	// #0
   82034:	52807d19 	mov	w25, #0x3e8                 	// #1000
   82038:	f9002bfb 	str	x27, [sp, #80]
   8203c:	5280029b 	mov	w27, #0x14                  	// #20
   82040:	3946a280 	ldrb	w0, [x20, #424]
   82044:	72001c13 	ands	w19, w0, #0xff
   82048:	2a1303e0 	mov	w0, w19
   8204c:	54000120 	b.eq	82070 <vSweep+0x80>  // b.none
   82050:	97ffffc8 	bl	81f70 <led_out_write>
   82054:	3906a693 	strb	w19, [x20, #425]
   82058:	d2800780 	mov	x0, #0x3c                  	// #60
   8205c:	94002119 	bl	8a4c0 <vTaskDelay>
   82060:	3946a280 	ldrb	w0, [x20, #424]
   82064:	72001c13 	ands	w19, w0, #0xff
   82068:	2a1303e0 	mov	w0, w19
   8206c:	54ffff21 	b.ne	82050 <vSweep+0x60>  // b.any
   82070:	b9401ac1 	ldr	w1, [x22, #24]
   82074:	1ad52313 	lsl	w19, w24, w21
   82078:	52800000 	mov	w0, #0x0                   	// #0
   8207c:	12001e73 	and	w19, w19, #0xff
   82080:	34000281 	cbz	w1, 820d0 <vSweep+0xe0>
   82084:	2a1303e0 	mov	w0, w19
   82088:	97ffffba 	bl	81f70 <led_out_write>
   8208c:	3906a693 	strb	w19, [x20, #425]
   82090:	0b1702b5 	add	w21, w21, w23
   82094:	71001abf 	cmp	w21, #0x6
   82098:	5400026c 	b.gt	820e4 <vSweep+0xf4>
   8209c:	710002bf 	cmp	w21, #0x0
   820a0:	1a98c2f7 	csel	w23, w23, w24, gt
   820a4:	b9401ec0 	ldr	w0, [x22, #28]
   820a8:	710fa01f 	cmp	w0, #0x3e8
   820ac:	1a99d000 	csel	w0, w0, w25, le
   820b0:	7100501f 	cmp	w0, #0x14
   820b4:	1a9ba000 	csel	w0, w0, w27, ge  // ge = tcont
   820b8:	9b397c00 	smull	x0, w0, w25
   820bc:	d343fc00 	lsr	x0, x0, #3
   820c0:	9bda7c00 	umulh	x0, x0, x26
   820c4:	d344fc00 	lsr	x0, x0, #4
   820c8:	940020fe 	bl	8a4c0 <vTaskDelay>
   820cc:	17ffffdd 	b	82040 <vSweep+0x50>
   820d0:	97ffffa8 	bl	81f70 <led_out_write>
   820d4:	3906a69f 	strb	wzr, [x20, #425]
   820d8:	d2800c80 	mov	x0, #0x64                  	// #100
   820dc:	940020f9 	bl	8a4c0 <vTaskDelay>
   820e0:	17ffffd8 	b	82040 <vSweep+0x50>
   820e4:	12800017 	mov	w23, #0xffffffff            	// #-1
   820e8:	17ffffef 	b	820a4 <vSweep+0xb4>
   820ec:	d503201f 	nop

00000000000820f0 <vClockOwner>:
   820f0:	d10a83ff 	sub	sp, sp, #0x2a0
   820f4:	a9007bfd 	stp	x29, x30, [sp]
   820f8:	910003fd 	mov	x29, sp
   820fc:	a9025bf5 	stp	x21, x22, [sp, #32]
   82100:	90000075 	adrp	x21, 8e000 <sc_scope_draw+0x570>
   82104:	913f22b5 	add	x21, x21, #0xfc8
   82108:	910763f6 	add	x22, sp, #0x1d8
   8210c:	910082a2 	add	x2, x21, #0x20
   82110:	aa1603e0 	mov	x0, x22
   82114:	a90153f3 	stp	x19, x20, [sp, #16]
   82118:	b940eaa1 	ldr	w1, [x21, #232]
   8211c:	a90363f7 	stp	x23, x24, [sp, #48]
   82120:	b0000073 	adrp	x19, 8f000 <g_msg+0x18>
   82124:	9106c273 	add	x19, x19, #0x1b0
   82128:	a9046bf9 	stp	x25, x26, [sp, #64]
   8212c:	9104e3f8 	add	x24, sp, #0x138
   82130:	910463f9 	add	x25, sp, #0x118
   82134:	a90573fb 	stp	x27, x28, [sp, #80]
   82138:	97fffdde 	bl	818b0 <build_ticker>
   8213c:	2a0003e1 	mov	w1, w0
   82140:	b90077e0 	str	w0, [sp, #116]
   82144:	528000c0 	mov	w0, #0x6                   	// #6
   82148:	52955577 	mov	w23, #0xaaab                	// #43691
   8214c:	72a55557 	movk	w23, #0x2aaa, lsl #16
   82150:	1b007c20 	mul	w0, w1, w0
   82154:	1280001a 	mov	w26, #0xffffffff            	// #-1
   82158:	b90073e0 	str	w0, [sp, #112]
   8215c:	52800014 	mov	w20, #0x0                   	// #0
   82160:	94001fc8 	bl	8a080 <xTaskGetTickCount>
   82164:	aa0003fc 	mov	x28, x0
   82168:	f0000040 	adrp	x0, 8d000 <la_logic_traces+0x60>
   8216c:	913e8000 	add	x0, x0, #0xfa0
   82170:	f0000041 	adrp	x1, 8d000 <la_logic_traces+0x60>
   82174:	913e4021 	add	x1, x1, #0xf90
   82178:	a90e83e1 	stp	x1, x0, [sp, #232]
   8217c:	f0000040 	adrp	x0, 8d000 <la_logic_traces+0x60>
   82180:	913ec000 	add	x0, x0, #0xfb0
   82184:	f9007fe0 	str	x0, [sp, #248]
   82188:	f0000040 	adrp	x0, 8d000 <la_logic_traces+0x60>
   8218c:	913f0000 	add	x0, x0, #0xfc0
   82190:	f90087e0 	str	x0, [sp, #264]
   82194:	f0000040 	adrp	x0, 8d000 <la_logic_traces+0x60>
   82198:	913f4000 	add	x0, x0, #0xfd0
   8219c:	f9005fe0 	str	x0, [sp, #184]
   821a0:	90000060 	adrp	x0, 8e000 <sc_scope_draw+0x570>
   821a4:	910ec000 	add	x0, x0, #0x3b0
   821a8:	f90043e0 	str	x0, [sp, #128]
   821ac:	f0000040 	adrp	x0, 8d000 <la_logic_traces+0x60>
   821b0:	912ae000 	add	x0, x0, #0xab8
   821b4:	f9005be0 	str	x0, [sp, #176]
   821b8:	f0000040 	adrp	x0, 8d000 <la_logic_traces+0x60>
   821bc:	913f6000 	add	x0, x0, #0xfd8
   821c0:	f90063e0 	str	x0, [sp, #192]
   821c4:	f0000040 	adrp	x0, 8d000 <la_logic_traces+0x60>
   821c8:	913e2000 	add	x0, x0, #0xf88
   821cc:	f90073e0 	str	x0, [sp, #224]
   821d0:	f0000040 	adrp	x0, 8d000 <la_logic_traces+0x60>
   821d4:	913e0000 	add	x0, x0, #0xf80
   821d8:	f9006fe0 	str	x0, [sp, #216]
   821dc:	f0000040 	adrp	x0, 8d000 <la_logic_traces+0x60>
   821e0:	913f8000 	add	x0, x0, #0xfe0
   821e4:	f90067e0 	str	x0, [sp, #200]
   821e8:	f0000040 	adrp	x0, 8d000 <la_logic_traces+0x60>
   821ec:	913fa000 	add	x0, x0, #0xfe8
   821f0:	f9006be0 	str	x0, [sp, #208]
   821f4:	90000060 	adrp	x0, 8e000 <sc_scope_draw+0x570>
   821f8:	9100a000 	add	x0, x0, #0x28
   821fc:	f90047e0 	str	x0, [sp, #136]
   82200:	f000005b 	adrp	x27, 8d000 <la_logic_traces+0x60>
   82204:	913fc360 	add	x0, x27, #0xff0
   82208:	f9003fe0 	str	x0, [sp, #120]
   8220c:	f0000040 	adrp	x0, 8d000 <la_logic_traces+0x60>
   82210:	913fe000 	add	x0, x0, #0xff8
   82214:	f9004be0 	str	x0, [sp, #144]
   82218:	90000060 	adrp	x0, 8e000 <sc_scope_draw+0x570>
   8221c:	91038000 	add	x0, x0, #0xe0
   82220:	f9004fe0 	str	x0, [sp, #152]
   82224:	90000060 	adrp	x0, 8e000 <sc_scope_draw+0x570>
   82228:	91000000 	add	x0, x0, #0x0
   8222c:	90000064 	adrp	x4, 8e000 <sc_scope_draw+0x570>
   82230:	910f209b 	add	x27, x4, #0x3c8
   82234:	f90053e0 	str	x0, [sp, #160]
   82238:	90000060 	adrp	x0, 8e000 <sc_scope_draw+0x570>
   8223c:	91006000 	add	x0, x0, #0x18
   82240:	f90057e0 	str	x0, [sp, #168]
   82244:	90000060 	adrp	x0, 8e000 <sc_scope_draw+0x570>
   82248:	9100c000 	add	x0, x0, #0x30
   8224c:	f90083e0 	str	x0, [sp, #256]
   82250:	f9008bfc 	str	x28, [sp, #272]
   82254:	d503201f 	nop
   82258:	f9411660 	ldr	x0, [x19, #552]
   8225c:	910583e1 	add	x1, sp, #0x160
   82260:	d2800002 	mov	x2, #0x0                   	// #0
   82264:	940025b3 	bl	8b930 <xQueueReceive>
   82268:	f100041f 	cmp	x0, #0x1
   8226c:	540002e1 	b.ne	822c8 <vClockOwner+0x1d8>  // b.any
   82270:	b94163e1 	ldr	w1, [sp, #352]
   82274:	7100103f 	cmp	w1, #0x4
   82278:	54002dc0 	b.eq	82830 <vClockOwner+0x740>  // b.none
   8227c:	540015c8 	b.hi	82534 <vClockOwner+0x444>  // b.pmore
   82280:	7100083f 	cmp	w1, #0x2
   82284:	54002960 	b.eq	827b0 <vClockOwner+0x6c0>  // b.none
   82288:	71000c3f 	cmp	w1, #0x3
   8228c:	54000e61 	b.ne	82458 <vClockOwner+0x368>  // b.any
   82290:	b94167e1 	ldr	w1, [sp, #356]
   82294:	52800140 	mov	w0, #0xa                   	// #10
   82298:	1280001a 	mov	w26, #0xffffffff            	// #-1
   8229c:	12000c21 	and	w1, w1, #0xf
   822a0:	94000c3c 	bl	85390 <max_all>
   822a4:	f9407fe0 	ldr	x0, [sp, #248]
   822a8:	94000aae 	bl	84d60 <uart_puts>
   822ac:	f9411660 	ldr	x0, [x19, #552]
   822b0:	910583e1 	add	x1, sp, #0x160
   822b4:	d2800002 	mov	x2, #0x0                   	// #0
   822b8:	9400259e 	bl	8b930 <xQueueReceive>
   822bc:	f100041f 	cmp	x0, #0x1
   822c0:	54fffd80 	b.eq	82270 <vClockOwner+0x180>  // b.none
   822c4:	d503201f 	nop
   822c8:	b9400260 	ldr	w0, [x19]
   822cc:	340000c0 	cbz	w0, 822e4 <vClockOwner+0x1f4>
   822d0:	b900027f 	str	wzr, [x19]
   822d4:	b94002a3 	ldr	w3, [x21]
   822d8:	340021a3 	cbz	w3, 8270c <vClockOwner+0x61c>
   822dc:	f94053e0 	ldr	x0, [sp, #160]
   822e0:	94000aa0 	bl	84d60 <uart_puts>
   822e4:	94001f67 	bl	8a080 <xTaskGetTickCount>
   822e8:	aa0003ed 	mov	x13, x0
   822ec:	cb1c0000 	sub	x0, x0, x28
   822f0:	b940eaac 	ldr	w12, [x21, #232]
   822f4:	f10f9c1f 	cmp	x0, #0x3e7
   822f8:	540001e9 	b.ls	82334 <vClockOwner+0x244>  // b.plast
   822fc:	5288a0e3 	mov	w3, #0x4507                	// #17671
   82300:	72b845c3 	movk	w3, #0xc22e, lsl #16
   82304:	528a3002 	mov	w2, #0x5180                	// #20864
   82308:	72a00022 	movk	w2, #0x1, lsl #16
   8230c:	d503201f 	nop
   82310:	11000580 	add	w0, w12, #0x1
   82314:	910fa39c 	add	x28, x28, #0x3e8
   82318:	cb1c01a1 	sub	x1, x13, x28
   8231c:	f10f9c3f 	cmp	x1, #0x3e7
   82320:	9ba37c0c 	umull	x12, w0, w3
   82324:	d370fd8c 	lsr	x12, x12, #48
   82328:	1b02818c 	msub	w12, w12, w2, w0
   8232c:	54ffff28 	b.hi	82310 <vClockOwner+0x220>  // b.pmore
   82330:	b900eaac 	str	w12, [x21, #232]
   82334:	52911120 	mov	w0, #0x8889                	// #34953
   82338:	72b11100 	movk	w0, #0x8888, lsl #16
   8233c:	6b0c035f 	cmp	w26, w12
   82340:	9ba07d8e 	umull	x14, w12, w0
   82344:	d360fdc0 	lsr	x0, x14, #32
   82348:	d365fdce 	lsr	x14, x14, #37
   8234c:	540019c1 	b.ne	82684 <vClockOwner+0x594>  // b.any
   82350:	b94077e0 	ldr	w0, [sp, #116]
   82354:	528000c4 	mov	w4, #0x6                   	// #6
   82358:	2a1403e5 	mov	w5, w20
   8235c:	11000694 	add	w20, w20, #0x1
   82360:	1b047c04 	mul	w4, w0, w4
   82364:	52911120 	mov	w0, #0x8889                	// #34953
   82368:	72b11100 	movk	w0, #0x8888, lsl #16
   8236c:	52800783 	mov	w3, #0x3c                  	// #60
   82370:	d342fda2 	lsr	x2, x13, #2
   82374:	9ba07dc1 	umull	x1, w14, w0
   82378:	290d13e5 	stp	w5, w4, [sp, #104]
   8237c:	d29ef9e4 	mov	x4, #0xf7cf                	// #63439
   82380:	f2bc6a64 	movk	x4, #0xe353, lsl #16
   82384:	529678a0 	mov	w0, #0xb3c5                	// #46021
   82388:	72b23440 	movk	w0, #0x91a2, lsl #16
   8238c:	d365fc21 	lsr	x1, x1, #37
   82390:	f2d374a4 	movk	x4, #0x9ba5, lsl #32
   82394:	f2e41884 	movk	x4, #0x20c4, lsl #48
   82398:	9ba07d80 	umull	x0, w12, w0
   8239c:	1b03b821 	msub	w1, w1, w3, w14
   823a0:	9bc47c42 	umulh	x2, x2, x4
   823a4:	d36bfc00 	lsr	x0, x0, #43
   823a8:	53041042 	ubfx	w2, w2, #4, #1
   823ac:	94000bc9 	bl	852d0 <tm_time>
   823b0:	f9411a60 	ldr	x0, [x19, #560]
   823b4:	92800001 	mov	x1, #0xffffffffffffffff    	// #-1
   823b8:	940025c2 	bl	8bac0 <xQueueSemaphoreTake>
   823bc:	294d13e5 	ldp	w5, w4, [sp, #104]
   823c0:	aa1903e3 	mov	x3, x25
   823c4:	528000c6 	mov	w6, #0x6                   	// #6
   823c8:	528000a7 	mov	w7, #0x5                   	// #5
   823cc:	4b1900a5 	sub	w5, w5, w25
   823d0:	0b0300a0 	add	w0, w5, w3
   823d4:	52800002 	mov	w2, #0x0                   	// #0
   823d8:	2a0003e1 	mov	w1, w0
   823dc:	1ac40800 	udiv	w0, w0, w4
   823e0:	1b048400 	msub	w0, w0, w4, w1
   823e4:	9b377c01 	smull	x1, w0, w23
   823e8:	d360fc21 	lsr	x1, x1, #32
   823ec:	4b807c21 	sub	w1, w1, w0, asr #31
   823f0:	1b068020 	msub	w0, w1, w6, w0
   823f4:	7100141f 	cmp	w0, #0x5
   823f8:	540000e0 	b.eq	82414 <vClockOwner+0x324>  // b.none
   823fc:	3861cac1 	ldrb	w1, [x22, w1, sxtw]
   82400:	51008021 	sub	w1, w1, #0x20
   82404:	71016c3f 	cmp	w1, #0x5b
   82408:	9ba76c21 	umaddl	x1, w1, w7, x27
   8240c:	9a9b3021 	csel	x1, x1, x27, cc  // cc = lo, ul, last
   82410:	3860c822 	ldrb	w2, [x1, w0, sxtw]
   82414:	38001462 	strb	w2, [x3], #1
   82418:	eb03031f 	cmp	x24, x3
   8241c:	54fffda1 	b.ne	823d0 <vClockOwner+0x2e0>  // b.any
   82420:	aa1903e0 	mov	x0, x25
   82424:	94000bef 	bl	853e0 <max_render>
   82428:	f9411a60 	ldr	x0, [x19, #560]
   8242c:	d2800003 	mov	x3, #0x0                   	// #0
   82430:	d2800002 	mov	x2, #0x0                   	// #0
   82434:	d2800001 	mov	x1, #0x0                   	// #0
   82438:	94002456 	bl	8b590 <xQueueGenericSend>
   8243c:	b94073e0 	ldr	w0, [sp, #112]
   82440:	d28008c1 	mov	x1, #0x46                  	// #70
   82444:	6b14001f 	cmp	w0, w20
   82448:	910443e0 	add	x0, sp, #0x110
   8244c:	1a9f8294 	csel	w20, w20, wzr, hi  // hi = pmore
   82450:	94001ffc 	bl	8a440 <vTaskDelayUntil>
   82454:	17ffff81 	b	82258 <vClockOwner+0x168>
   82458:	34002521 	cbz	w1, 828fc <vClockOwner+0x80c>
   8245c:	7100043f 	cmp	w1, #0x1
   82460:	54000d21 	b.ne	82604 <vClockOwner+0x514>  // b.any
   82464:	3945c3e1 	ldrb	w1, [sp, #368]
   82468:	910082a5 	add	x5, x21, #0x20
   8246c:	52800004 	mov	w4, #0x0                   	// #0
   82470:	35000061 	cbnz	w1, 8247c <vClockOwner+0x38c>
   82474:	14000011 	b	824b8 <vClockOwner+0x3c8>
   82478:	54003300 	b.eq	82ad8 <vClockOwner+0x9e8>  // b.none
   8247c:	51018423 	sub	w3, w1, #0x61
   82480:	51008022 	sub	w2, w1, #0x20
   82484:	12001c63 	and	w3, w3, #0xff
   82488:	12001c42 	and	w2, w2, #0xff
   8248c:	7100687f 	cmp	w3, #0x1a
   82490:	8b0000a3 	add	x3, x5, x0
   82494:	1a813041 	csel	w1, w2, w1, cc  // cc = lo, ul, last
   82498:	910583e2 	add	x2, sp, #0x160
   8249c:	8b000042 	add	x2, x2, x0
   824a0:	2a0003e4 	mov	w4, w0
   824a4:	381ff061 	sturb	w1, [x3, #-1]
   824a8:	91000400 	add	x0, x0, #0x1
   824ac:	f103201f 	cmp	x0, #0xc8
   824b0:	39404041 	ldrb	w1, [x2, #16]
   824b4:	35fffe21 	cbnz	w1, 82478 <vClockOwner+0x388>
   824b8:	910082a3 	add	x3, x21, #0x20
   824bc:	3824c87f 	strb	wzr, [x3, w4, sxtw]
   824c0:	394082a1 	ldrb	w1, [x21, #32]
   824c4:	34003141 	cbz	w1, 82aec <vClockOwner+0x9fc>
   824c8:	9103c2a5 	add	x5, x21, #0xf0
   824cc:	d2800020 	mov	x0, #0x1                   	// #1
   824d0:	14000002 	b	824d8 <vClockOwner+0x3e8>
   824d4:	54003100 	b.eq	82af4 <vClockOwner+0xa04>  // b.none
   824d8:	8b0000a2 	add	x2, x5, x0
   824dc:	2a0003e4 	mov	w4, w0
   824e0:	381ff041 	sturb	w1, [x2, #-1]
   824e4:	38606861 	ldrb	w1, [x3, x0]
   824e8:	91000400 	add	x0, x0, #0x1
   824ec:	f103201f 	cmp	x0, #0xc8
   824f0:	35ffff21 	cbnz	w1, 824d4 <vClockOwner+0x3e4>
   824f4:	9103c2a2 	add	x2, x21, #0xf0
   824f8:	b940eaa1 	ldr	w1, [x21, #232]
   824fc:	910082ac 	add	x12, x21, #0x20
   82500:	aa1603e0 	mov	x0, x22
   82504:	1280001a 	mov	w26, #0xffffffff            	// #-1
   82508:	52800014 	mov	w20, #0x0                   	// #0
   8250c:	3824c85f 	strb	wzr, [x2, w4, sxtw]
   82510:	aa0c03e2 	mov	x2, x12
   82514:	97fffce7 	bl	818b0 <build_ticker>
   82518:	2a0003e2 	mov	w2, w0
   8251c:	528000c1 	mov	w1, #0x6                   	// #6
   82520:	aa0c03e0 	mov	x0, x12
   82524:	1b017c41 	mul	w1, w2, w1
   82528:	290e0be1 	stp	w1, w2, [sp, #112]
   8252c:	94000f11 	bl	86170 <fb_marquee_set>
   82530:	17ffff4a 	b	82258 <vClockOwner+0x168>
   82534:	7100183f 	cmp	w1, #0x6
   82538:	54001280 	b.eq	82788 <vClockOwner+0x698>  // b.none
   8253c:	71001c3f 	cmp	w1, #0x7
   82540:	54000661 	b.ne	8260c <vClockOwner+0x51c>  // b.any
   82544:	52800001 	mov	w1, #0x0                   	// #0
   82548:	9106c27a 	add	x26, x19, #0x1b0
   8254c:	b9006bf4 	str	w20, [sp, #104]
   82550:	2a0103f4 	mov	w20, w1
   82554:	d503201f 	nop
   82558:	b9401342 	ldr	w2, [x26, #16]
   8255c:	f9403fe0 	ldr	x0, [sp, #120]
   82560:	34000482 	cbz	w2, 825f0 <vClockOwner+0x500>
   82564:	940009ff 	bl	84d60 <uart_puts>
   82568:	2a1403e0 	mov	w0, w20
   8256c:	97fffd5d 	bl	81ae0 <up_dec>
   82570:	f9404be0 	ldr	x0, [sp, #144]
   82574:	940009fb 	bl	84d60 <uart_puts>
   82578:	aa1a03e0 	mov	x0, x26
   8257c:	940009f9 	bl	84d60 <uart_puts>
   82580:	f9404fe0 	ldr	x0, [sp, #152]
   82584:	940009f7 	bl	84d60 <uart_puts>
   82588:	b9400f42 	ldr	w2, [x26, #12]
   8258c:	52911120 	mov	w0, #0x8889                	// #34953
   82590:	72b11100 	movk	w0, #0x8888, lsl #16
   82594:	9b207c40 	smull	x0, w2, w0
   82598:	d360fc00 	lsr	x0, x0, #32
   8259c:	0b000040 	add	w0, w2, w0
   825a0:	13057c00 	asr	w0, w0, #5
   825a4:	4b827c00 	sub	w0, w0, w2, asr #31
   825a8:	97fffd4e 	bl	81ae0 <up_dec>
   825ac:	f94043e0 	ldr	x0, [sp, #128]
   825b0:	940009ec 	bl	84d60 <uart_puts>
   825b4:	b9400f42 	ldr	w2, [x26, #12]
   825b8:	52911120 	mov	w0, #0x8889                	// #34953
   825bc:	72b11100 	movk	w0, #0x8888, lsl #16
   825c0:	52800781 	mov	w1, #0x3c                  	// #60
   825c4:	9b207c40 	smull	x0, w2, w0
   825c8:	d360fc00 	lsr	x0, x0, #32
   825cc:	0b000040 	add	w0, w2, w0
   825d0:	13057c00 	asr	w0, w0, #5
   825d4:	4b827c00 	sub	w0, w0, w2, asr #31
   825d8:	1b018800 	msub	w0, w0, w1, w2
   825dc:	7100241f 	cmp	w0, #0x9
   825e0:	54001bad 	b.le	82954 <vClockOwner+0x864>
   825e4:	97fffd3f 	bl	81ae0 <up_dec>
   825e8:	f94047e0 	ldr	x0, [sp, #136]
   825ec:	940009dd 	bl	84d60 <uart_puts>
   825f0:	11000694 	add	w20, w20, #0x1
   825f4:	9100535a 	add	x26, x26, #0x14
   825f8:	71001a9f 	cmp	w20, #0x6
   825fc:	54fffae1 	b.ne	82558 <vClockOwner+0x468>  // b.any
   82600:	b9406bf4 	ldr	w20, [sp, #104]
   82604:	1280001a 	mov	w26, #0xffffffff            	// #-1
   82608:	17ffff14 	b	82258 <vClockOwner+0x168>
   8260c:	7100143f 	cmp	w1, #0x5
   82610:	54ffffa1 	b.ne	82604 <vClockOwner+0x514>  // b.any
   82614:	b94167e2 	ldr	w2, [sp, #356]
   82618:	1280001a 	mov	w26, #0xffffffff            	// #-1
   8261c:	7100145f 	cmp	w2, #0x5
   82620:	54ffe1c8 	b.hi	82258 <vClockOwner+0x168>  // b.pmore
   82624:	9106c261 	add	x1, x19, #0x1b0
   82628:	52800283 	mov	w3, #0x14                  	// #20
   8262c:	d2800000 	mov	x0, #0x0                   	// #0
   82630:	9b230443 	smaddl	x3, w2, w3, x1
   82634:	910583e1 	add	x1, sp, #0x160
   82638:	8b000021 	add	x1, x1, x0
   8263c:	39404021 	ldrb	w1, [x1, #16]
   82640:	38206861 	strb	w1, [x3, x0]
   82644:	91000400 	add	x0, x0, #0x1
   82648:	f1002c1f 	cmp	x0, #0xb
   8264c:	34000041 	cbz	w1, 82654 <vClockOwner+0x564>
   82650:	54ffff21 	b.ne	82634 <vClockOwner+0x544>  // b.any
   82654:	9106c260 	add	x0, x19, #0x1b0
   82658:	93407c41 	sxtw	x1, w2
   8265c:	d2800282 	mov	x2, #0x14                  	// #20
   82660:	b9416be3 	ldr	w3, [sp, #360]
   82664:	1280001a 	mov	w26, #0xffffffff            	// #-1
   82668:	9b020021 	madd	x1, x1, x2, x0
   8266c:	52800022 	mov	w2, #0x1                   	// #1
   82670:	f94087e0 	ldr	x0, [sp, #264]
   82674:	39002c3f 	strb	wzr, [x1, #11]
   82678:	29018823 	stp	w3, w2, [x1, #12]
   8267c:	940009b9 	bl	84d60 <uart_puts>
   82680:	17fffef6 	b	82258 <vClockOwner+0x168>
   82684:	530a7c00 	lsr	w0, w0, #10
   82688:	528b60c2 	mov	w2, #0x5b06                	// #23302
   8268c:	72a0b602 	movk	w2, #0x5b0, lsl #16
   82690:	5280b405 	mov	w5, #0x5a0                 	// #1440
   82694:	9106c261 	add	x1, x19, #0x1b0
   82698:	9ba27c00 	umull	x0, w0, w2
   8269c:	52800002 	mov	w2, #0x0                   	// #0
   826a0:	d360fc00 	lsr	x0, x0, #32
   826a4:	1b00b8a5 	msub	w5, w5, w0, w14
   826a8:	b9401020 	ldr	w0, [x1, #16]
   826ac:	340000e0 	cbz	w0, 826c8 <vClockOwner+0x5d8>
   826b0:	b9400c23 	ldr	w3, [x1, #12]
   826b4:	6b050060 	subs	w0, w3, w5
   826b8:	11168004 	add	w4, w0, #0x5a0
   826bc:	1a804080 	csel	w0, w4, w0, mi  // mi = first
   826c0:	7100281f 	cmp	w0, #0xa
   826c4:	5400172d 	b.le	829a8 <vClockOwner+0x8b8>
   826c8:	11000442 	add	w2, w2, #0x1
   826cc:	91005021 	add	x1, x1, #0x14
   826d0:	7100185f 	cmp	w2, #0x6
   826d4:	54fffea1 	b.ne	826a8 <vClockOwner+0x5b8>  // b.any
   826d8:	910082a2 	add	x2, x21, #0x20
   826dc:	2a0c03e1 	mov	w1, w12
   826e0:	aa1603e0 	mov	x0, x22
   826e4:	97fffc73 	bl	818b0 <build_ticker>
   826e8:	528000c1 	mov	w1, #0x6                   	// #6
   826ec:	1b017c04 	mul	w4, w0, w1
   826f0:	290e03e4 	stp	w4, w0, [sp, #112]
   826f4:	6b14009f 	cmp	w4, w20
   826f8:	540013e9 	b.ls	82974 <vClockOwner+0x884>  // b.plast
   826fc:	2a1403e5 	mov	w5, w20
   82700:	2a0c03fa 	mov	w26, w12
   82704:	11000694 	add	w20, w20, #0x1
   82708:	17ffff17 	b	82364 <vClockOwner+0x274>
   8270c:	3943c2a1 	ldrb	w1, [x21, #240]
   82710:	9103c2a5 	add	x5, x21, #0xf0
   82714:	910082a4 	add	x4, x21, #0x20
   82718:	d2800020 	mov	x0, #0x1                   	// #1
   8271c:	35000061 	cbnz	w1, 82728 <vClockOwner+0x638>
   82720:	14000009 	b	82744 <vClockOwner+0x654>
   82724:	54001d60 	b.eq	82ad0 <vClockOwner+0x9e0>  // b.none
   82728:	8b000082 	add	x2, x4, x0
   8272c:	2a0003e3 	mov	w3, w0
   82730:	381ff041 	sturb	w1, [x2, #-1]
   82734:	386068a1 	ldrb	w1, [x5, x0]
   82738:	91000400 	add	x0, x0, #0x1
   8273c:	f103201f 	cmp	x0, #0xc8
   82740:	35ffff21 	cbnz	w1, 82724 <vClockOwner+0x634>
   82744:	910082ac 	add	x12, x21, #0x20
   82748:	b940eaa1 	ldr	w1, [x21, #232]
   8274c:	aa0c03e2 	mov	x2, x12
   82750:	aa1603e0 	mov	x0, x22
   82754:	1280001a 	mov	w26, #0xffffffff            	// #-1
   82758:	52800014 	mov	w20, #0x0                   	// #0
   8275c:	3823c99f 	strb	wzr, [x12, w3, sxtw]
   82760:	97fffc54 	bl	818b0 <build_ticker>
   82764:	2a0003e2 	mov	w2, w0
   82768:	528000c1 	mov	w1, #0x6                   	// #6
   8276c:	aa0c03e0 	mov	x0, x12
   82770:	1b017c41 	mul	w1, w2, w1
   82774:	290e0be1 	stp	w1, w2, [sp, #112]
   82778:	94000e7e 	bl	86170 <fb_marquee_set>
   8277c:	f94057e0 	ldr	x0, [sp, #168]
   82780:	94000978 	bl	84d60 <uart_puts>
   82784:	17fffed8 	b	822e4 <vClockOwner+0x1f4>
   82788:	f94077e0 	ldr	x0, [sp, #232]
   8278c:	1280001a 	mov	w26, #0xffffffff            	// #-1
   82790:	b901c27f 	str	wzr, [x19, #448]
   82794:	b901d67f 	str	wzr, [x19, #468]
   82798:	b901ea7f 	str	wzr, [x19, #488]
   8279c:	b901fe7f 	str	wzr, [x19, #508]
   827a0:	b902127f 	str	wzr, [x19, #528]
   827a4:	b902267f 	str	wzr, [x19, #548]
   827a8:	9400096e 	bl	84d60 <uart_puts>
   827ac:	17fffeab 	b	82258 <vClockOwner+0x168>
   827b0:	b94002a1 	ldr	w1, [x21]
   827b4:	1280001a 	mov	w26, #0xffffffff            	// #-1
   827b8:	34ffd501 	cbz	w1, 82258 <vClockOwner+0x168>
   827bc:	3945c3e1 	ldrb	w1, [sp, #368]
   827c0:	34001aa1 	cbz	w1, 82b14 <vClockOwner+0xa24>
   827c4:	910082a5 	add	x5, x21, #0x20
   827c8:	14000002 	b	827d0 <vClockOwner+0x6e0>
   827cc:	540019c0 	b.eq	82b04 <vClockOwner+0xa14>  // b.none
   827d0:	910583e2 	add	x2, sp, #0x160
   827d4:	8b0000a3 	add	x3, x5, x0
   827d8:	8b000042 	add	x2, x2, x0
   827dc:	2a0003e4 	mov	w4, w0
   827e0:	91000400 	add	x0, x0, #0x1
   827e4:	381ff061 	sturb	w1, [x3, #-1]
   827e8:	f103201f 	cmp	x0, #0xc8
   827ec:	39404041 	ldrb	w1, [x2, #16]
   827f0:	35fffee1 	cbnz	w1, 827cc <vClockOwner+0x6dc>
   827f4:	910082ac 	add	x12, x21, #0x20
   827f8:	b940eaa1 	ldr	w1, [x21, #232]
   827fc:	aa0c03e2 	mov	x2, x12
   82800:	aa1603e0 	mov	x0, x22
   82804:	1280001a 	mov	w26, #0xffffffff            	// #-1
   82808:	52800014 	mov	w20, #0x0                   	// #0
   8280c:	3824c99f 	strb	wzr, [x12, w4, sxtw]
   82810:	97fffc28 	bl	818b0 <build_ticker>
   82814:	2a0003e2 	mov	w2, w0
   82818:	528000c1 	mov	w1, #0x6                   	// #6
   8281c:	aa0c03e0 	mov	x0, x12
   82820:	1b017c41 	mul	w1, w2, w1
   82824:	290e0be1 	stp	w1, w2, [sp, #112]
   82828:	94000e52 	bl	86170 <fb_marquee_set>
   8282c:	17fffe8b 	b	82258 <vClockOwner+0x168>
   82830:	b940eaa2 	ldr	w2, [x21, #232]
   82834:	52911121 	mov	w1, #0x8889                	// #34953
   82838:	72b11101 	movk	w1, #0x8888, lsl #16
   8283c:	52800784 	mov	w4, #0x3c                  	// #60
   82840:	f9405fe0 	ldr	x0, [sp, #184]
   82844:	9ba17c43 	umull	x3, w2, w1
   82848:	d365fc63 	lsr	x3, x3, #37
   8284c:	9ba17c61 	umull	x1, w3, w1
   82850:	1b04887a 	msub	w26, w3, w4, w2
   82854:	d365fc21 	lsr	x1, x1, #37
   82858:	1b048c21 	msub	w1, w1, w4, w3
   8285c:	290d0be1 	stp	w1, w2, [sp, #104]
   82860:	94000940 	bl	84d60 <uart_puts>
   82864:	b9406fe2 	ldr	w2, [sp, #108]
   82868:	529678a0 	mov	w0, #0xb3c5                	// #46021
   8286c:	72b23440 	movk	w0, #0x91a2, lsl #16
   82870:	9ba07c40 	umull	x0, w2, w0
   82874:	d36bfc00 	lsr	x0, x0, #43
   82878:	97fffc9a 	bl	81ae0 <up_dec>
   8287c:	f94043e0 	ldr	x0, [sp, #128]
   82880:	94000938 	bl	84d60 <uart_puts>
   82884:	b9406be1 	ldr	w1, [sp, #104]
   82888:	7100243f 	cmp	w1, #0x9
   8288c:	54000849 	b.ls	82994 <vClockOwner+0x8a4>  // b.plast
   82890:	2a0103e0 	mov	w0, w1
   82894:	97fffc93 	bl	81ae0 <up_dec>
   82898:	f94043e0 	ldr	x0, [sp, #128]
   8289c:	94000931 	bl	84d60 <uart_puts>
   828a0:	7100275f 	cmp	w26, #0x9
   828a4:	54000729 	b.ls	82988 <vClockOwner+0x898>  // b.plast
   828a8:	2a1a03e0 	mov	w0, w26
   828ac:	97fffc8d 	bl	81ae0 <up_dec>
   828b0:	f94063e0 	ldr	x0, [sp, #192]
   828b4:	1280001a 	mov	w26, #0xffffffff            	// #-1
   828b8:	9400092a 	bl	84d60 <uart_puts>
   828bc:	b9401aa0 	ldr	w0, [x21, #24]
   828c0:	7100001f 	cmp	w0, #0x0
   828c4:	a94d87e0 	ldp	x0, x1, [sp, #216]
   828c8:	9a811000 	csel	x0, x0, x1, ne  // ne = any
   828cc:	94000925 	bl	84d60 <uart_puts>
   828d0:	f94067e0 	ldr	x0, [sp, #200]
   828d4:	94000923 	bl	84d60 <uart_puts>
   828d8:	b9401ea0 	ldr	w0, [x21, #28]
   828dc:	97fffc81 	bl	81ae0 <up_dec>
   828e0:	f9406be0 	ldr	x0, [sp, #208]
   828e4:	9400091f 	bl	84d60 <uart_puts>
   828e8:	9400283a 	bl	8c9d0 <xPortGetFreeHeapSize>
   828ec:	97fffc7d 	bl	81ae0 <up_dec>
   828f0:	f94047e0 	ldr	x0, [sp, #136]
   828f4:	9400091b 	bl	84d60 <uart_puts>
   828f8:	17fffe58 	b	82258 <vClockOwner+0x168>
   828fc:	b9416be0 	ldr	w0, [sp, #360]
   82900:	52800784 	mov	w4, #0x3c                  	// #60
   82904:	b94167e1 	ldr	w1, [sp, #356]
   82908:	5281c202 	mov	w2, #0xe10                 	// #3600
   8290c:	b9416fe3 	ldr	w3, [sp, #364]
   82910:	1280001a 	mov	w26, #0xffffffff            	// #-1
   82914:	1b047c00 	mul	w0, w0, w4
   82918:	1b020021 	madd	w1, w1, w2, w0
   8291c:	528a3002 	mov	w2, #0x5180                	// #20864
   82920:	72a00022 	movk	w2, #0x1, lsl #16
   82924:	5288a0e0 	mov	w0, #0x4507                	// #17671
   82928:	72b845c0 	movk	w0, #0xc22e, lsl #16
   8292c:	0b030021 	add	w1, w1, w3
   82930:	9ba07c20 	umull	x0, w1, w0
   82934:	d370fc00 	lsr	x0, x0, #48
   82938:	1b028400 	msub	w0, w0, w2, w1
   8293c:	b900eaa0 	str	w0, [x21, #232]
   82940:	94001dd0 	bl	8a080 <xTaskGetTickCount>
   82944:	aa0003fc 	mov	x28, x0
   82948:	f9407be0 	ldr	x0, [sp, #240]
   8294c:	94000905 	bl	84d60 <uart_puts>
   82950:	17fffe42 	b	82258 <vClockOwner+0x168>
   82954:	f9405be0 	ldr	x0, [sp, #176]
   82958:	94000902 	bl	84d60 <uart_puts>
   8295c:	b9400f42 	ldr	w2, [x26, #12]
   82960:	52800780 	mov	w0, #0x3c                  	// #60
   82964:	52800781 	mov	w1, #0x3c                  	// #60
   82968:	1ac00c40 	sdiv	w0, w2, w0
   8296c:	1b018800 	msub	w0, w0, w1, w2
   82970:	17ffff1d 	b	825e4 <vClockOwner+0x4f4>
   82974:	b94073e4 	ldr	w4, [sp, #112]
   82978:	2a0c03fa 	mov	w26, w12
   8297c:	52800034 	mov	w20, #0x1                   	// #1
   82980:	52800005 	mov	w5, #0x0                   	// #0
   82984:	17fffe78 	b	82364 <vClockOwner+0x274>
   82988:	f9405be0 	ldr	x0, [sp, #176]
   8298c:	940008f5 	bl	84d60 <uart_puts>
   82990:	17ffffc6 	b	828a8 <vClockOwner+0x7b8>
   82994:	f9405be0 	ldr	x0, [sp, #176]
   82998:	b9006be1 	str	w1, [sp, #104]
   8299c:	940008f1 	bl	84d60 <uart_puts>
   829a0:	b9406be1 	ldr	w1, [sp, #104]
   829a4:	17ffffbb 	b	82890 <vClockOwner+0x7a0>
   829a8:	52800281 	mov	w1, #0x14                  	// #20
   829ac:	9106c260 	add	x0, x19, #0x1b0
   829b0:	9b217c42 	smull	x2, w2, w1
   829b4:	8b020005 	add	x5, x0, x2
   829b8:	38626800 	ldrb	w0, [x0, x2]
   829bc:	34000a80 	cbz	w0, 82b0c <vClockOwner+0xa1c>
   829c0:	d2800021 	mov	x1, #0x1                   	// #1
   829c4:	14000002 	b	829cc <vClockOwner+0x8dc>
   829c8:	540009a0 	b.eq	82afc <vClockOwner+0xa0c>  // b.none
   829cc:	51018404 	sub	w4, w0, #0x61
   829d0:	51008002 	sub	w2, w0, #0x20
   829d4:	12001c84 	and	w4, w4, #0xff
   829d8:	12001c42 	and	w2, w2, #0xff
   829dc:	7100689f 	cmp	w4, #0x1a
   829e0:	8b010304 	add	x4, x24, x1
   829e4:	1a803040 	csel	w0, w2, w0, cc  // cc = lo, ul, last
   829e8:	2a0103e2 	mov	w2, w1
   829ec:	381ff080 	sturb	w0, [x4, #-1]
   829f0:	386168a0 	ldrb	w0, [x5, x1]
   829f4:	91000421 	add	x1, x1, #0x1
   829f8:	f100743f 	cmp	x1, #0x1d
   829fc:	35fffe60 	cbnz	w0, 829c8 <vClockOwner+0x8d8>
   82a00:	93407c45 	sxtw	x5, w2
   82a04:	11000440 	add	w0, w2, #0x1
   82a08:	f94083e2 	ldr	x2, [sp, #256]
   82a0c:	aa2503e5 	mvn	x5, x5
   82a10:	93407c00 	sxtw	x0, w0
   82a14:	52800401 	mov	w1, #0x20                  	// #32
   82a18:	8b050045 	add	x5, x2, x5
   82a1c:	d503201f 	nop
   82a20:	8b000302 	add	x2, x24, x0
   82a24:	2a0003e4 	mov	w4, w0
   82a28:	91000400 	add	x0, x0, #0x1
   82a2c:	381ff041 	sturb	w1, [x2, #-1]
   82a30:	386068a1 	ldrb	w1, [x5, x0]
   82a34:	35ffff61 	cbnz	w1, 82a20 <vClockOwner+0x930>
   82a38:	52911120 	mov	w0, #0x8889                	// #34953
   82a3c:	72b11100 	movk	w0, #0x8888, lsl #16
   82a40:	52800782 	mov	w2, #0x3c                  	// #60
   82a44:	528ccce1 	mov	w1, #0x6667                	// #26215
   82a48:	72acccc1 	movk	w1, #0x6666, lsl #16
   82a4c:	9b207c60 	smull	x0, w3, w0
   82a50:	52800145 	mov	w5, #0xa                   	// #10
   82a54:	11000486 	add	w6, w4, #0x1
   82a58:	11000887 	add	w7, w4, #0x2
   82a5c:	11000c88 	add	w8, w4, #0x3
   82a60:	d360fc00 	lsr	x0, x0, #32
   82a64:	0b000060 	add	w0, w3, w0
   82a68:	13057c00 	asr	w0, w0, #5
   82a6c:	4b837c00 	sub	w0, w0, w3, asr #31
   82a70:	1b028c03 	msub	w3, w0, w2, w3
   82a74:	9b217c02 	smull	x2, w0, w1
   82a78:	9b217c61 	smull	x1, w3, w1
   82a7c:	9362fc42 	asr	x2, x2, #34
   82a80:	4b807c42 	sub	w2, w2, w0, asr #31
   82a84:	9362fc21 	asr	x1, x1, #34
   82a88:	4b837c21 	sub	w1, w1, w3, asr #31
   82a8c:	1b058040 	msub	w0, w2, w5, w0
   82a90:	1100c042 	add	w2, w2, #0x30
   82a94:	3824cb02 	strb	w2, [x24, w4, sxtw]
   82a98:	1100c000 	add	w0, w0, #0x30
   82a9c:	11001082 	add	w2, w4, #0x4
   82aa0:	3826cb00 	strb	w0, [x24, w6, sxtw]
   82aa4:	11001484 	add	w4, w4, #0x5
   82aa8:	1b058c20 	msub	w0, w1, w5, w3
   82aac:	52800743 	mov	w3, #0x3a                  	// #58
   82ab0:	3827cb03 	strb	w3, [x24, w7, sxtw]
   82ab4:	1100c021 	add	w1, w1, #0x30
   82ab8:	3828cb01 	strb	w1, [x24, w8, sxtw]
   82abc:	1100c000 	add	w0, w0, #0x30
   82ac0:	3822cb00 	strb	w0, [x24, w2, sxtw]
   82ac4:	aa1803e2 	mov	x2, x24
   82ac8:	3824cb1f 	strb	wzr, [x24, w4, sxtw]
   82acc:	17ffff04 	b	826dc <vClockOwner+0x5ec>
   82ad0:	528018e3 	mov	w3, #0xc7                  	// #199
   82ad4:	17ffff1c 	b	82744 <vClockOwner+0x654>
   82ad8:	910082a3 	add	x3, x21, #0x20
   82adc:	528018e4 	mov	w4, #0xc7                  	// #199
   82ae0:	3824c87f 	strb	wzr, [x3, w4, sxtw]
   82ae4:	394082a1 	ldrb	w1, [x21, #32]
   82ae8:	35ffcf01 	cbnz	w1, 824c8 <vClockOwner+0x3d8>
   82aec:	52800004 	mov	w4, #0x0                   	// #0
   82af0:	17fffe81 	b	824f4 <vClockOwner+0x404>
   82af4:	528018e4 	mov	w4, #0xc7                  	// #199
   82af8:	17fffe7f 	b	824f4 <vClockOwner+0x404>
   82afc:	52800382 	mov	w2, #0x1c                  	// #28
   82b00:	17ffffc0 	b	82a00 <vClockOwner+0x910>
   82b04:	528018e4 	mov	w4, #0xc7                  	// #199
   82b08:	17ffff3b 	b	827f4 <vClockOwner+0x704>
   82b0c:	52800002 	mov	w2, #0x0                   	// #0
   82b10:	17ffffbc 	b	82a00 <vClockOwner+0x910>
   82b14:	52800004 	mov	w4, #0x0                   	// #0
   82b18:	17ffff37 	b	827f4 <vClockOwner+0x704>
   82b1c:	d503201f 	nop

0000000000082b20 <vHdmi>:
   82b20:	a9b37bfd 	stp	x29, x30, [sp, #-208]!
   82b24:	52806001 	mov	w1, #0x300                 	// #768
   82b28:	52808000 	mov	w0, #0x400                 	// #1024
   82b2c:	910003fd 	mov	x29, sp
   82b30:	94000afc 	bl	85720 <fb_init>
   82b34:	350000e0 	cbnz	w0, 82b50 <vHdmi+0x30>
   82b38:	90000060 	adrp	x0, 8e000 <sc_scope_draw+0x570>
   82b3c:	9100e000 	add	x0, x0, #0x38
   82b40:	94000888 	bl	84d60 <uart_puts>
   82b44:	a8cd7bfd 	ldp	x29, x30, [sp], #208
   82b48:	d2800000 	mov	x0, #0x0                   	// #0
   82b4c:	14001cdd 	b	89ec0 <vTaskDelete>
   82b50:	90000060 	adrp	x0, 8e000 <sc_scope_draw+0x570>
   82b54:	91014000 	add	x0, x0, #0x50
   82b58:	a90153f3 	stp	x19, x20, [sp, #16]
   82b5c:	52800393 	mov	w19, #0x1c                  	// #28
   82b60:	a9025bf5 	stp	x21, x22, [sp, #32]
   82b64:	a90363f7 	stp	x23, x24, [sp, #48]
   82b68:	a9046bf9 	stp	x25, x26, [sp, #64]
   82b6c:	a90573fb 	stp	x27, x28, [sp, #80]
   82b70:	9400087c 	bl	84d60 <uart_puts>
   82b74:	94000adb 	bl	856e0 <fb_width>
   82b78:	97fffbda 	bl	81ae0 <up_dec>
   82b7c:	90000060 	adrp	x0, 8e000 <sc_scope_draw+0x570>
   82b80:	91016000 	add	x0, x0, #0x58
   82b84:	94000877 	bl	84d60 <uart_puts>
   82b88:	94000ada 	bl	856f0 <fb_height>
   82b8c:	97fffbd5 	bl	81ae0 <up_dec>
   82b90:	90000060 	adrp	x0, 8e000 <sc_scope_draw+0x570>
   82b94:	91018000 	add	x0, x0, #0x60
   82b98:	94000872 	bl	84d60 <uart_puts>
   82b9c:	94000ad9 	bl	85700 <fb_pitch>
   82ba0:	97fffbd0 	bl	81ae0 <up_dec>
   82ba4:	90000060 	adrp	x0, 8e000 <sc_scope_draw+0x570>
   82ba8:	9101a000 	add	x0, x0, #0x68
   82bac:	9400086d 	bl	84d60 <uart_puts>
   82bb0:	94000ad8 	bl	85710 <fb_base>
   82bb4:	aa0003f4 	mov	x20, x0
   82bb8:	90000060 	adrp	x0, 8e000 <sc_scope_draw+0x570>
   82bbc:	9101c000 	add	x0, x0, #0x70
   82bc0:	94000868 	bl	84d60 <uart_puts>
   82bc4:	d503201f 	nop
   82bc8:	9ad32681 	lsr	x1, x20, x19
   82bcc:	12000c20 	and	w0, w1, #0xf
   82bd0:	2a0003e1 	mov	w1, w0
   82bd4:	7100241f 	cmp	w0, #0x9
   82bd8:	1100dc21 	add	w1, w1, #0x37
   82bdc:	1100c000 	add	w0, w0, #0x30
   82be0:	1a808020 	csel	w0, w1, w0, hi  // hi = pmore
   82be4:	51001273 	sub	w19, w19, #0x4
   82be8:	94000852 	bl	84d30 <uart_putc>
   82bec:	3100127f 	cmn	w19, #0x4
   82bf0:	54fffec1 	b.ne	82bc8 <vHdmi+0xa8>  // b.any
   82bf4:	90000060 	adrp	x0, 8e000 <sc_scope_draw+0x570>
   82bf8:	9100a000 	add	x0, x0, #0x28
   82bfc:	94000859 	bl	84d60 <uart_puts>
   82c00:	90000078 	adrp	x24, 8e000 <sc_scope_draw+0x570>
   82c04:	913f2318 	add	x24, x24, #0xfc8
   82c08:	52800000 	mov	w0, #0x0                   	// #0
   82c0c:	94000b39 	bl	858f0 <fb_clear>
   82c10:	f90047ff 	str	xzr, [sp, #136]
   82c14:	91008300 	add	x0, x24, #0x20
   82c18:	390243ff 	strb	wzr, [sp, #144]
   82c1c:	94000d55 	bl	86170 <fb_marquee_set>
   82c20:	529678ba 	mov	w26, #0xb3c5                	// #46021
   82c24:	72b2345a 	movk	w26, #0x91a2, lsl #16
   82c28:	b0000068 	adrp	x8, 8f000 <g_msg+0x18>
   82c2c:	9106c11c 	add	x28, x8, #0x1b0
   82c30:	90000060 	adrp	x0, 8e000 <sc_scope_draw+0x570>
   82c34:	9101e000 	add	x0, x0, #0x78
   82c38:	52911135 	mov	w21, #0x8889                	// #34953
   82c3c:	72b11115 	movk	w21, #0x8888, lsl #16
   82c40:	529999b4 	mov	w20, #0xcccd                	// #52429
   82c44:	72b99994 	movk	w20, #0xcccc, lsl #16
   82c48:	52955573 	mov	w19, #0xaaab                	// #43691
   82c4c:	72b55553 	movk	w19, #0xaaaa, lsl #16
   82c50:	12800037 	mov	w23, #0xfffffffe            	// #-2
   82c54:	f9003be0 	str	x0, [sp, #112]
   82c58:	90000060 	adrp	x0, 8e000 <sc_scope_draw+0x570>
   82c5c:	910f2000 	add	x0, x0, #0x3c8
   82c60:	f9003fe0 	str	x0, [sp, #120]
   82c64:	d503201f 	nop
   82c68:	b9423b84 	ldr	w4, [x28, #568]
   82c6c:	34000124 	cbz	w4, 82c90 <vHdmi+0x170>
   82c70:	b9023b9f 	str	wzr, [x28, #568]
   82c74:	7100089f 	cmp	w4, #0x2
   82c78:	54000ce0 	b.eq	82e14 <vHdmi+0x2f4>  // b.none
   82c7c:	7100049f 	cmp	w4, #0x1
   82c80:	54001b60 	b.eq	82fec <vHdmi+0x4cc>  // b.none
   82c84:	71000c9f 	cmp	w4, #0x3
   82c88:	54000fc0 	b.eq	82e80 <vHdmi+0x360>  // b.none
   82c8c:	d503201f 	nop
   82c90:	b9423f80 	ldr	w0, [x28, #572]
   82c94:	7100041f 	cmp	w0, #0x1
   82c98:	54000b20 	b.eq	82dfc <vHdmi+0x2dc>  // b.none
   82c9c:	b9447b96 	ldr	w22, [x28, #1144]
   82ca0:	340000d6 	cbz	w22, 82cb8 <vHdmi+0x198>
   82ca4:	b9047b9f 	str	wzr, [x28, #1144]
   82ca8:	710006df 	cmp	w22, #0x1
   82cac:	54000d60 	b.eq	82e58 <vHdmi+0x338>  // b.none
   82cb0:	71000adf 	cmp	w22, #0x2
   82cb4:	54002520 	b.eq	83158 <vHdmi+0x638>  // b.none
   82cb8:	b9447f80 	ldr	w0, [x28, #1148]
   82cbc:	35000a60 	cbnz	w0, 82e08 <vHdmi+0x2e8>
   82cc0:	b9459796 	ldr	w22, [x28, #1428]
   82cc4:	340000d6 	cbz	w22, 82cdc <vHdmi+0x1bc>
   82cc8:	b905979f 	str	wzr, [x28, #1428]
   82ccc:	710006df 	cmp	w22, #0x1
   82cd0:	54000ce0 	b.eq	82e6c <vHdmi+0x34c>  // b.none
   82cd4:	71000adf 	cmp	w22, #0x2
   82cd8:	540025c0 	b.eq	83190 <vHdmi+0x670>  // b.none
   82cdc:	b9448381 	ldr	w1, [x28, #1152]
   82ce0:	35000941 	cbnz	w1, 82e08 <vHdmi+0x2e8>
   82ce4:	b940eb06 	ldr	w6, [x24, #232]
   82ce8:	52800743 	mov	w3, #0x3a                  	// #58
   82cec:	39026be3 	strb	w3, [sp, #154]
   82cf0:	5280078c 	mov	w12, #0x3c                  	// #60
   82cf4:	390277e3 	strb	w3, [sp, #157]
   82cf8:	5280014b 	mov	w11, #0xa                   	// #10
   82cfc:	d2800020 	mov	x0, #0x1                   	// #1
   82d00:	2a0003e5 	mov	w5, w0
   82d04:	9bb57cc2 	umull	x2, w6, w21
   82d08:	390283ff 	strb	wzr, [sp, #160]
   82d0c:	9bba7cc7 	umull	x7, w6, w26
   82d10:	d365fc42 	lsr	x2, x2, #37
   82d14:	d36bfce7 	lsr	x7, x7, #43
   82d18:	9bb57c43 	umull	x3, w2, w21
   82d1c:	1b0c984a 	msub	w10, w2, w12, w6
   82d20:	9bb47ce4 	umull	x4, w7, w20
   82d24:	d365fc69 	lsr	x9, x3, #37
   82d28:	d363fc84 	lsr	x4, x4, #35
   82d2c:	9bb47d46 	umull	x6, w10, w20
   82d30:	1b0c8929 	msub	w9, w9, w12, w2
   82d34:	1100c082 	add	w2, w4, #0x30
   82d38:	12001c42 	and	w2, w2, #0xff
   82d3c:	390263e2 	strb	w2, [sp, #152]
   82d40:	1b0b9c87 	msub	w7, w4, w11, w7
   82d44:	d363fcc6 	lsr	x6, x6, #35
   82d48:	1100c0c3 	add	w3, w6, #0x30
   82d4c:	39027be3 	strb	w3, [sp, #158]
   82d50:	9bb47d24 	umull	x4, w9, w20
   82d54:	1100c0e7 	add	w7, w7, #0x30
   82d58:	1b0ba8c6 	msub	w6, w6, w11, w10
   82d5c:	390267e7 	strb	w7, [sp, #153]
   82d60:	d363fc83 	lsr	x3, x4, #35
   82d64:	1100c0c6 	add	w6, w6, #0x30
   82d68:	1100c064 	add	w4, w3, #0x30
   82d6c:	39026fe4 	strb	w4, [sp, #155]
   82d70:	39027fe6 	strb	w6, [sp, #159]
   82d74:	1b0ba463 	msub	w3, w3, w11, w9
   82d78:	1100c063 	add	w3, w3, #0x30
   82d7c:	390273e3 	strb	w3, [sp, #156]
   82d80:	14000002 	b	82d88 <vHdmi+0x268>
   82d84:	385ff082 	ldurb	w2, [x4, #-1]
   82d88:	910223e3 	add	x3, sp, #0x88
   82d8c:	910263e4 	add	x4, sp, #0x98
   82d90:	8b000063 	add	x3, x3, x0
   82d94:	91000400 	add	x0, x0, #0x1
   82d98:	8b000084 	add	x4, x4, x0
   82d9c:	385ff063 	ldurb	w3, [x3, #-1]
   82da0:	6b02007f 	cmp	w3, w2
   82da4:	1a850021 	csel	w1, w1, w5, eq  // eq = none
   82da8:	f100281f 	cmp	x0, #0xa
   82dac:	54fffec1 	b.ne	82d84 <vHdmi+0x264>  // b.any
   82db0:	35001b61 	cbnz	w1, 8311c <vHdmi+0x5fc>
   82db4:	910263e0 	add	x0, sp, #0x98
   82db8:	52800002 	mov	w2, #0x0                   	// #0
   82dbc:	52a01fe1 	mov	w1, #0xff0000              	// #16711680
   82dc0:	94000bb0 	bl	85c80 <fb_clock_big>
   82dc4:	52954003 	mov	w3, #0xaa00                	// #43520
   82dc8:	72a01fe3 	movk	w3, #0xff, lsl #16
   82dcc:	52800004 	mov	w4, #0x0                   	// #0
   82dd0:	52800082 	mov	w2, #0x4                   	// #4
   82dd4:	528000e1 	mov	w1, #0x7                   	// #7
   82dd8:	52804b00 	mov	w0, #0x258                 	// #600
   82ddc:	94000d05 	bl	861f0 <fb_marquee_draw>
   82de0:	3946a796 	ldrb	w22, [x28, #425]
   82de4:	12001ed6 	and	w22, w22, #0xff
   82de8:	6b1702df 	cmp	w22, w23
   82dec:	54000ba1 	b.ne	82f60 <vHdmi+0x440>  // b.any
   82df0:	d2800500 	mov	x0, #0x28                  	// #40
   82df4:	94001db3 	bl	8a4c0 <vTaskDelay>
   82df8:	17ffff9c 	b	82c68 <vHdmi+0x148>
   82dfc:	d2800640 	mov	x0, #0x32                  	// #50
   82e00:	94001db0 	bl	8a4c0 <vTaskDelay>
   82e04:	17ffff99 	b	82c68 <vHdmi+0x148>
   82e08:	d2800280 	mov	x0, #0x14                  	// #20
   82e0c:	94001dad 	bl	8a4c0 <vTaskDelay>
   82e10:	17ffff96 	b	82c68 <vHdmi+0x148>
   82e14:	b9423f80 	ldr	w0, [x28, #572]
   82e18:	7100041f 	cmp	w0, #0x1
   82e1c:	54001cc0 	b.eq	831b4 <vHdmi+0x694>  // b.none
   82e20:	b9423f80 	ldr	w0, [x28, #572]
   82e24:	7100081f 	cmp	w0, #0x2
   82e28:	54000060 	b.eq	82e34 <vHdmi+0x314>  // b.none
   82e2c:	b9023f9f 	str	wzr, [x28, #572]
   82e30:	17ffff98 	b	82c90 <vHdmi+0x170>
   82e34:	94000a2b 	bl	856e0 <fb_width>
   82e38:	2a0003e2 	mov	w2, w0
   82e3c:	52800004 	mov	w4, #0x0                   	// #0
   82e40:	52801cc3 	mov	w3, #0xe6                  	// #230
   82e44:	52802d01 	mov	w1, #0x168                 	// #360
   82e48:	52800000 	mov	w0, #0x0                   	// #0
   82e4c:	94000aa1 	bl	858d0 <fb_fill>
   82e50:	b9023f9f 	str	wzr, [x28, #572]
   82e54:	17ffff8f 	b	82c90 <vHdmi+0x170>
   82e58:	b9447f80 	ldr	w0, [x28, #1148]
   82e5c:	34001900 	cbz	w0, 8317c <vHdmi+0x65c>
   82e60:	91122380 	add	x0, x28, #0x488
   82e64:	9400284f 	bl	8cfa0 <la_logic_traces>
   82e68:	17ffff94 	b	82cb8 <vHdmi+0x198>
   82e6c:	b9448380 	ldr	w0, [x28, #1152]
   82e70:	34001b40 	cbz	w0, 831d8 <vHdmi+0x6b8>
   82e74:	91166380 	add	x0, x28, #0x598
   82e78:	94002a56 	bl	8d7d0 <sc_scope_traces>
   82e7c:	17ffff98 	b	82cdc <vHdmi+0x1bc>
   82e80:	b9423f80 	ldr	w0, [x28, #572]
   82e84:	7100041f 	cmp	w0, #0x1
   82e88:	54001b20 	b.eq	831ec <vHdmi+0x6cc>  // b.none
   82e8c:	91004396 	add	x22, x28, #0x10
   82e90:	52800024 	mov	w4, #0x1                   	// #1
   82e94:	aa1603e2 	mov	x2, x22
   82e98:	2a0403e3 	mov	w3, w4
   82e9c:	91090381 	add	x1, x28, #0x240
   82ea0:	910f6380 	add	x0, x28, #0x3d8
   82ea4:	52800027 	mov	w7, #0x1                   	// #1
   82ea8:	12800006 	mov	w6, #0xffffffff            	// #-1
   82eac:	52800145 	mov	w5, #0xa                   	// #10
   82eb0:	94001640 	bl	887b0 <qrcodegen_encodeText>
   82eb4:	72001c1f 	tst	w0, #0xff
   82eb8:	540004e0 	b.eq	82f54 <vHdmi+0x434>  // b.none
   82ebc:	aa1603e0 	mov	x0, x22
   82ec0:	940014e0 	bl	88240 <qrcodegen_getSize>
   82ec4:	34000480 	cbz	w0, 82f54 <vHdmi+0x434>
   82ec8:	11002016 	add	w22, w0, #0x8
   82ecc:	52801cd9 	mov	w25, #0xe6                  	// #230
   82ed0:	b9006fe0 	str	w0, [sp, #108]
   82ed4:	94000a03 	bl	856e0 <fb_width>
   82ed8:	52800047 	mov	w7, #0x2                   	// #2
   82edc:	1ad60f3b 	sdiv	w27, w25, w22
   82ee0:	6b07037f 	cmp	w27, w7
   82ee4:	1a87a37b 	csel	w27, w27, w7, ge  // ge = tcont
   82ee8:	1b1b7ec5 	mul	w5, w22, w27
   82eec:	290c83e5 	stp	w5, w0, [sp, #100]
   82ef0:	4b050321 	sub	w1, w25, w5
   82ef4:	0b417c21 	add	w1, w1, w1, lsr #31
   82ef8:	13017c36 	asr	w22, w1, #1
   82efc:	940009f9 	bl	856e0 <fb_width>
   82f00:	2a0003e2 	mov	w2, w0
   82f04:	2a1903e3 	mov	w3, w25
   82f08:	52800004 	mov	w4, #0x0                   	// #0
   82f0c:	52802d01 	mov	w1, #0x168                 	// #360
   82f10:	52800000 	mov	w0, #0x0                   	// #0
   82f14:	94000a6f 	bl	858d0 <fb_fill>
   82f18:	1105a2d6 	add	w22, w22, #0x168
   82f1c:	294ca3e5 	ldp	w5, w8, [sp, #100]
   82f20:	7105a2df 	cmp	w22, #0x168
   82f24:	b9406fe6 	ldr	w6, [sp, #108]
   82f28:	2a1b03e2 	mov	w2, w27
   82f2c:	4b050101 	sub	w1, w8, w5
   82f30:	2a0603e3 	mov	w3, w6
   82f34:	0b417c20 	add	w0, w1, w1, lsr #31
   82f38:	52802d01 	mov	w1, #0x168                 	// #360
   82f3c:	1a81a2c1 	csel	w1, w22, w1, ge  // ge = tcont
   82f40:	13017c00 	asr	w0, w0, #1
   82f44:	97fffbcf 	bl	81e80 <qr_blit>
   82f48:	52800047 	mov	w7, #0x2                   	// #2
   82f4c:	b9023f87 	str	w7, [x28, #572]
   82f50:	17ffff50 	b	82c90 <vHdmi+0x170>
   82f54:	f9403be0 	ldr	x0, [sp, #112]
   82f58:	94000782 	bl	84d60 <uart_puts>
   82f5c:	17ffff4d 	b	82c90 <vHdmi+0x170>
   82f60:	940009e0 	bl	856e0 <fb_width>
   82f64:	510a201b 	sub	w27, w0, #0x288
   82f68:	f9403fe0 	ldr	x0, [sp, #120]
   82f6c:	0b5b7f7b 	add	w27, w27, w27, lsr #31
   82f70:	d2800019 	mov	x25, #0x0                   	// #0
   82f74:	52a01fe4 	mov	w4, #0xff0000              	// #16711680
   82f78:	13017f7b 	asr	w27, w27, #1
   82f7c:	91072017 	add	x23, x0, #0x1c8
   82f80:	14000002 	b	82f88 <vHdmi+0x468>
   82f84:	b8797ae4 	ldr	w4, [x23, x25, lsl #2]
   82f88:	d3483c85 	ubfx	x5, x4, #8, #8
   82f8c:	d3505c86 	ubfx	x6, x4, #16, #8
   82f90:	12001c87 	and	w7, w4, #0xff
   82f94:	1ad92ac9 	asr	w9, w22, w25
   82f98:	2a1b03e0 	mov	w0, w27
   82f9c:	91000739 	add	x25, x25, #0x1
   82fa0:	9bb37ca5 	umull	x5, w5, w19
   82fa4:	52800b03 	mov	w3, #0x58                  	// #88
   82fa8:	9bb37cc6 	umull	x6, w6, w19
   82fac:	52800782 	mov	w2, #0x3c                  	// #60
   82fb0:	9bb37ce7 	umull	x7, w7, w19
   82fb4:	52802081 	mov	w1, #0x104                 	// #260
   82fb8:	d362fca5 	lsr	x5, x5, #34
   82fbc:	370000c9 	tbnz	w9, #0, 82fd4 <vHdmi+0x4b4>
   82fc0:	d362fcc6 	lsr	x6, x6, #34
   82fc4:	53185ca5 	lsl	w5, w5, #8
   82fc8:	d362fce7 	lsr	x7, x7, #34
   82fcc:	2a0640a5 	orr	w5, w5, w6, lsl #16
   82fd0:	2a0700a4 	orr	w4, w5, w7
   82fd4:	94000a3f 	bl	858d0 <fb_fill>
   82fd8:	1101537b 	add	w27, w27, #0x54
   82fdc:	f100233f 	cmp	x25, #0x8
   82fe0:	54fffd21 	b.ne	82f84 <vHdmi+0x464>  // b.any
   82fe4:	2a1603f7 	mov	w23, w22
   82fe8:	17ffff82 	b	82df0 <vHdmi+0x2d0>
   82fec:	91004396 	add	x22, x28, #0x10
   82ff0:	910f6399 	add	x25, x28, #0x3d8
   82ff4:	aa1603e2 	mov	x2, x22
   82ff8:	aa1903e0 	mov	x0, x25
   82ffc:	2a0403e7 	mov	w7, w4
   83000:	2a0403e3 	mov	w3, w4
   83004:	91090381 	add	x1, x28, #0x240
   83008:	12800006 	mov	w6, #0xffffffff            	// #-1
   8300c:	52800145 	mov	w5, #0xa                   	// #10
   83010:	940015e8 	bl	887b0 <qrcodegen_encodeText>
   83014:	72001c1f 	tst	w0, #0xff
   83018:	54fff9e0 	b.eq	82f54 <vHdmi+0x434>  // b.none
   8301c:	aa1603e0 	mov	x0, x22
   83020:	94001488 	bl	88240 <qrcodegen_getSize>
   83024:	b90067e0 	str	w0, [sp, #100]
   83028:	34fff960 	cbz	w0, 82f54 <vHdmi+0x434>
   8302c:	940009ad 	bl	856e0 <fb_width>
   83030:	2a0003f6 	mov	w22, w0
   83034:	940009af 	bl	856f0 <fb_height>
   83038:	6b0002df 	cmp	w22, w0
   8303c:	b94067e3 	ldr	w3, [sp, #100]
   83040:	2a0003e1 	mov	w1, w0
   83044:	1a81d2c2 	csel	w2, w22, w1, le
   83048:	52800044 	mov	w4, #0x2                   	// #2
   8304c:	1100207b 	add	w27, w3, #0x8
   83050:	51018042 	sub	w2, w2, #0x60
   83054:	52800000 	mov	w0, #0x0                   	// #0
   83058:	b9006fe3 	str	w3, [sp, #108]
   8305c:	1adb0c42 	sdiv	w2, w2, w27
   83060:	6b04005f 	cmp	w2, w4
   83064:	1a84a042 	csel	w2, w2, w4, ge  // ge = tcont
   83068:	290c8bf6 	stp	w22, w2, [sp, #100]
   8306c:	1b027f7b 	mul	w27, w27, w2
   83070:	4b1b0021 	sub	w1, w1, w27
   83074:	0b417c21 	add	w1, w1, w1, lsr #31
   83078:	13017c21 	asr	w1, w1, #1
   8307c:	71006021 	subs	w1, w1, #0x18
   83080:	1a9f5036 	csel	w22, w1, wzr, pl  // pl = nfrst
   83084:	94000a1b 	bl	858f0 <fb_clear>
   83088:	294c8be0 	ldp	w0, w2, [sp, #100]
   8308c:	2a1603e1 	mov	w1, w22
   83090:	b9406fe3 	ldr	w3, [sp, #108]
   83094:	4b1b0000 	sub	w0, w0, w27
   83098:	0b407c00 	add	w0, w0, w0, lsr #31
   8309c:	13017c00 	asr	w0, w0, #1
   830a0:	97fffb78 	bl	81e80 <qr_blit>
   830a4:	394f6381 	ldrb	w1, [x28, #984]
   830a8:	34000b61 	cbz	w1, 83214 <vHdmi+0x6f4>
   830ac:	d2800020 	mov	x0, #0x1                   	// #1
   830b0:	14000002 	b	830b8 <vHdmi+0x598>
   830b4:	54000ac0 	b.eq	8320c <vHdmi+0x6ec>  // b.none
   830b8:	910263e2 	add	x2, sp, #0x98
   830bc:	2a0003e3 	mov	w3, w0
   830c0:	8b000042 	add	x2, x2, x0
   830c4:	381ff041 	sturb	w1, [x2, #-1]
   830c8:	38606b21 	ldrb	w1, [x25, x0]
   830cc:	91000400 	add	x0, x0, #0x1
   830d0:	f100c41f 	cmp	x0, #0x31
   830d4:	35ffff01 	cbnz	w1, 830b4 <vHdmi+0x594>
   830d8:	910263e0 	add	x0, sp, #0x98
   830dc:	52800041 	mov	w1, #0x2                   	// #2
   830e0:	3823c81f 	strb	wzr, [x0, w3, sxtw]
   830e4:	94000a77 	bl	85ac0 <fb_text_w>
   830e8:	b94067e2 	ldr	w2, [sp, #100]
   830ec:	0b160361 	add	w1, w27, w22
   830f0:	11004821 	add	w1, w1, #0x12
   830f4:	529b9fe4 	mov	w4, #0xdcff                	// #56575
   830f8:	4b000059 	sub	w25, w2, w0
   830fc:	52800043 	mov	w3, #0x2                   	// #2
   83100:	910263e2 	add	x2, sp, #0x98
   83104:	0b597f39 	add	w25, w25, w25, lsr #31
   83108:	13017f20 	asr	w0, w25, #1
   8310c:	94000a49 	bl	85a30 <fb_text>
   83110:	52800020 	mov	w0, #0x1                   	// #1
   83114:	b9023f80 	str	w0, [x28, #572]
   83118:	17fffede 	b	82c90 <vHdmi+0x170>
   8311c:	910263e0 	add	x0, sp, #0x98
   83120:	52800002 	mov	w2, #0x0                   	// #0
   83124:	52a01fe1 	mov	w1, #0xff0000              	// #16711680
   83128:	94000ad6 	bl	85c80 <fb_clock_big>
   8312c:	d2800020 	mov	x0, #0x1                   	// #1
   83130:	910263e1 	add	x1, sp, #0x98
   83134:	8b000022 	add	x2, x1, x0
   83138:	910223e1 	add	x1, sp, #0x88
   8313c:	8b000021 	add	x1, x1, x0
   83140:	91000400 	add	x0, x0, #0x1
   83144:	f100281f 	cmp	x0, #0xa
   83148:	385ff042 	ldurb	w2, [x2, #-1]
   8314c:	381ff022 	sturb	w2, [x1, #-1]
   83150:	54ffff01 	b.ne	83130 <vHdmi+0x610>  // b.any
   83154:	17ffff18 	b	82db4 <vHdmi+0x294>
   83158:	52800000 	mov	w0, #0x0                   	// #0
   8315c:	b9047f9f 	str	wzr, [x28, #1148]
   83160:	940009e4 	bl	858f0 <fb_clear>
   83164:	12800037 	mov	w23, #0xfffffffe            	// #-2
   83168:	94000ac2 	bl	85c70 <fb_clock_reset>
   8316c:	390223ff 	strb	wzr, [sp, #136]
   83170:	91008300 	add	x0, x24, #0x20
   83174:	94000bff 	bl	86170 <fb_marquee_set>
   83178:	17fffed0 	b	82cb8 <vHdmi+0x198>
   8317c:	91122380 	add	x0, x28, #0x488
   83180:	b904839f 	str	wzr, [x28, #1152]
   83184:	9400267f 	bl	8cb80 <la_logic_chrome>
   83188:	b9047f96 	str	w22, [x28, #1148]
   8318c:	17ffff35 	b	82e60 <vHdmi+0x340>
   83190:	52800000 	mov	w0, #0x0                   	// #0
   83194:	b904839f 	str	wzr, [x28, #1152]
   83198:	940009d6 	bl	858f0 <fb_clear>
   8319c:	12800037 	mov	w23, #0xfffffffe            	// #-2
   831a0:	94000ab4 	bl	85c70 <fb_clock_reset>
   831a4:	390223ff 	strb	wzr, [sp, #136]
   831a8:	91008300 	add	x0, x24, #0x20
   831ac:	94000bf1 	bl	86170 <fb_marquee_set>
   831b0:	17fffecb 	b	82cdc <vHdmi+0x1bc>
   831b4:	52800000 	mov	w0, #0x0                   	// #0
   831b8:	940009ce 	bl	858f0 <fb_clear>
   831bc:	12800037 	mov	w23, #0xfffffffe            	// #-2
   831c0:	94000aac 	bl	85c70 <fb_clock_reset>
   831c4:	390223ff 	strb	wzr, [sp, #136]
   831c8:	91008300 	add	x0, x24, #0x20
   831cc:	94000be9 	bl	86170 <fb_marquee_set>
   831d0:	b9023f9f 	str	wzr, [x28, #572]
   831d4:	17fffeaf 	b	82c90 <vHdmi+0x170>
   831d8:	91166380 	add	x0, x28, #0x598
   831dc:	b9047f9f 	str	wzr, [x28, #1148]
   831e0:	94002858 	bl	8d340 <sc_scope_chrome>
   831e4:	b9048396 	str	w22, [x28, #1152]
   831e8:	17ffff23 	b	82e74 <vHdmi+0x354>
   831ec:	52800000 	mov	w0, #0x0                   	// #0
   831f0:	940009c0 	bl	858f0 <fb_clear>
   831f4:	12800037 	mov	w23, #0xfffffffe            	// #-2
   831f8:	94000a9e 	bl	85c70 <fb_clock_reset>
   831fc:	390223ff 	strb	wzr, [sp, #136]
   83200:	91008300 	add	x0, x24, #0x20
   83204:	94000bdb 	bl	86170 <fb_marquee_set>
   83208:	17ffff21 	b	82e8c <vHdmi+0x36c>
   8320c:	52800603 	mov	w3, #0x30                  	// #48
   83210:	17ffffb2 	b	830d8 <vHdmi+0x5b8>
   83214:	52800003 	mov	w3, #0x0                   	// #0
   83218:	17ffffb0 	b	830d8 <vHdmi+0x5b8>
   8321c:	d503201f 	nop

0000000000083220 <qr_request>:
   83220:	39400005 	ldrb	w5, [x0]
   83224:	d10043ff 	sub	sp, sp, #0x10
   83228:	121a78a2 	and	w2, w5, #0xffffffdf
   8322c:	34000b62 	cbz	w2, 83398 <qr_request+0x178>
   83230:	2a0503e3 	mov	w3, w5
   83234:	910023e6 	add	x6, sp, #0x8
   83238:	d2800022 	mov	x2, #0x1                   	// #1
   8323c:	14000002 	b	83244 <qr_request+0x24>
   83240:	54000860 	b.eq	8334c <qr_request+0x12c>  // b.none
   83244:	8b0200c4 	add	x4, x6, x2
   83248:	2a0203e7 	mov	w7, w2
   8324c:	381ff083 	sturb	w3, [x4, #-1]
   83250:	38626803 	ldrb	w3, [x0, x2]
   83254:	91000442 	add	x2, x2, #0x1
   83258:	f100205f 	cmp	x2, #0x8
   8325c:	121a7864 	and	w4, w3, #0xffffffdf
   83260:	35ffff04 	cbnz	w4, 83240 <qr_request+0x20>
   83264:	8b27c0c7 	add	x7, x6, w7, sxtw
   83268:	390000ff 	strb	wzr, [x7]
   8326c:	394023e7 	ldrb	w7, [sp, #8]
   83270:	34000347 	cbz	w7, 832d8 <qr_request+0xb8>
   83274:	f0000049 	adrp	x9, 8e000 <sc_scope_draw+0x570>
   83278:	91028529 	add	x9, x9, #0xa1
   8327c:	2a0703e4 	mov	w4, w7
   83280:	d2800002 	mov	x2, #0x0                   	// #0
   83284:	52800de3 	mov	w3, #0x6f                  	// #111
   83288:	8b0200c8 	add	x8, x6, x2
   8328c:	6b04007f 	cmp	w3, w4
   83290:	540000c1 	b.ne	832a8 <qr_request+0x88>  // b.any
   83294:	39400504 	ldrb	w4, [x8, #1]
   83298:	38696843 	ldrb	w3, [x2, x9]
   8329c:	91000442 	add	x2, x2, #0x1
   832a0:	34000444 	cbz	w4, 83328 <qr_request+0x108>
   832a4:	35ffff23 	cbnz	w3, 83288 <qr_request+0x68>
   832a8:	f0000048 	adrp	x8, 8e000 <sc_scope_draw+0x570>
   832ac:	9102a108 	add	x8, x8, #0xa8
   832b0:	52800c63 	mov	w3, #0x63                  	// #99
   832b4:	d2800002 	mov	x2, #0x0                   	// #0
   832b8:	8b0200c4 	add	x4, x6, x2
   832bc:	6b07007f 	cmp	w3, w7
   832c0:	91000442 	add	x2, x2, #0x1
   832c4:	540000a1 	b.ne	832d8 <qr_request+0xb8>  // b.any
   832c8:	39400487 	ldrb	w7, [x4, #1]
   832cc:	38686843 	ldrb	w3, [x2, x8]
   832d0:	34000427 	cbz	w7, 83354 <qr_request+0x134>
   832d4:	35ffff23 	cbnz	w3, 832b8 <qr_request+0x98>
   832d8:	90000067 	adrp	x7, 8f000 <g_msg+0x18>
   832dc:	9106c0e7 	add	x7, x7, #0x1b0
   832e0:	910f60e4 	add	x4, x7, #0x3d8
   832e4:	d2800022 	mov	x2, #0x1                   	// #1
   832e8:	35000065 	cbnz	w5, 832f4 <qr_request+0xd4>
   832ec:	14000023 	b	83378 <qr_request+0x158>
   832f0:	54000500 	b.eq	83390 <qr_request+0x170>  // b.none
   832f4:	8b020083 	add	x3, x4, x2
   832f8:	2a0203e6 	mov	w6, w2
   832fc:	381ff065 	sturb	w5, [x3, #-1]
   83300:	38626805 	ldrb	w5, [x0, x2]
   83304:	91000442 	add	x2, x2, #0x1
   83308:	f102805f 	cmp	x2, #0xa0
   8330c:	35ffff25 	cbnz	w5, 832f0 <qr_request+0xd0>
   83310:	3826c89f 	strb	wzr, [x4, w6, sxtw]
   83314:	b90238e1 	str	w1, [x7, #568]
   83318:	f0000040 	adrp	x0, 8e000 <sc_scope_draw+0x570>
   8331c:	91034000 	add	x0, x0, #0xd0
   83320:	910043ff 	add	sp, sp, #0x10
   83324:	1400068f 	b	84d60 <uart_puts>
   83328:	35fffc03 	cbnz	w3, 832a8 <qr_request+0x88>
   8332c:	90000061 	adrp	x1, 8f000 <g_msg+0x18>
   83330:	9106c021 	add	x1, x1, #0x1b0
   83334:	52800042 	mov	w2, #0x2                   	// #2
   83338:	f0000040 	adrp	x0, 8e000 <sc_scope_draw+0x570>
   8333c:	9102c000 	add	x0, x0, #0xb0
   83340:	b9023822 	str	w2, [x1, #568]
   83344:	910043ff 	add	sp, sp, #0x10
   83348:	14000686 	b	84d60 <uart_puts>
   8334c:	91003fe7 	add	x7, sp, #0xf
   83350:	17ffffc6 	b	83268 <qr_request+0x48>
   83354:	35fffc23 	cbnz	w3, 832d8 <qr_request+0xb8>
   83358:	90000061 	adrp	x1, 8f000 <g_msg+0x18>
   8335c:	9106c021 	add	x1, x1, #0x1b0
   83360:	52800042 	mov	w2, #0x2                   	// #2
   83364:	f0000040 	adrp	x0, 8e000 <sc_scope_draw+0x570>
   83368:	9102c000 	add	x0, x0, #0xb0
   8336c:	b9023822 	str	w2, [x1, #568]
   83370:	910043ff 	add	sp, sp, #0x10
   83374:	1400067b 	b	84d60 <uart_puts>
   83378:	90000061 	adrp	x1, 8f000 <g_msg+0x18>
   8337c:	f0000040 	adrp	x0, 8e000 <sc_scope_draw+0x570>
   83380:	91030000 	add	x0, x0, #0xc0
   83384:	3916203f 	strb	wzr, [x1, #1416]
   83388:	910043ff 	add	sp, sp, #0x10
   8338c:	14000675 	b	84d60 <uart_puts>
   83390:	39027c9f 	strb	wzr, [x4, #159]
   83394:	17ffffe0 	b	83314 <qr_request+0xf4>
   83398:	910023e6 	add	x6, sp, #0x8
   8339c:	aa0603e7 	mov	x7, x6
   833a0:	17ffffb2 	b	83268 <qr_request+0x48>
   833a4:	d503201f 	nop
   833a8:	d503201f 	nop
   833ac:	d503201f 	nop

00000000000833b0 <vUartCmd>:
   833b0:	d10c03ff 	sub	sp, sp, #0x300
   833b4:	a9007bfd 	stp	x29, x30, [sp]
   833b8:	910003fd 	mov	x29, sp
   833bc:	a90153f3 	stp	x19, x20, [sp, #16]
   833c0:	a9025bf5 	stp	x21, x22, [sp, #32]
   833c4:	a90363f7 	stp	x23, x24, [sp, #48]
   833c8:	a9046bf9 	stp	x25, x26, [sp, #64]
   833cc:	a90573fb 	stp	x27, x28, [sp, #80]
   833d0:	9400064c 	bl	84d00 <uart_getc_nb>
   833d4:	36ffffe0 	tbz	w0, #31, 833d0 <vUartCmd+0x20>
   833d8:	f0000040 	adrp	x0, 8e000 <sc_scope_draw+0x570>
   833dc:	9100a000 	add	x0, x0, #0x28
   833e0:	f9003fe0 	str	x0, [sp, #120]
   833e4:	9400065f 	bl	84d60 <uart_puts>
   833e8:	90000077 	adrp	x23, 8f000 <g_msg+0x18>
   833ec:	9106c2f7 	add	x23, x23, #0x1b0
   833f0:	97fff9dc 	bl	81b60 <print_help>
   833f4:	f0000055 	adrp	x21, 8e000 <sc_scope_draw+0x570>
   833f8:	9103a6b5 	add	x21, x21, #0xe9
   833fc:	f0000040 	adrp	x0, 8e000 <sc_scope_draw+0x570>
   83400:	91036000 	add	x0, x0, #0xd8
   83404:	f9003be0 	str	x0, [sp, #112]
   83408:	94000656 	bl	84d60 <uart_puts>
   8340c:	f0000058 	adrp	x24, 8e000 <sc_scope_draw+0x570>
   83410:	91040318 	add	x24, x24, #0x100
   83414:	f0000040 	adrp	x0, 8e000 <sc_scope_draw+0x570>
   83418:	9103c000 	add	x0, x0, #0xf0
   8341c:	f90047e0 	str	x0, [sp, #136]
   83420:	f0000040 	adrp	x0, 8e000 <sc_scope_draw+0x570>
   83424:	91030000 	add	x0, x0, #0xc0
   83428:	f90063e0 	str	x0, [sp, #192]
   8342c:	f0000040 	adrp	x0, 8e000 <sc_scope_draw+0x570>
   83430:	91046000 	add	x0, x0, #0x118
   83434:	f90037e0 	str	x0, [sp, #104]
   83438:	f0000040 	adrp	x0, 8e000 <sc_scope_draw+0x570>
   8343c:	91048000 	add	x0, x0, #0x120
   83440:	f90043e0 	str	x0, [sp, #128]
   83444:	f0000040 	adrp	x0, 8e000 <sc_scope_draw+0x570>
   83448:	9104a000 	add	x0, x0, #0x128
   8344c:	f9004be0 	str	x0, [sp, #144]
   83450:	f0000040 	adrp	x0, 8e000 <sc_scope_draw+0x570>
   83454:	9104c000 	add	x0, x0, #0x130
   83458:	f9004fe0 	str	x0, [sp, #152]
   8345c:	f0000040 	adrp	x0, 8e000 <sc_scope_draw+0x570>
   83460:	91028400 	add	x0, x0, #0xa1
   83464:	f9006be0 	str	x0, [sp, #208]
   83468:	f0000040 	adrp	x0, 8e000 <sc_scope_draw+0x570>
   8346c:	9104e000 	add	x0, x0, #0x138
   83470:	f9007be0 	str	x0, [sp, #240]
   83474:	f0000040 	adrp	x0, 8e000 <sc_scope_draw+0x570>
   83478:	91052000 	add	x0, x0, #0x148
   8347c:	f9005be0 	str	x0, [sp, #176]
   83480:	f0000040 	adrp	x0, 8e000 <sc_scope_draw+0x570>
   83484:	91054000 	add	x0, x0, #0x150
   83488:	f9007fe0 	str	x0, [sp, #248]
   8348c:	d0000040 	adrp	x0, 8d000 <la_logic_traces+0x60>
   83490:	913e0000 	add	x0, x0, #0xf80
   83494:	f9005fe0 	str	x0, [sp, #184]
   83498:	f0000040 	adrp	x0, 8e000 <sc_scope_draw+0x570>
   8349c:	913f2000 	add	x0, x0, #0xfc8
   834a0:	f90057e0 	str	x0, [sp, #168]
   834a4:	f0000040 	adrp	x0, 8e000 <sc_scope_draw+0x570>
   834a8:	91058000 	add	x0, x0, #0x160
   834ac:	f90083e0 	str	x0, [sp, #256]
   834b0:	d0000040 	adrp	x0, 8d000 <la_logic_traces+0x60>
   834b4:	913e2000 	add	x0, x0, #0xf88
   834b8:	f90067e0 	str	x0, [sp, #200]
   834bc:	f0000040 	adrp	x0, 8e000 <sc_scope_draw+0x570>
   834c0:	9105c000 	add	x0, x0, #0x170
   834c4:	f90087e0 	str	x0, [sp, #264]
   834c8:	f0000040 	adrp	x0, 8e000 <sc_scope_draw+0x570>
   834cc:	91060000 	add	x0, x0, #0x180
   834d0:	f9006fe0 	str	x0, [sp, #216]
   834d4:	f0000040 	adrp	x0, 8e000 <sc_scope_draw+0x570>
   834d8:	91062000 	add	x0, x0, #0x188
   834dc:	f9008be0 	str	x0, [sp, #272]
   834e0:	f0000040 	adrp	x0, 8e000 <sc_scope_draw+0x570>
   834e4:	91066000 	add	x0, x0, #0x198
   834e8:	f90073e0 	str	x0, [sp, #224]
   834ec:	f0000040 	adrp	x0, 8e000 <sc_scope_draw+0x570>
   834f0:	91068000 	add	x0, x0, #0x1a0
   834f4:	f9008fe0 	str	x0, [sp, #280]
   834f8:	f0000040 	adrp	x0, 8e000 <sc_scope_draw+0x570>
   834fc:	9106c000 	add	x0, x0, #0x1b0
   83500:	f90093e0 	str	x0, [sp, #288]
   83504:	f0000040 	adrp	x0, 8e000 <sc_scope_draw+0x570>
   83508:	9106e000 	add	x0, x0, #0x1b8
   8350c:	f90097e0 	str	x0, [sp, #296]
   83510:	f0000040 	adrp	x0, 8e000 <sc_scope_draw+0x570>
   83514:	91072000 	add	x0, x0, #0x1c8
   83518:	f9009be0 	str	x0, [sp, #304]
   8351c:	f0000040 	adrp	x0, 8e000 <sc_scope_draw+0x570>
   83520:	91076000 	add	x0, x0, #0x1d8
   83524:	f9009fe0 	str	x0, [sp, #312]
   83528:	f0000040 	adrp	x0, 8e000 <sc_scope_draw+0x570>
   8352c:	9107c000 	add	x0, x0, #0x1f0
   83530:	f90077e0 	str	x0, [sp, #232]
   83534:	f0000040 	adrp	x0, 8e000 <sc_scope_draw+0x570>
   83538:	9107e000 	add	x0, x0, #0x1f8
   8353c:	f900a3e0 	str	x0, [sp, #320]
   83540:	f0000040 	adrp	x0, 8e000 <sc_scope_draw+0x570>
   83544:	91082000 	add	x0, x0, #0x208
   83548:	f900a7e0 	str	x0, [sp, #328]
   8354c:	f0000040 	adrp	x0, 8e000 <sc_scope_draw+0x570>
   83550:	91086000 	add	x0, x0, #0x218
   83554:	f900abe0 	str	x0, [sp, #336]
   83558:	f0000040 	adrp	x0, 8e000 <sc_scope_draw+0x570>
   8355c:	91088000 	add	x0, x0, #0x220
   83560:	f900afe0 	str	x0, [sp, #344]
   83564:	f0000040 	adrp	x0, 8e000 <sc_scope_draw+0x570>
   83568:	9108c000 	add	x0, x0, #0x230
   8356c:	f900b3e0 	str	x0, [sp, #352]
   83570:	f0000040 	adrp	x0, 8e000 <sc_scope_draw+0x570>
   83574:	91090000 	add	x0, x0, #0x240
   83578:	f900b7e0 	str	x0, [sp, #360]
   8357c:	f0000040 	adrp	x0, 8e000 <sc_scope_draw+0x570>
   83580:	91094000 	add	x0, x0, #0x250
   83584:	f900bbe0 	str	x0, [sp, #368]
   83588:	f0000040 	adrp	x0, 8e000 <sc_scope_draw+0x570>
   8358c:	91098000 	add	x0, x0, #0x260
   83590:	f900bfe0 	str	x0, [sp, #376]
   83594:	f0000040 	adrp	x0, 8e000 <sc_scope_draw+0x570>
   83598:	910a4000 	add	x0, x0, #0x290
   8359c:	f900c3e0 	str	x0, [sp, #384]
   835a0:	f0000040 	adrp	x0, 8e000 <sc_scope_draw+0x570>
   835a4:	910a6000 	add	x0, x0, #0x298
   835a8:	f900c7e0 	str	x0, [sp, #392]
   835ac:	f0000040 	adrp	x0, 8e000 <sc_scope_draw+0x570>
   835b0:	910a8000 	add	x0, x0, #0x2a0
   835b4:	f900cbe0 	str	x0, [sp, #400]
   835b8:	f0000040 	adrp	x0, 8e000 <sc_scope_draw+0x570>
   835bc:	9100c000 	add	x0, x0, #0x30
   835c0:	f900efe0 	str	x0, [sp, #472]
   835c4:	f0000040 	adrp	x0, 8e000 <sc_scope_draw+0x570>
   835c8:	910aa000 	add	x0, x0, #0x2a8
   835cc:	f900cfe0 	str	x0, [sp, #408]
   835d0:	f0000040 	adrp	x0, 8e000 <sc_scope_draw+0x570>
   835d4:	910ae000 	add	x0, x0, #0x2b8
   835d8:	f900d3e0 	str	x0, [sp, #416]
   835dc:	f0000040 	adrp	x0, 8e000 <sc_scope_draw+0x570>
   835e0:	910b0000 	add	x0, x0, #0x2c0
   835e4:	f900d7e0 	str	x0, [sp, #424]
   835e8:	f0000040 	adrp	x0, 8e000 <sc_scope_draw+0x570>
   835ec:	910b2000 	add	x0, x0, #0x2c8
   835f0:	f900dbe0 	str	x0, [sp, #432]
   835f4:	f0000040 	adrp	x0, 8e000 <sc_scope_draw+0x570>
   835f8:	910b4000 	add	x0, x0, #0x2d0
   835fc:	f900dfe0 	str	x0, [sp, #440]
   83600:	f0000040 	adrp	x0, 8e000 <sc_scope_draw+0x570>
   83604:	910b8000 	add	x0, x0, #0x2e0
   83608:	f900e3e0 	str	x0, [sp, #448]
   8360c:	f0000040 	adrp	x0, 8e000 <sc_scope_draw+0x570>
   83610:	910bc000 	add	x0, x0, #0x2f0
   83614:	f000005a 	adrp	x26, 8e000 <sc_scope_draw+0x570>
   83618:	9104235a 	add	x26, x26, #0x108
   8361c:	f000005b 	adrp	x27, 8e000 <sc_scope_draw+0x570>
   83620:	9104437b 	add	x27, x27, #0x110
   83624:	52800014 	mov	w20, #0x0                   	// #0
   83628:	910a03f6 	add	x22, sp, #0x280
   8362c:	9107a3fc 	add	x28, sp, #0x1e8
   83630:	2a1403f9 	mov	w25, w20
   83634:	f900e7e0 	str	x0, [sp, #456]
   83638:	f0000040 	adrp	x0, 8e000 <sc_scope_draw+0x570>
   8363c:	910be000 	add	x0, x0, #0x2f8
   83640:	52800153 	mov	w19, #0xa                   	// #10
   83644:	f900ebe0 	str	x0, [sp, #464]
   83648:	f0000040 	adrp	x0, 8e000 <sc_scope_draw+0x570>
   8364c:	910c2000 	add	x0, x0, #0x308
   83650:	f90053e0 	str	x0, [sp, #160]
   83654:	d503201f 	nop
   83658:	52800014 	mov	w20, #0x0                   	// #0
   8365c:	940005a9 	bl	84d00 <uart_getc_nb>
   83660:	37f81840 	tbnz	w0, #31, 83968 <vUartCmd+0x5b8>
   83664:	d503201f 	nop
   83668:	7100341f 	cmp	w0, #0xd
   8366c:	7a4a1804 	ccmp	w0, #0xa, #0x4, ne  // ne = any
   83670:	540018a1 	b.ne	83984 <vUartCmd+0x5d4>  // b.any
   83674:	b94966e0 	ldr	w0, [x23, #2404]
   83678:	34002900 	cbz	w0, 83b98 <vUartCmd+0x7e8>
   8367c:	3839cadf 	strb	wzr, [x22, w25, sxtw]
   83680:	aa1603e1 	mov	x1, x22
   83684:	f900f3f6 	str	x22, [sp, #480]
   83688:	394a03e0 	ldrb	w0, [sp, #640]
   8368c:	7100801f 	cmp	w0, #0x20
   83690:	540000c1 	b.ne	836a8 <vUartCmd+0x2f8>  // b.any
   83694:	d503201f 	nop
   83698:	38401c20 	ldrb	w0, [x1, #1]!
   8369c:	7100801f 	cmp	w0, #0x20
   836a0:	54ffffc0 	b.eq	83698 <vUartCmd+0x2e8>  // b.none
   836a4:	f900f3e1 	str	x1, [sp, #480]
   836a8:	121a7800 	and	w0, w0, #0xffffffdf
   836ac:	34001520 	cbz	w0, 83950 <vUartCmd+0x5a0>
   836b0:	91000421 	add	x1, x1, #0x1
   836b4:	d2800022 	mov	x2, #0x1                   	// #1
   836b8:	14000003 	b	836c4 <vUartCmd+0x314>
   836bc:	91000421 	add	x1, x1, #0x1
   836c0:	540018c0 	b.eq	839d8 <vUartCmd+0x628>  // b.none
   836c4:	8b020383 	add	x3, x28, x2
   836c8:	f900f3e1 	str	x1, [sp, #480]
   836cc:	2a0203e5 	mov	w5, w2
   836d0:	91000442 	add	x2, x2, #0x1
   836d4:	385ff024 	ldurb	w4, [x1, #-1]
   836d8:	aa0103e0 	mov	x0, x1
   836dc:	381ff064 	sturb	w4, [x3, #-1]
   836e0:	f100405f 	cmp	x2, #0x10
   836e4:	39400023 	ldrb	w3, [x1]
   836e8:	121a7864 	and	w4, w3, #0xffffffdf
   836ec:	35fffe84 	cbnz	w4, 836bc <vUartCmd+0x30c>
   836f0:	3825cb9f 	strb	wzr, [x28, w5, sxtw]
   836f4:	7100807f 	cmp	w3, #0x20
   836f8:	540000e1 	b.ne	83714 <vUartCmd+0x364>  // b.any
   836fc:	91000421 	add	x1, x1, #0x1
   83700:	f900f3e1 	str	x1, [sp, #480]
   83704:	aa0103e0 	mov	x0, x1
   83708:	38401423 	ldrb	w3, [x1], #1
   8370c:	7100807f 	cmp	w3, #0x20
   83710:	54ffff80 	b.eq	83700 <vUartCmd+0x350>  // b.none
   83714:	3947a3e6 	ldrb	w6, [sp, #488]
   83718:	34001666 	cbz	w6, 839e4 <vUartCmd+0x634>
   8371c:	2a0603e4 	mov	w4, w6
   83720:	d2800001 	mov	x1, #0x0                   	// #0
   83724:	52800e62 	mov	w2, #0x73                  	// #115
   83728:	8b010385 	add	x5, x28, x1
   8372c:	6b04005f 	cmp	w2, w4
   83730:	540000c1 	b.ne	83748 <vUartCmd+0x398>  // b.any
   83734:	394004a4 	ldrb	w4, [x5, #1]
   83738:	38616aa2 	ldrb	w2, [x21, x1]
   8373c:	91000421 	add	x1, x1, #0x1
   83740:	34001984 	cbz	w4, 83a70 <vUartCmd+0x6c0>
   83744:	35ffff22 	cbnz	w2, 83728 <vUartCmd+0x378>
   83748:	2a0603e2 	mov	w2, w6
   8374c:	52800e84 	mov	w4, #0x74                  	// #116
   83750:	d2800001 	mov	x1, #0x0                   	// #0
   83754:	d503201f 	nop
   83758:	8b010385 	add	x5, x28, x1
   8375c:	6b02009f 	cmp	w4, w2
   83760:	91000421 	add	x1, x1, #0x1
   83764:	540000a1 	b.ne	83778 <vUartCmd+0x3c8>  // b.any
   83768:	394004a2 	ldrb	w2, [x5, #1]
   8376c:	38616b04 	ldrb	w4, [x24, x1]
   83770:	34002202 	cbz	w2, 83bb0 <vUartCmd+0x800>
   83774:	35ffff24 	cbnz	w4, 83758 <vUartCmd+0x3a8>
   83778:	2a0603e4 	mov	w4, w6
   8377c:	d2800001 	mov	x1, #0x0                   	// #0
   83780:	52800da2 	mov	w2, #0x6d                  	// #109
   83784:	d503201f 	nop
   83788:	8b010385 	add	x5, x28, x1
   8378c:	6b02009f 	cmp	w4, w2
   83790:	91000421 	add	x1, x1, #0x1
   83794:	540000a1 	b.ne	837a8 <vUartCmd+0x3f8>  // b.any
   83798:	394004a4 	ldrb	w4, [x5, #1]
   8379c:	38616b42 	ldrb	w2, [x26, x1]
   837a0:	34002204 	cbz	w4, 83be0 <vUartCmd+0x830>
   837a4:	35ffff22 	cbnz	w2, 83788 <vUartCmd+0x3d8>
   837a8:	2a0603e4 	mov	w4, w6
   837ac:	52800dc2 	mov	w2, #0x6e                  	// #110
   837b0:	d2800001 	mov	x1, #0x0                   	// #0
   837b4:	d503201f 	nop
   837b8:	8b010385 	add	x5, x28, x1
   837bc:	6b02009f 	cmp	w4, w2
   837c0:	91000421 	add	x1, x1, #0x1
   837c4:	540000a1 	b.ne	837d8 <vUartCmd+0x428>  // b.any
   837c8:	394004a4 	ldrb	w4, [x5, #1]
   837cc:	38616b62 	ldrb	w2, [x27, x1]
   837d0:	34002504 	cbz	w4, 83c70 <vUartCmd+0x8c0>
   837d4:	35ffff22 	cbnz	w2, 837b8 <vUartCmd+0x408>
   837d8:	2a0603e2 	mov	w2, w6
   837dc:	d2800001 	mov	x1, #0x0                   	// #0
   837e0:	52800e24 	mov	w4, #0x71                  	// #113
   837e4:	d503201f 	nop
   837e8:	8b010385 	add	x5, x28, x1
   837ec:	6b04005f 	cmp	w2, w4
   837f0:	91000421 	add	x1, x1, #0x1
   837f4:	540000c1 	b.ne	8380c <vUartCmd+0x45c>  // b.any
   837f8:	394004a2 	ldrb	w2, [x5, #1]
   837fc:	f94037e4 	ldr	x4, [sp, #104]
   83800:	38616884 	ldrb	w4, [x4, x1]
   83804:	34002702 	cbz	w2, 83ce4 <vUartCmd+0x934>
   83808:	35ffff04 	cbnz	w4, 837e8 <vUartCmd+0x438>
   8380c:	2a0603e4 	mov	w4, w6
   83810:	d2800001 	mov	x1, #0x0                   	// #0
   83814:	52800e22 	mov	w2, #0x71                  	// #113
   83818:	8b010385 	add	x5, x28, x1
   8381c:	6b02009f 	cmp	w4, w2
   83820:	91000421 	add	x1, x1, #0x1
   83824:	540000c1 	b.ne	8383c <vUartCmd+0x48c>  // b.any
   83828:	394004a4 	ldrb	w4, [x5, #1]
   8382c:	f94043e2 	ldr	x2, [sp, #128]
   83830:	38616842 	ldrb	w2, [x2, x1]
   83834:	34002604 	cbz	w4, 83cf4 <vUartCmd+0x944>
   83838:	35ffff02 	cbnz	w2, 83818 <vUartCmd+0x468>
   8383c:	2a0603e4 	mov	w4, w6
   83840:	d2800001 	mov	x1, #0x0                   	// #0
   83844:	52800e22 	mov	w2, #0x71                  	// #113
   83848:	8b010385 	add	x5, x28, x1
   8384c:	6b04005f 	cmp	w2, w4
   83850:	91000421 	add	x1, x1, #0x1
   83854:	540000c1 	b.ne	8386c <vUartCmd+0x4bc>  // b.any
   83858:	394004a4 	ldrb	w4, [x5, #1]
   8385c:	f9404be2 	ldr	x2, [sp, #144]
   83860:	38616842 	ldrb	w2, [x2, x1]
   83864:	340024c4 	cbz	w4, 83cfc <vUartCmd+0x94c>
   83868:	35ffff02 	cbnz	w2, 83848 <vUartCmd+0x498>
   8386c:	2a0603e4 	mov	w4, w6
   83870:	52800d82 	mov	w2, #0x6c                  	// #108
   83874:	d2800001 	mov	x1, #0x0                   	// #0
   83878:	8b010385 	add	x5, x28, x1
   8387c:	6b02009f 	cmp	w4, w2
   83880:	91000421 	add	x1, x1, #0x1
   83884:	540000c1 	b.ne	8389c <vUartCmd+0x4ec>  // b.any
   83888:	394004a4 	ldrb	w4, [x5, #1]
   8388c:	f9404fe2 	ldr	x2, [sp, #152]
   83890:	38616842 	ldrb	w2, [x2, x1]
   83894:	340023c4 	cbz	w4, 83d0c <vUartCmd+0x95c>
   83898:	35ffff02 	cbnz	w2, 83878 <vUartCmd+0x4c8>
   8389c:	2a0603e4 	mov	w4, w6
   838a0:	d2800001 	mov	x1, #0x0                   	// #0
   838a4:	52800e62 	mov	w2, #0x73                  	// #115
   838a8:	8b010385 	add	x5, x28, x1
   838ac:	6b02009f 	cmp	w4, w2
   838b0:	91000421 	add	x1, x1, #0x1
   838b4:	540000c1 	b.ne	838cc <vUartCmd+0x51c>  // b.any
   838b8:	394004a4 	ldrb	w4, [x5, #1]
   838bc:	f9405be2 	ldr	x2, [sp, #176]
   838c0:	38616842 	ldrb	w2, [x2, x1]
   838c4:	34002ac4 	cbz	w4, 83e1c <vUartCmd+0xa6c>
   838c8:	35ffff02 	cbnz	w2, 838a8 <vUartCmd+0x4f8>
   838cc:	2a0603e2 	mov	w2, w6
   838d0:	52800e41 	mov	w1, #0x72                  	// #114
   838d4:	d2800000 	mov	x0, #0x0                   	// #0
   838d8:	8b000383 	add	x3, x28, x0
   838dc:	6b02003f 	cmp	w1, w2
   838e0:	91000400 	add	x0, x0, #0x1
   838e4:	540000c1 	b.ne	838fc <vUartCmd+0x54c>  // b.any
   838e8:	39400462 	ldrb	w2, [x3, #1]
   838ec:	f9405fe1 	ldr	x1, [sp, #184]
   838f0:	38606821 	ldrb	w1, [x1, x0]
   838f4:	34002c62 	cbz	w2, 83e80 <vUartCmd+0xad0>
   838f8:	35ffff01 	cbnz	w1, 838d8 <vUartCmd+0x528>
   838fc:	2a0603e0 	mov	w0, w6
   83900:	d2800002 	mov	x2, #0x0                   	// #0
   83904:	52800e61 	mov	w1, #0x73                  	// #115
   83908:	91000443 	add	x3, x2, #0x1
   8390c:	8b020384 	add	x4, x28, x2
   83910:	6b01001f 	cmp	w0, w1
   83914:	aa0303e2 	mov	x2, x3
   83918:	540022c1 	b.ne	83d70 <vUartCmd+0x9c0>  // b.any
   8391c:	39400480 	ldrb	w0, [x4, #1]
   83920:	f94067e1 	ldr	x1, [sp, #200]
   83924:	38636821 	ldrb	w1, [x1, x3]
   83928:	34000040 	cbz	w0, 83930 <vUartCmd+0x580>
   8392c:	35fffee1 	cbnz	w1, 83908 <vUartCmd+0x558>
   83930:	f94067e1 	ldr	x1, [sp, #200]
   83934:	38636821 	ldrb	w1, [x1, x3]
   83938:	6b00003f 	cmp	w1, w0
   8393c:	540021a1 	b.ne	83d70 <vUartCmd+0x9c0>  // b.any
   83940:	f94057e1 	ldr	x1, [sp, #168]
   83944:	f94087e0 	ldr	x0, [sp, #264]
   83948:	b900183f 	str	wzr, [x1, #24]
   8394c:	94000505 	bl	84d60 <uart_puts>
   83950:	b94966f9 	ldr	w25, [x23, #2404]
   83954:	34000119 	cbz	w25, 83974 <vUartCmd+0x5c4>
   83958:	52800019 	mov	w25, #0x0                   	// #0
   8395c:	52800034 	mov	w20, #0x1                   	// #1
   83960:	940004e8 	bl	84d00 <uart_getc_nb>
   83964:	36ffe820 	tbz	w0, #31, 83668 <vUartCmd+0x2b8>
   83968:	34001374 	cbz	w20, 83bd4 <vUartCmd+0x824>
   8396c:	d4000001 	svc	#0x0
   83970:	17ffff3a 	b	83658 <vUartCmd+0x2a8>
   83974:	f9403be0 	ldr	x0, [sp, #112]
   83978:	52800034 	mov	w20, #0x1                   	// #1
   8397c:	940004f9 	bl	84d60 <uart_puts>
   83980:	17fffff8 	b	83960 <vUartCmd+0x5b0>
   83984:	7101fc1f 	cmp	w0, #0x7f
   83988:	7a481804 	ccmp	w0, #0x8, #0x4, ne  // ne = any
   8398c:	54000121 	b.ne	839b0 <vUartCmd+0x600>  // b.any
   83990:	34fffe59 	cbz	w25, 83958 <vUartCmd+0x5a8>
   83994:	b94966e0 	ldr	w0, [x23, #2404]
   83998:	51000739 	sub	w25, w25, #0x1
   8399c:	35fffe00 	cbnz	w0, 8395c <vUartCmd+0x5ac>
   839a0:	f94053e0 	ldr	x0, [sp, #160]
   839a4:	52800034 	mov	w20, #0x1                   	// #1
   839a8:	940004ee 	bl	84d60 <uart_puts>
   839ac:	17ffffed 	b	83960 <vUartCmd+0x5b0>
   839b0:	7101fb3f 	cmp	w25, #0x7e
   839b4:	54fffd4c 	b.gt	8395c <vUartCmd+0x5ac>
   839b8:	b94966e1 	ldr	w1, [x23, #2404]
   839bc:	12001c00 	and	w0, w0, #0xff
   839c0:	3839cac0 	strb	w0, [x22, w25, sxtw]
   839c4:	11000739 	add	w25, w25, #0x1
   839c8:	35fffca1 	cbnz	w1, 8395c <vUartCmd+0x5ac>
   839cc:	52800034 	mov	w20, #0x1                   	// #1
   839d0:	940004d8 	bl	84d30 <uart_putc>
   839d4:	17ffffe3 	b	83960 <vUartCmd+0x5b0>
   839d8:	3947a3e6 	ldrb	w6, [sp, #488]
   839dc:	3907dfff 	strb	wzr, [sp, #503]
   839e0:	35ffe9e6 	cbnz	w6, 8371c <vUartCmd+0x36c>
   839e4:	f94093e1 	ldr	x1, [sp, #288]
   839e8:	aa1c03e0 	mov	x0, x28
   839ec:	97fff809 	bl	81a10 <seq>
   839f0:	35004120 	cbnz	w0, 84214 <vUartCmd+0xe64>
   839f4:	f940abe1 	ldr	x1, [sp, #336]
   839f8:	aa1c03e0 	mov	x0, x28
   839fc:	97fff805 	bl	81a10 <seq>
   83a00:	2a0003e5 	mov	w5, w0
   83a04:	35004900 	cbnz	w0, 84324 <vUartCmd+0xf74>
   83a08:	f940c3e1 	ldr	x1, [sp, #384]
   83a0c:	aa1c03e0 	mov	x0, x28
   83a10:	97fff800 	bl	81a10 <seq>
   83a14:	2a0003e9 	mov	w9, w0
   83a18:	34004500 	cbz	w0, 842b8 <vUartCmd+0xf08>
   83a1c:	52800060 	mov	w0, #0x3                   	// #3
   83a20:	b9020be0 	str	w0, [sp, #520]
   83a24:	14000003 	b	83a30 <vUartCmd+0x680>
   83a28:	1b1300a5 	madd	w5, w5, w19, w0
   83a2c:	f900f3e2 	str	x2, [sp, #480]
   83a30:	f940f3e0 	ldr	x0, [sp, #480]
   83a34:	91000402 	add	x2, x0, #0x1
   83a38:	39400000 	ldrb	w0, [x0]
   83a3c:	5100c000 	sub	w0, w0, #0x30
   83a40:	12001c01 	and	w1, w0, #0xff
   83a44:	7100243f 	cmp	w1, #0x9
   83a48:	54ffff09 	b.ls	83a28 <vUartCmd+0x678>  // b.plast
   83a4c:	b9020fe5 	str	w5, [sp, #524]
   83a50:	71003cbf 	cmp	w5, #0xf
   83a54:	5400070c 	b.gt	83b34 <vUartCmd+0x784>
   83a58:	f94116e0 	ldr	x0, [x23, #552]
   83a5c:	910823e1 	add	x1, sp, #0x208
   83a60:	d2800003 	mov	x3, #0x0                   	// #0
   83a64:	d2800002 	mov	x2, #0x0                   	// #0
   83a68:	94001eca 	bl	8b590 <xQueueGenericSend>
   83a6c:	17ffffb9 	b	83950 <vUartCmd+0x5a0>
   83a70:	35ffe6c2 	cbnz	w2, 83748 <vUartCmd+0x398>
   83a74:	f940f3e0 	ldr	x0, [sp, #480]
   83a78:	b9020bff 	str	wzr, [sp, #520]
   83a7c:	39400001 	ldrb	w1, [x0]
   83a80:	5100c021 	sub	w1, w1, #0x30
   83a84:	12001c22 	and	w2, w1, #0xff
   83a88:	7100245f 	cmp	w2, #0x9
   83a8c:	54000ec8 	b.hi	83c64 <vUartCmd+0x8b4>  // b.pmore
   83a90:	91000403 	add	x3, x0, #0x1
   83a94:	52800002 	mov	w2, #0x0                   	// #0
   83a98:	aa0303e0 	mov	x0, x3
   83a9c:	f900f3e0 	str	x0, [sp, #480]
   83aa0:	1b130442 	madd	w2, w2, w19, w1
   83aa4:	91000463 	add	x3, x3, #0x1
   83aa8:	39400001 	ldrb	w1, [x0]
   83aac:	5100c021 	sub	w1, w1, #0x30
   83ab0:	12001c24 	and	w4, w1, #0xff
   83ab4:	7100249f 	cmp	w4, #0x9
   83ab8:	54ffff09 	b.ls	83a98 <vUartCmd+0x6e8>  // b.plast
   83abc:	71005c5f 	cmp	w2, #0x17
   83ac0:	1a9fd7e4 	cset	w4, gt
   83ac4:	b9020fe2 	str	w2, [sp, #524]
   83ac8:	39400001 	ldrb	w1, [x0]
   83acc:	7100e83f 	cmp	w1, #0x3a
   83ad0:	540006a0 	b.eq	83ba4 <vUartCmd+0x7f4>  // b.none
   83ad4:	f940f3e0 	ldr	x0, [sp, #480]
   83ad8:	39400001 	ldrb	w1, [x0]
   83adc:	5100c021 	sub	w1, w1, #0x30
   83ae0:	12001c22 	and	w2, w1, #0xff
   83ae4:	7100245f 	cmp	w2, #0x9
   83ae8:	52800002 	mov	w2, #0x0                   	// #0
   83aec:	54000188 	b.hi	83b1c <vUartCmd+0x76c>  // b.pmore
   83af0:	91000400 	add	x0, x0, #0x1
   83af4:	f900f3e0 	str	x0, [sp, #480]
   83af8:	1b130442 	madd	w2, w2, w19, w1
   83afc:	39400001 	ldrb	w1, [x0]
   83b00:	5100c021 	sub	w1, w1, #0x30
   83b04:	12001c23 	and	w3, w1, #0xff
   83b08:	7100247f 	cmp	w3, #0x9
   83b0c:	54ffff29 	b.ls	83af0 <vUartCmd+0x740>  // b.plast
   83b10:	7100ec5f 	cmp	w2, #0x3b
   83b14:	1a9fd7e1 	cset	w1, gt
   83b18:	2a010084 	orr	w4, w4, w1
   83b1c:	b90213e2 	str	w2, [sp, #528]
   83b20:	b90217ff 	str	wzr, [sp, #532]
   83b24:	39400001 	ldrb	w1, [x0]
   83b28:	7100e83f 	cmp	w1, #0x3a
   83b2c:	540000a0 	b.eq	83b40 <vUartCmd+0x790>  // b.none
   83b30:	34fff944 	cbz	w4, 83a58 <vUartCmd+0x6a8>
   83b34:	f94047e0 	ldr	x0, [sp, #136]
   83b38:	9400048a 	bl	84d60 <uart_puts>
   83b3c:	17ffff85 	b	83950 <vUartCmd+0x5a0>
   83b40:	91000401 	add	x1, x0, #0x1
   83b44:	f900f3e1 	str	x1, [sp, #480]
   83b48:	39400401 	ldrb	w1, [x0, #1]
   83b4c:	5100c021 	sub	w1, w1, #0x30
   83b50:	12001c22 	and	w2, w1, #0xff
   83b54:	7100245f 	cmp	w2, #0x9
   83b58:	54fffec8 	b.hi	83b30 <vUartCmd+0x780>  // b.pmore
   83b5c:	91000800 	add	x0, x0, #0x2
   83b60:	52800002 	mov	w2, #0x0                   	// #0
   83b64:	d503201f 	nop
   83b68:	f900f3e0 	str	x0, [sp, #480]
   83b6c:	1b130442 	madd	w2, w2, w19, w1
   83b70:	38401401 	ldrb	w1, [x0], #1
   83b74:	5100c021 	sub	w1, w1, #0x30
   83b78:	12001c23 	and	w3, w1, #0xff
   83b7c:	7100247f 	cmp	w3, #0x9
   83b80:	54ffff49 	b.ls	83b68 <vUartCmd+0x7b8>  // b.plast
   83b84:	b90217e2 	str	w2, [sp, #532]
   83b88:	35fffd64 	cbnz	w4, 83b34 <vUartCmd+0x784>
   83b8c:	7100ec5f 	cmp	w2, #0x3b
   83b90:	54fffd2c 	b.gt	83b34 <vUartCmd+0x784>
   83b94:	17ffffb1 	b	83a58 <vUartCmd+0x6a8>
   83b98:	f9403fe0 	ldr	x0, [sp, #120]
   83b9c:	94000471 	bl	84d60 <uart_puts>
   83ba0:	17fffeb7 	b	8367c <vUartCmd+0x2cc>
   83ba4:	91000400 	add	x0, x0, #0x1
   83ba8:	f900f3e0 	str	x0, [sp, #480]
   83bac:	17ffffcb 	b	83ad8 <vUartCmd+0x728>
   83bb0:	35ffde44 	cbnz	w4, 83778 <vUartCmd+0x3c8>
   83bb4:	f94116e0 	ldr	x0, [x23, #552]
   83bb8:	52800081 	mov	w1, #0x4                   	// #4
   83bbc:	d2800003 	mov	x3, #0x0                   	// #0
   83bc0:	d2800002 	mov	x2, #0x0                   	// #0
   83bc4:	b9020be1 	str	w1, [sp, #520]
   83bc8:	910823e1 	add	x1, sp, #0x208
   83bcc:	94001e71 	bl	8b590 <xQueueGenericSend>
   83bd0:	17ffff60 	b	83950 <vUartCmd+0x5a0>
   83bd4:	d2800020 	mov	x0, #0x1                   	// #1
   83bd8:	94001a3a 	bl	8a4c0 <vTaskDelay>
   83bdc:	17fffe9f 	b	83658 <vUartCmd+0x2a8>
   83be0:	35ffde42 	cbnz	w2, 837a8 <vUartCmd+0x3f8>
   83be4:	f940f3e0 	ldr	x0, [sp, #480]
   83be8:	52800021 	mov	w1, #0x1                   	// #1
   83bec:	b9020be1 	str	w1, [sp, #520]
   83bf0:	39400001 	ldrb	w1, [x0]
   83bf4:	34000301 	cbz	w1, 83c54 <vUartCmd+0x8a4>
   83bf8:	91000400 	add	x0, x0, #0x1
   83bfc:	d2800021 	mov	x1, #0x1                   	// #1
   83c00:	14000002 	b	83c08 <vUartCmd+0x858>
   83c04:	54000620 	b.eq	83cc8 <vUartCmd+0x918>  // b.none
   83c08:	910823e2 	add	x2, sp, #0x208
   83c0c:	f900f3e0 	str	x0, [sp, #480]
   83c10:	8b010042 	add	x2, x2, x1
   83c14:	2a0103e4 	mov	w4, w1
   83c18:	385ff003 	ldurb	w3, [x0, #-1]
   83c1c:	91000421 	add	x1, x1, #0x1
   83c20:	f101943f 	cmp	x1, #0x65
   83c24:	91000400 	add	x0, x0, #0x1
   83c28:	39003c43 	strb	w3, [x2, #15]
   83c2c:	385ff002 	ldurb	w2, [x0, #-1]
   83c30:	35fffea2 	cbnz	w2, 83c04 <vUartCmd+0x854>
   83c34:	910863e0 	add	x0, sp, #0x218
   83c38:	910823e1 	add	x1, sp, #0x208
   83c3c:	d2800003 	mov	x3, #0x0                   	// #0
   83c40:	d2800002 	mov	x2, #0x0                   	// #0
   83c44:	3824c81f 	strb	wzr, [x0, w4, sxtw]
   83c48:	f94116e0 	ldr	x0, [x23, #552]
   83c4c:	94001e51 	bl	8b590 <xQueueGenericSend>
   83c50:	17ffff40 	b	83950 <vUartCmd+0x5a0>
   83c54:	f94063e0 	ldr	x0, [sp, #192]
   83c58:	390863ff 	strb	wzr, [sp, #536]
   83c5c:	94000441 	bl	84d60 <uart_puts>
   83c60:	17ffff3c 	b	83950 <vUartCmd+0x5a0>
   83c64:	52800004 	mov	w4, #0x0                   	// #0
   83c68:	52800002 	mov	w2, #0x0                   	// #0
   83c6c:	17ffff96 	b	83ac4 <vUartCmd+0x714>
   83c70:	35ffdb42 	cbnz	w2, 837d8 <vUartCmd+0x428>
   83c74:	f940f3e0 	ldr	x0, [sp, #480]
   83c78:	52800041 	mov	w1, #0x2                   	// #2
   83c7c:	b9020be1 	str	w1, [sp, #520]
   83c80:	39400001 	ldrb	w1, [x0]
   83c84:	34fffe81 	cbz	w1, 83c54 <vUartCmd+0x8a4>
   83c88:	91000400 	add	x0, x0, #0x1
   83c8c:	d2800021 	mov	x1, #0x1                   	// #1
   83c90:	14000002 	b	83c98 <vUartCmd+0x8e8>
   83c94:	540001a0 	b.eq	83cc8 <vUartCmd+0x918>  // b.none
   83c98:	910823e2 	add	x2, sp, #0x208
   83c9c:	f900f3e0 	str	x0, [sp, #480]
   83ca0:	8b010042 	add	x2, x2, x1
   83ca4:	2a0103e4 	mov	w4, w1
   83ca8:	385ff003 	ldurb	w3, [x0, #-1]
   83cac:	91000421 	add	x1, x1, #0x1
   83cb0:	f101943f 	cmp	x1, #0x65
   83cb4:	91000400 	add	x0, x0, #0x1
   83cb8:	39003c43 	strb	w3, [x2, #15]
   83cbc:	385ff002 	ldurb	w2, [x0, #-1]
   83cc0:	35fffea2 	cbnz	w2, 83c94 <vUartCmd+0x8e4>
   83cc4:	17ffffdc 	b	83c34 <vUartCmd+0x884>
   83cc8:	f94116e0 	ldr	x0, [x23, #552]
   83ccc:	910823e1 	add	x1, sp, #0x208
   83cd0:	d2800003 	mov	x3, #0x0                   	// #0
   83cd4:	d2800002 	mov	x2, #0x0                   	// #0
   83cd8:	3909f3ff 	strb	wzr, [sp, #636]
   83cdc:	94001e2d 	bl	8b590 <xQueueGenericSend>
   83ce0:	17ffff1c 	b	83950 <vUartCmd+0x5a0>
   83ce4:	35ffd944 	cbnz	w4, 8380c <vUartCmd+0x45c>
   83ce8:	52800021 	mov	w1, #0x1                   	// #1
   83cec:	97fffd4d 	bl	83220 <qr_request>
   83cf0:	17ffff18 	b	83950 <vUartCmd+0x5a0>
   83cf4:	34ffffa2 	cbz	w2, 83ce8 <vUartCmd+0x938>
   83cf8:	17fffed1 	b	8383c <vUartCmd+0x48c>
   83cfc:	35ffdb82 	cbnz	w2, 8386c <vUartCmd+0x4bc>
   83d00:	52800061 	mov	w1, #0x3                   	// #3
   83d04:	97fffd47 	bl	83220 <qr_request>
   83d08:	17ffff12 	b	83950 <vUartCmd+0x5a0>
   83d0c:	35ffdc82 	cbnz	w2, 8389c <vUartCmd+0x4ec>
   83d10:	39400004 	ldrb	w4, [x0]
   83d14:	34000184 	cbz	w4, 83d44 <vUartCmd+0x994>
   83d18:	91000405 	add	x5, x0, #0x1
   83d1c:	d2800001 	mov	x1, #0x0                   	// #0
   83d20:	52800de2 	mov	w2, #0x6f                  	// #111
   83d24:	6b02009f 	cmp	w4, w2
   83d28:	540000e1 	b.ne	83d44 <vUartCmd+0x994>  // b.any
   83d2c:	386168a4 	ldrb	w4, [x5, x1]
   83d30:	f9406be2 	ldr	x2, [sp, #208]
   83d34:	38616842 	ldrb	w2, [x2, x1]
   83d38:	91000421 	add	x1, x1, #0x1
   83d3c:	34000b04 	cbz	w4, 83e9c <vUartCmd+0xaec>
   83d40:	35ffff22 	cbnz	w2, 83d24 <vUartCmd+0x974>
   83d44:	7101887f 	cmp	w3, #0x62
   83d48:	54001040 	b.eq	83f50 <vUartCmd+0xba0>  // b.none
   83d4c:	7101907f 	cmp	w3, #0x64
   83d50:	54000ce0 	b.eq	83eec <vUartCmd+0xb3c>  // b.none
   83d54:	7101947f 	cmp	w3, #0x65
   83d58:	54ffdfc1 	b.ne	83950 <vUartCmd+0x5a0>  // b.any
   83d5c:	52800020 	mov	w0, #0x1                   	// #1
   83d60:	52800021 	mov	w1, #0x1                   	// #1
   83d64:	b9047ae1 	str	w1, [x23, #1144]
   83d68:	391642e0 	strb	w0, [x23, #1424]
   83d6c:	17fffef9 	b	83950 <vUartCmd+0x5a0>
   83d70:	2a0603e0 	mov	w0, w6
   83d74:	d2800002 	mov	x2, #0x0                   	// #0
   83d78:	52800e61 	mov	w1, #0x73                  	// #115
   83d7c:	91000443 	add	x3, x2, #0x1
   83d80:	8b020384 	add	x4, x28, x2
   83d84:	6b01001f 	cmp	w0, w1
   83d88:	aa0303e2 	mov	x2, x3
   83d8c:	54001541 	b.ne	84034 <vUartCmd+0xc84>  // b.any
   83d90:	39400480 	ldrb	w0, [x4, #1]
   83d94:	f9406fe1 	ldr	x1, [sp, #216]
   83d98:	38636821 	ldrb	w1, [x1, x3]
   83d9c:	34000040 	cbz	w0, 83da4 <vUartCmd+0x9f4>
   83da0:	35fffee1 	cbnz	w1, 83d7c <vUartCmd+0x9cc>
   83da4:	f9406fe1 	ldr	x1, [sp, #216]
   83da8:	38636821 	ldrb	w1, [x1, x3]
   83dac:	6b00003f 	cmp	w1, w0
   83db0:	54001421 	b.ne	84034 <vUartCmd+0xc84>  // b.any
   83db4:	f940f3e2 	ldr	x2, [sp, #480]
   83db8:	39400041 	ldrb	w1, [x2]
   83dbc:	5100c021 	sub	w1, w1, #0x30
   83dc0:	12001c20 	and	w0, w1, #0xff
   83dc4:	7100241f 	cmp	w0, #0x9
   83dc8:	54001888 	b.hi	840d8 <vUartCmd+0xd28>  // b.pmore
   83dcc:	91000442 	add	x2, x2, #0x1
   83dd0:	52800000 	mov	w0, #0x0                   	// #0
   83dd4:	f900f3e2 	str	x2, [sp, #480]
   83dd8:	1b130400 	madd	w0, w0, w19, w1
   83ddc:	38401441 	ldrb	w1, [x2], #1
   83de0:	5100c021 	sub	w1, w1, #0x30
   83de4:	12001c23 	and	w3, w1, #0xff
   83de8:	7100247f 	cmp	w3, #0x9
   83dec:	54ffff49 	b.ls	83dd4 <vUartCmd+0xa24>  // b.plast
   83df0:	710fa01f 	cmp	w0, #0x3e8
   83df4:	52807d01 	mov	w1, #0x3e8                 	// #1000
   83df8:	1a81d001 	csel	w1, w0, w1, le
   83dfc:	52800282 	mov	w2, #0x14                  	// #20
   83e00:	6b02003f 	cmp	w1, w2
   83e04:	1a82a021 	csel	w1, w1, w2, ge  // ge = tcont
   83e08:	f94057e2 	ldr	x2, [sp, #168]
   83e0c:	f9408be0 	ldr	x0, [sp, #272]
   83e10:	b9001c41 	str	w1, [x2, #28]
   83e14:	940003d3 	bl	84d60 <uart_puts>
   83e18:	17fffece 	b	83950 <vUartCmd+0x5a0>
   83e1c:	35ffd582 	cbnz	w2, 838cc <vUartCmd+0x51c>
   83e20:	39400004 	ldrb	w4, [x0]
   83e24:	34000184 	cbz	w4, 83e54 <vUartCmd+0xaa4>
   83e28:	91000405 	add	x5, x0, #0x1
   83e2c:	d2800001 	mov	x1, #0x0                   	// #0
   83e30:	52800de2 	mov	w2, #0x6f                  	// #111
   83e34:	6b04005f 	cmp	w2, w4
   83e38:	540000e1 	b.ne	83e54 <vUartCmd+0xaa4>  // b.any
   83e3c:	386168a4 	ldrb	w4, [x5, x1]
   83e40:	f9406be2 	ldr	x2, [sp, #208]
   83e44:	38616842 	ldrb	w2, [x2, x1]
   83e48:	91000421 	add	x1, x1, #0x1
   83e4c:	340013a4 	cbz	w4, 840c0 <vUartCmd+0xd10>
   83e50:	35ffff22 	cbnz	w2, 83e34 <vUartCmd+0xa84>
   83e54:	7101887f 	cmp	w3, #0x62
   83e58:	54001440 	b.eq	840e0 <vUartCmd+0xd30>  // b.none
   83e5c:	7101907f 	cmp	w3, #0x64
   83e60:	540002a0 	b.eq	83eb4 <vUartCmd+0xb04>  // b.none
   83e64:	7101947f 	cmp	w3, #0x65
   83e68:	54ffd741 	b.ne	83950 <vUartCmd+0x5a0>  // b.any
   83e6c:	52800020 	mov	w0, #0x1                   	// #1
   83e70:	52800021 	mov	w1, #0x1                   	// #1
   83e74:	b90596e1 	str	w1, [x23, #1428]
   83e78:	392582e0 	strb	w0, [x23, #2400]
   83e7c:	17fffeb5 	b	83950 <vUartCmd+0x5a0>
   83e80:	35ffd3e1 	cbnz	w1, 838fc <vUartCmd+0x54c>
   83e84:	f94057e1 	ldr	x1, [sp, #168]
   83e88:	52800022 	mov	w2, #0x1                   	// #1
   83e8c:	f94083e0 	ldr	x0, [sp, #256]
   83e90:	b9001822 	str	w2, [x1, #24]
   83e94:	940003b3 	bl	84d60 <uart_puts>
   83e98:	17fffeae 	b	83950 <vUartCmd+0x5a0>
   83e9c:	35fff542 	cbnz	w2, 83d44 <vUartCmd+0x994>
   83ea0:	52800040 	mov	w0, #0x2                   	// #2
   83ea4:	b9047ae0 	str	w0, [x23, #1144]
   83ea8:	f9407be0 	ldr	x0, [sp, #240]
   83eac:	940003ad 	bl	84d60 <uart_puts>
   83eb0:	17fffea8 	b	83950 <vUartCmd+0x5a0>
   83eb4:	39400401 	ldrb	w1, [x0, #1]
   83eb8:	7100803f 	cmp	w1, #0x20
   83ebc:	54ffd4a1 	b.ne	83950 <vUartCmd+0x5a0>  // b.any
   83ec0:	91000803 	add	x3, x0, #0x2
   83ec4:	52800001 	mov	w1, #0x0                   	// #0
   83ec8:	14000003 	b	83ed4 <vUartCmd+0xb24>
   83ecc:	1b130021 	madd	w1, w1, w19, w0
   83ed0:	91000463 	add	x3, x3, #0x1
   83ed4:	39400060 	ldrb	w0, [x3]
   83ed8:	5100c000 	sub	w0, w0, #0x30
   83edc:	12001c02 	and	w2, w0, #0xff
   83ee0:	7100245f 	cmp	w2, #0x9
   83ee4:	54ffff49 	b.ls	83ecc <vUartCmd+0xb1c>  // b.plast
   83ee8:	140000b7 	b	841c4 <vUartCmd+0xe14>
   83eec:	39400401 	ldrb	w1, [x0, #1]
   83ef0:	7100803f 	cmp	w1, #0x20
   83ef4:	54ffd2e1 	b.ne	83950 <vUartCmd+0x5a0>  // b.any
   83ef8:	39400801 	ldrb	w1, [x0, #2]
   83efc:	91000802 	add	x2, x0, #0x2
   83f00:	5100c020 	sub	w0, w1, #0x30
   83f04:	12001c01 	and	w1, w0, #0xff
   83f08:	7100243f 	cmp	w1, #0x9
   83f0c:	52800001 	mov	w1, #0x0                   	// #0
   83f10:	540000e8 	b.hi	83f2c <vUartCmd+0xb7c>  // b.pmore
   83f14:	38401c43 	ldrb	w3, [x2, #1]!
   83f18:	1b130021 	madd	w1, w1, w19, w0
   83f1c:	5100c060 	sub	w0, w3, #0x30
   83f20:	12001c03 	and	w3, w0, #0xff
   83f24:	7100247f 	cmp	w3, #0x9
   83f28:	54ffff69 	b.ls	83f14 <vUartCmd+0xb64>  // b.plast
   83f2c:	39400040 	ldrb	w0, [x2]
   83f30:	7100801f 	cmp	w0, #0x20
   83f34:	54000081 	b.ne	83f44 <vUartCmd+0xb94>  // b.any
   83f38:	38401c40 	ldrb	w0, [x2, #1]!
   83f3c:	7100801f 	cmp	w0, #0x20
   83f40:	54ffffc0 	b.eq	83f38 <vUartCmd+0xb88>  // b.none
   83f44:	911222e0 	add	x0, x23, #0x488
   83f48:	940022d2 	bl	8ca90 <la_chunk>
   83f4c:	17fffe81 	b	83950 <vUartCmd+0x5a0>
   83f50:	39401401 	ldrb	w1, [x0, #5]
   83f54:	91001400 	add	x0, x0, #0x5
   83f58:	7100803f 	cmp	w1, #0x20
   83f5c:	54000081 	b.ne	83f6c <vUartCmd+0xbbc>  // b.any
   83f60:	38401c01 	ldrb	w1, [x0, #1]!
   83f64:	7100803f 	cmp	w1, #0x20
   83f68:	54ffffc0 	b.eq	83f60 <vUartCmd+0xbb0>  // b.none
   83f6c:	39400002 	ldrb	w2, [x0]
   83f70:	5100c042 	sub	w2, w2, #0x30
   83f74:	12001c41 	and	w1, w2, #0xff
   83f78:	7100243f 	cmp	w1, #0x9
   83f7c:	52800001 	mov	w1, #0x0                   	// #0
   83f80:	540000e8 	b.hi	83f9c <vUartCmd+0xbec>  // b.pmore
   83f84:	38401c03 	ldrb	w3, [x0, #1]!
   83f88:	1b130821 	madd	w1, w1, w19, w2
   83f8c:	5100c062 	sub	w2, w3, #0x30
   83f90:	12001c43 	and	w3, w2, #0xff
   83f94:	7100247f 	cmp	w3, #0x9
   83f98:	54ffff69 	b.ls	83f84 <vUartCmd+0xbd4>  // b.plast
   83f9c:	39400002 	ldrb	w2, [x0]
   83fa0:	7100805f 	cmp	w2, #0x20
   83fa4:	54003e81 	b.ne	84774 <vUartCmd+0x13c4>  // b.any
   83fa8:	38401c02 	ldrb	w2, [x0, #1]!
   83fac:	7100805f 	cmp	w2, #0x20
   83fb0:	54ffffc0 	b.eq	83fa8 <vUartCmd+0xbf8>  // b.none
   83fb4:	5100c043 	sub	w3, w2, #0x30
   83fb8:	12001c63 	and	w3, w3, #0xff
   83fbc:	7100247f 	cmp	w3, #0x9
   83fc0:	54004408 	b.hi	84840 <vUartCmd+0x1490>  // b.pmore
   83fc4:	5100c043 	sub	w3, w2, #0x30
   83fc8:	52800002 	mov	w2, #0x0                   	// #0
   83fcc:	38401c04 	ldrb	w4, [x0, #1]!
   83fd0:	1b130c42 	madd	w2, w2, w19, w3
   83fd4:	5100c083 	sub	w3, w4, #0x30
   83fd8:	12001c64 	and	w4, w3, #0xff
   83fdc:	7100249f 	cmp	w4, #0x9
   83fe0:	54ffff69 	b.ls	83fcc <vUartCmd+0xc1c>  // b.plast
   83fe4:	39400003 	ldrb	w3, [x0]
   83fe8:	7100807f 	cmp	w3, #0x20
   83fec:	54003ce1 	b.ne	84788 <vUartCmd+0x13d8>  // b.any
   83ff0:	38401c04 	ldrb	w4, [x0, #1]!
   83ff4:	7100809f 	cmp	w4, #0x20
   83ff8:	54ffffc0 	b.eq	83ff0 <vUartCmd+0xc40>  // b.none
   83ffc:	5100c084 	sub	w4, w4, #0x30
   84000:	12001c83 	and	w3, w4, #0xff
   84004:	7100247f 	cmp	w3, #0x9
   84008:	52800003 	mov	w3, #0x0                   	// #0
   8400c:	540000e8 	b.hi	84028 <vUartCmd+0xc78>  // b.pmore
   84010:	38401c05 	ldrb	w5, [x0, #1]!
   84014:	1b131063 	madd	w3, w3, w19, w4
   84018:	5100c0a4 	sub	w4, w5, #0x30
   8401c:	12001c85 	and	w5, w4, #0xff
   84020:	710024bf 	cmp	w5, #0x9
   84024:	54ffff69 	b.ls	84010 <vUartCmd+0xc60>  // b.plast
   84028:	911222e0 	add	x0, x23, #0x488
   8402c:	94002281 	bl	8ca30 <la_begin>
   84030:	17fffe48 	b	83950 <vUartCmd+0x5a0>
   84034:	aa1c03e1 	mov	x1, x28
   84038:	d2800000 	mov	x0, #0x0                   	// #0
   8403c:	14000005 	b	84050 <vUartCmd+0xca0>
   84040:	54ffcd21 	b.ne	839e4 <vUartCmd+0x634>  // b.any
   84044:	38401c26 	ldrb	w6, [x1, #1]!
   84048:	91000400 	add	x0, x0, #0x1
   8404c:	340000a6 	cbz	w6, 84060 <vUartCmd+0xcb0>
   84050:	f94073e2 	ldr	x2, [sp, #224]
   84054:	38606842 	ldrb	w2, [x2, x0]
   84058:	6b06005f 	cmp	w2, w6
   8405c:	35ffff22 	cbnz	w2, 84040 <vUartCmd+0xc90>
   84060:	f94073e1 	ldr	x1, [sp, #224]
   84064:	38606820 	ldrb	w0, [x1, x0]
   84068:	6b06001f 	cmp	w0, w6
   8406c:	54ffcbc1 	b.ne	839e4 <vUartCmd+0x634>  // b.any
   84070:	f940f3e2 	ldr	x2, [sp, #480]
   84074:	39400040 	ldrb	w0, [x2]
   84078:	5100c000 	sub	w0, w0, #0x30
   8407c:	12001c01 	and	w1, w0, #0xff
   84080:	7100243f 	cmp	w1, #0x9
   84084:	54003e28 	b.hi	84848 <vUartCmd+0x1498>  // b.pmore
   84088:	91000442 	add	x2, x2, #0x1
   8408c:	52800001 	mov	w1, #0x0                   	// #0
   84090:	f900f3e2 	str	x2, [sp, #480]
   84094:	1b130021 	madd	w1, w1, w19, w0
   84098:	38401440 	ldrb	w0, [x2], #1
   8409c:	5100c000 	sub	w0, w0, #0x30
   840a0:	12001c03 	and	w3, w0, #0xff
   840a4:	7100247f 	cmp	w3, #0x9
   840a8:	54ffff49 	b.ls	84090 <vUartCmd+0xce0>  // b.plast
   840ac:	f9408fe0 	ldr	x0, [sp, #280]
   840b0:	12001c21 	and	w1, w1, #0xff
   840b4:	3906a2e1 	strb	w1, [x23, #424]
   840b8:	9400032a 	bl	84d60 <uart_puts>
   840bc:	17fffe25 	b	83950 <vUartCmd+0x5a0>
   840c0:	35ffeca2 	cbnz	w2, 83e54 <vUartCmd+0xaa4>
   840c4:	52800040 	mov	w0, #0x2                   	// #2
   840c8:	b90596e0 	str	w0, [x23, #1428]
   840cc:	f9407fe0 	ldr	x0, [sp, #248]
   840d0:	94000324 	bl	84d60 <uart_puts>
   840d4:	17fffe1f 	b	83950 <vUartCmd+0x5a0>
   840d8:	52800000 	mov	w0, #0x0                   	// #0
   840dc:	17ffff45 	b	83df0 <vUartCmd+0xa40>
   840e0:	39401402 	ldrb	w2, [x0, #5]
   840e4:	91001400 	add	x0, x0, #0x5
   840e8:	7100805f 	cmp	w2, #0x20
   840ec:	540016a1 	b.ne	843c0 <vUartCmd+0x1010>  // b.any
   840f0:	38401c02 	ldrb	w2, [x0, #1]!
   840f4:	7100805f 	cmp	w2, #0x20
   840f8:	54ffffc0 	b.eq	840f0 <vUartCmd+0xd40>  // b.none
   840fc:	5100c042 	sub	w2, w2, #0x30
   84100:	12001c41 	and	w1, w2, #0xff
   84104:	7100243f 	cmp	w1, #0x9
   84108:	54003328 	b.hi	8476c <vUartCmd+0x13bc>  // b.pmore
   8410c:	52800001 	mov	w1, #0x0                   	// #0
   84110:	38401c03 	ldrb	w3, [x0, #1]!
   84114:	1b130821 	madd	w1, w1, w19, w2
   84118:	5100c062 	sub	w2, w3, #0x30
   8411c:	12001c43 	and	w3, w2, #0xff
   84120:	7100247f 	cmp	w3, #0x9
   84124:	54ffff69 	b.ls	84110 <vUartCmd+0xd60>  // b.plast
   84128:	39400002 	ldrb	w2, [x0]
   8412c:	7100805f 	cmp	w2, #0x20
   84130:	54000081 	b.ne	84140 <vUartCmd+0xd90>  // b.any
   84134:	38401c02 	ldrb	w2, [x0, #1]!
   84138:	7100805f 	cmp	w2, #0x20
   8413c:	54ffffc0 	b.eq	84134 <vUartCmd+0xd84>  // b.none
   84140:	39400003 	ldrb	w3, [x0]
   84144:	5100c063 	sub	w3, w3, #0x30
   84148:	12001c62 	and	w2, w3, #0xff
   8414c:	7100245f 	cmp	w2, #0x9
   84150:	52800002 	mov	w2, #0x0                   	// #0
   84154:	540000e8 	b.hi	84170 <vUartCmd+0xdc0>  // b.pmore
   84158:	38401c04 	ldrb	w4, [x0, #1]!
   8415c:	1b130c42 	madd	w2, w2, w19, w3
   84160:	5100c083 	sub	w3, w4, #0x30
   84164:	12001c64 	and	w4, w3, #0xff
   84168:	7100249f 	cmp	w4, #0x9
   8416c:	54ffff69 	b.ls	84158 <vUartCmd+0xda8>  // b.plast
   84170:	39400003 	ldrb	w3, [x0]
   84174:	7100807f 	cmp	w3, #0x20
   84178:	54001301 	b.ne	843d8 <vUartCmd+0x1028>  // b.any
   8417c:	38401c04 	ldrb	w4, [x0, #1]!
   84180:	7100809f 	cmp	w4, #0x20
   84184:	54ffffc0 	b.eq	8417c <vUartCmd+0xdcc>  // b.none
   84188:	5100c084 	sub	w4, w4, #0x30
   8418c:	12001c83 	and	w3, w4, #0xff
   84190:	7100247f 	cmp	w3, #0x9
   84194:	52800003 	mov	w3, #0x0                   	// #0
   84198:	540000e8 	b.hi	841b4 <vUartCmd+0xe04>  // b.pmore
   8419c:	38401c05 	ldrb	w5, [x0, #1]!
   841a0:	1b131063 	madd	w3, w3, w19, w4
   841a4:	5100c0a4 	sub	w4, w5, #0x30
   841a8:	12001c85 	and	w5, w4, #0xff
   841ac:	710024bf 	cmp	w5, #0x9
   841b0:	54ffff69 	b.ls	8419c <vUartCmd+0xdec>  // b.plast
   841b4:	911662e0 	add	x0, x23, #0x598
   841b8:	94002412 	bl	8d200 <sc_begin>
   841bc:	17fffde5 	b	83950 <vUartCmd+0x5a0>
   841c0:	91000463 	add	x3, x3, #0x1
   841c4:	39400060 	ldrb	w0, [x3]
   841c8:	7100801f 	cmp	w0, #0x20
   841cc:	54ffffa0 	b.eq	841c0 <vUartCmd+0xe10>  // b.none
   841d0:	52800002 	mov	w2, #0x0                   	// #0
   841d4:	14000003 	b	841e0 <vUartCmd+0xe30>
   841d8:	1b130042 	madd	w2, w2, w19, w0
   841dc:	91000463 	add	x3, x3, #0x1
   841e0:	39400060 	ldrb	w0, [x3]
   841e4:	5100c000 	sub	w0, w0, #0x30
   841e8:	12001c04 	and	w4, w0, #0xff
   841ec:	7100249f 	cmp	w4, #0x9
   841f0:	54ffff49 	b.ls	841d8 <vUartCmd+0xe28>  // b.plast
   841f4:	14000002 	b	841fc <vUartCmd+0xe4c>
   841f8:	91000463 	add	x3, x3, #0x1
   841fc:	39400060 	ldrb	w0, [x3]
   84200:	7100801f 	cmp	w0, #0x20
   84204:	54ffffa0 	b.eq	841f8 <vUartCmd+0xe48>  // b.none
   84208:	911662e0 	add	x0, x23, #0x598
   8420c:	94002411 	bl	8d250 <sc_chunk>
   84210:	17fffdd0 	b	83950 <vUartCmd+0x5a0>
   84214:	910823e1 	add	x1, sp, #0x208
   84218:	910783e0 	add	x0, sp, #0x1e0
   8421c:	52800102 	mov	w2, #0x8                   	// #8
   84220:	97fff614 	bl	81a70 <word>
   84224:	f9405fe1 	ldr	x1, [sp, #184]
   84228:	910823e0 	add	x0, sp, #0x208
   8422c:	97fff5f9 	bl	81a10 <seq>
   84230:	35002fe0 	cbnz	w0, 8482c <vUartCmd+0x147c>
   84234:	f94067e1 	ldr	x1, [sp, #200]
   84238:	910823e0 	add	x0, sp, #0x208
   8423c:	97fff5f5 	bl	81a10 <seq>
   84240:	2a0003e5 	mov	w5, w0
   84244:	35002a60 	cbnz	w0, 84790 <vUartCmd+0x13e0>
   84248:	f9406fe1 	ldr	x1, [sp, #216]
   8424c:	910823e0 	add	x0, sp, #0x208
   84250:	97fff5f0 	bl	81a10 <seq>
   84254:	2a0003e6 	mov	w6, w0
   84258:	35002c80 	cbnz	w0, 847e8 <vUartCmd+0x1438>
   8425c:	f94077e1 	ldr	x1, [sp, #232]
   84260:	910823e0 	add	x0, sp, #0x208
   84264:	97fff5eb 	bl	81a10 <seq>
   84268:	35002a00 	cbnz	w0, 847a8 <vUartCmd+0x13f8>
   8426c:	910823e2 	add	x2, sp, #0x208
   84270:	14000002 	b	84278 <vUartCmd+0xec8>
   84274:	1b130400 	madd	w0, w0, w19, w1
   84278:	39400041 	ldrb	w1, [x2]
   8427c:	91000442 	add	x2, x2, #0x1
   84280:	5100c021 	sub	w1, w1, #0x30
   84284:	12001c23 	and	w3, w1, #0xff
   84288:	7100247f 	cmp	w3, #0x9
   8428c:	54ffff49 	b.ls	84274 <vUartCmd+0xec4>  // b.plast
   84290:	7102d01f 	cmp	w0, #0xb4
   84294:	52801681 	mov	w1, #0xb4                  	// #180
   84298:	1a81d000 	csel	w0, w0, w1, le
   8429c:	b9000aff 	str	wzr, [x23, #8]
   842a0:	f94057e1 	ldr	x1, [sp, #168]
   842a4:	b9000c20 	str	w0, [x1, #12]
   842a8:	940012ea 	bl	88e50 <servo_set_angle>
   842ac:	f940a7e0 	ldr	x0, [sp, #328]
   842b0:	940002ac 	bl	84d60 <uart_puts>
   842b4:	17fffda7 	b	83950 <vUartCmd+0x5a0>
   842b8:	f940c7e1 	ldr	x1, [sp, #392]
   842bc:	aa1c03e0 	mov	x0, x28
   842c0:	97fff5d4 	bl	81a10 <seq>
   842c4:	2a0003e8 	mov	w8, w0
   842c8:	35000ca0 	cbnz	w0, 8445c <vUartCmd+0x10ac>
   842cc:	f940cbe1 	ldr	x1, [sp, #400]
   842d0:	aa1c03e0 	mov	x0, x28
   842d4:	97fff5cf 	bl	81a10 <seq>
   842d8:	35001700 	cbnz	w0, 845b8 <vUartCmd+0x1208>
   842dc:	f940cfe1 	ldr	x1, [sp, #408]
   842e0:	aa1c03e0 	mov	x0, x28
   842e4:	97fff5cb 	bl	81a10 <seq>
   842e8:	35001520 	cbnz	w0, 8458c <vUartCmd+0x11dc>
   842ec:	f940d3e1 	ldr	x1, [sp, #416]
   842f0:	aa1c03e0 	mov	x0, x28
   842f4:	97fff5c7 	bl	81a10 <seq>
   842f8:	35001500 	cbnz	w0, 84598 <vUartCmd+0x11e8>
   842fc:	f940d7e1 	ldr	x1, [sp, #424]
   84300:	aa1c03e0 	mov	x0, x28
   84304:	97fff5c3 	bl	81a10 <seq>
   84308:	35001280 	cbnz	w0, 84558 <vUartCmd+0x11a8>
   8430c:	f940e7e1 	ldr	x1, [sp, #456]
   84310:	aa1c03e0 	mov	x0, x28
   84314:	97fff5bf 	bl	81a10 <seq>
   84318:	340011a0 	cbz	w0, 8454c <vUartCmd+0x119c>
   8431c:	97fff611 	bl	81b60 <print_help>
   84320:	17fffd8c 	b	83950 <vUartCmd+0x5a0>
   84324:	910823e1 	add	x1, sp, #0x208
   84328:	910783e0 	add	x0, sp, #0x1e0
   8432c:	52800102 	mov	w2, #0x8                   	// #8
   84330:	97fff5d0 	bl	81a70 <word>
   84334:	f9405fe1 	ldr	x1, [sp, #184]
   84338:	910823e0 	add	x0, sp, #0x208
   8433c:	97fff5b5 	bl	81a10 <seq>
   84340:	35000500 	cbnz	w0, 843e0 <vUartCmd+0x1030>
   84344:	f94067e1 	ldr	x1, [sp, #200]
   84348:	910823e0 	add	x0, sp, #0x208
   8434c:	97fff5b1 	bl	81a10 <seq>
   84350:	2a0003e5 	mov	w5, w0
   84354:	350007c0 	cbnz	w0, 8444c <vUartCmd+0x109c>
   84358:	f9406fe1 	ldr	x1, [sp, #216]
   8435c:	910823e0 	add	x0, sp, #0x208
   84360:	97fff5ac 	bl	81a10 <seq>
   84364:	2a0003e6 	mov	w6, w0
   84368:	35000500 	cbnz	w0, 84408 <vUartCmd+0x1058>
   8436c:	f94077e1 	ldr	x1, [sp, #232]
   84370:	910823e0 	add	x0, sp, #0x208
   84374:	97fff5a7 	bl	81a10 <seq>
   84378:	35000080 	cbnz	w0, 84388 <vUartCmd+0xfd8>
   8437c:	1400001e 	b	843f4 <vUartCmd+0x1044>
   84380:	1b1300c6 	madd	w6, w6, w19, w0
   84384:	f900f3e2 	str	x2, [sp, #480]
   84388:	f940f3e0 	ldr	x0, [sp, #480]
   8438c:	91000402 	add	x2, x0, #0x1
   84390:	39400000 	ldrb	w0, [x0]
   84394:	5100c000 	sub	w0, w0, #0x30
   84398:	12001c01 	and	w1, w0, #0xff
   8439c:	7100243f 	cmp	w1, #0x9
   843a0:	54ffff09 	b.ls	84380 <vUartCmd+0xfd0>  // b.plast
   843a4:	710000df 	cmp	w6, #0x0
   843a8:	f94057e2 	ldr	x2, [sp, #168]
   843ac:	1a9f07e1 	cset	w1, ne  // ne = any
   843b0:	f940bbe0 	ldr	x0, [sp, #368]
   843b4:	b9000441 	str	w1, [x2, #4]
   843b8:	9400026a 	bl	84d60 <uart_puts>
   843bc:	17fffd65 	b	83950 <vUartCmd+0x5a0>
   843c0:	5100c042 	sub	w2, w2, #0x30
   843c4:	12001c41 	and	w1, w2, #0xff
   843c8:	7100243f 	cmp	w1, #0x9
   843cc:	54ffea09 	b.ls	8410c <vUartCmd+0xd5c>  // b.plast
   843d0:	52800001 	mov	w1, #0x0                   	// #0
   843d4:	17ffff55 	b	84128 <vUartCmd+0xd78>
   843d8:	52800003 	mov	w3, #0x0                   	// #0
   843dc:	17ffff76 	b	841b4 <vUartCmd+0xe04>
   843e0:	f940afe0 	ldr	x0, [sp, #344]
   843e4:	52800021 	mov	w1, #0x1                   	// #1
   843e8:	b90006e1 	str	w1, [x23, #4]
   843ec:	9400025d 	bl	84d60 <uart_puts>
   843f0:	17fffd58 	b	83950 <vUartCmd+0x5a0>
   843f4:	f940bfe0 	ldr	x0, [sp, #376]
   843f8:	9400025a 	bl	84d60 <uart_puts>
   843fc:	17fffd55 	b	83950 <vUartCmd+0x5a0>
   84400:	1b1300a5 	madd	w5, w5, w19, w0
   84404:	f900f3e2 	str	x2, [sp, #480]
   84408:	f940f3e0 	ldr	x0, [sp, #480]
   8440c:	91000402 	add	x2, x0, #0x1
   84410:	39400000 	ldrb	w0, [x0]
   84414:	5100c000 	sub	w0, w0, #0x30
   84418:	12001c01 	and	w1, w0, #0xff
   8441c:	7100243f 	cmp	w1, #0x9
   84420:	54ffff09 	b.ls	84400 <vUartCmd+0x1050>  // b.plast
   84424:	710fa0bf 	cmp	w5, #0x3e8
   84428:	52807d00 	mov	w0, #0x3e8                 	// #1000
   8442c:	1a80d0a5 	csel	w5, w5, w0, le
   84430:	710000bf 	cmp	w5, #0x0
   84434:	f94057e1 	ldr	x1, [sp, #168]
   84438:	1a9fc4a5 	csinc	w5, w5, wzr, gt
   8443c:	f940b7e0 	ldr	x0, [sp, #360]
   84440:	b9000825 	str	w5, [x1, #8]
   84444:	94000247 	bl	84d60 <uart_puts>
   84448:	17fffd42 	b	83950 <vUartCmd+0x5a0>
   8444c:	f940b3e0 	ldr	x0, [sp, #352]
   84450:	b90006ff 	str	wzr, [x23, #4]
   84454:	94000243 	bl	84d60 <uart_puts>
   84458:	17fffd3e 	b	83950 <vUartCmd+0x5a0>
   8445c:	528000a0 	mov	w0, #0x5                   	// #5
   84460:	52800002 	mov	w2, #0x0                   	// #0
   84464:	b9020be0 	str	w0, [sp, #520]
   84468:	14000003 	b	84474 <vUartCmd+0x10c4>
   8446c:	1b130442 	madd	w2, w2, w19, w1
   84470:	f900f3e4 	str	x4, [sp, #480]
   84474:	f940f3e0 	ldr	x0, [sp, #480]
   84478:	91000404 	add	x4, x0, #0x1
   8447c:	39400001 	ldrb	w1, [x0]
   84480:	5100c021 	sub	w1, w1, #0x30
   84484:	12001c23 	and	w3, w1, #0xff
   84488:	7100247f 	cmp	w3, #0x9
   8448c:	54ffff09 	b.ls	8446c <vUartCmd+0x10bc>  // b.plast
   84490:	b9020fe2 	str	w2, [sp, #524]
   84494:	14000002 	b	8449c <vUartCmd+0x10ec>
   84498:	f900f3e1 	str	x1, [sp, #480]
   8449c:	39400002 	ldrb	w2, [x0]
   844a0:	91000401 	add	x1, x0, #0x1
   844a4:	aa0103e0 	mov	x0, x1
   844a8:	7100805f 	cmp	w2, #0x20
   844ac:	54ffff60 	b.eq	84498 <vUartCmd+0x10e8>  // b.none
   844b0:	910863e1 	add	x1, sp, #0x218
   844b4:	910783e0 	add	x0, sp, #0x1e0
   844b8:	52800ca2 	mov	w2, #0x65                  	// #101
   844bc:	97fff56d 	bl	81a70 <word>
   844c0:	14000002 	b	844c8 <vUartCmd+0x1118>
   844c4:	f900f3e2 	str	x2, [sp, #480]
   844c8:	f940f3e0 	ldr	x0, [sp, #480]
   844cc:	91000402 	add	x2, x0, #0x1
   844d0:	39400001 	ldrb	w1, [x0]
   844d4:	7100803f 	cmp	w1, #0x20
   844d8:	54ffff60 	b.eq	844c4 <vUartCmd+0x1114>  // b.none
   844dc:	52800001 	mov	w1, #0x0                   	// #0
   844e0:	14000004 	b	844f0 <vUartCmd+0x1140>
   844e4:	1b130c21 	madd	w1, w1, w19, w3
   844e8:	aa0403e0 	mov	x0, x4
   844ec:	f900f3e4 	str	x4, [sp, #480]
   844f0:	39400002 	ldrb	w2, [x0]
   844f4:	91000404 	add	x4, x0, #0x1
   844f8:	5100c043 	sub	w3, w2, #0x30
   844fc:	12001c65 	and	w5, w3, #0xff
   84500:	710024bf 	cmp	w5, #0x9
   84504:	54ffff09 	b.ls	844e4 <vUartCmd+0x1134>  // b.plast
   84508:	7100e85f 	cmp	w2, #0x3a
   8450c:	54001000 	b.eq	8470c <vUartCmd+0x135c>  // b.none
   84510:	b9420fe0 	ldr	w0, [sp, #524]
   84514:	7100141f 	cmp	w0, #0x5
   84518:	54ffb0e8 	b.hi	83b34 <vUartCmd+0x784>  // b.pmore
   8451c:	7100ed3f 	cmp	w9, #0x3b
   84520:	7a57d820 	ccmp	w1, #0x17, #0x0, le
   84524:	54ffb08c 	b.gt	83b34 <vUartCmd+0x784>
   84528:	f94116e0 	ldr	x0, [x23, #552]
   8452c:	52800782 	mov	w2, #0x3c                  	// #60
   84530:	d2800003 	mov	x3, #0x0                   	// #0
   84534:	1b022421 	madd	w1, w1, w2, w9
   84538:	d2800002 	mov	x2, #0x0                   	// #0
   8453c:	b90213e1 	str	w1, [sp, #528]
   84540:	910823e1 	add	x1, sp, #0x208
   84544:	94001c13 	bl	8b590 <xQueueGenericSend>
   84548:	17fffd02 	b	83950 <vUartCmd+0x5a0>
   8454c:	f940ebe0 	ldr	x0, [sp, #464]
   84550:	94000204 	bl	84d60 <uart_puts>
   84554:	17fffcff 	b	83950 <vUartCmd+0x5a0>
   84558:	910823e1 	add	x1, sp, #0x208
   8455c:	910783e0 	add	x0, sp, #0x1e0
   84560:	52800102 	mov	w2, #0x8                   	// #8
   84564:	97fff543 	bl	81a70 <word>
   84568:	f940dbe1 	ldr	x1, [sp, #432]
   8456c:	910823e0 	add	x0, sp, #0x208
   84570:	97fff528 	bl	81a10 <seq>
   84574:	34000c00 	cbz	w0, 846f4 <vUartCmd+0x1344>
   84578:	f940dfe0 	ldr	x0, [sp, #440]
   8457c:	52800021 	mov	w1, #0x1                   	// #1
   84580:	b90966e1 	str	w1, [x23, #2404]
   84584:	940001f7 	bl	84d60 <uart_puts>
   84588:	17fffcf2 	b	83950 <vUartCmd+0x5a0>
   8458c:	528000c1 	mov	w1, #0x6                   	// #6
   84590:	f94116e0 	ldr	x0, [x23, #552]
   84594:	17fffd8a 	b	83bbc <vUartCmd+0x80c>
   84598:	f94116e0 	ldr	x0, [x23, #552]
   8459c:	528000e4 	mov	w4, #0x7                   	// #7
   845a0:	910823e1 	add	x1, sp, #0x208
   845a4:	d2800003 	mov	x3, #0x0                   	// #0
   845a8:	d2800002 	mov	x2, #0x0                   	// #0
   845ac:	b9020be4 	str	w4, [sp, #520]
   845b0:	94001bf8 	bl	8b590 <xQueueGenericSend>
   845b4:	17fffce7 	b	83950 <vUartCmd+0x5a0>
   845b8:	9107e3e1 	add	x1, sp, #0x1f8
   845bc:	910783e0 	add	x0, sp, #0x1e0
   845c0:	52800202 	mov	w2, #0x10                  	// #16
   845c4:	97fff52b 	bl	81a70 <word>
   845c8:	14000002 	b	845d0 <vUartCmd+0x1220>
   845cc:	f900f3e2 	str	x2, [sp, #480]
   845d0:	f940f3e0 	ldr	x0, [sp, #480]
   845d4:	91000402 	add	x2, x0, #0x1
   845d8:	39400001 	ldrb	w1, [x0]
   845dc:	7100803f 	cmp	w1, #0x20
   845e0:	54ffff60 	b.eq	845cc <vUartCmd+0x121c>  // b.none
   845e4:	52800001 	mov	w1, #0x0                   	// #0
   845e8:	14000004 	b	845f8 <vUartCmd+0x1248>
   845ec:	1b130c21 	madd	w1, w1, w19, w3
   845f0:	aa0403e0 	mov	x0, x4
   845f4:	f900f3e4 	str	x4, [sp, #480]
   845f8:	39400002 	ldrb	w2, [x0]
   845fc:	91000404 	add	x4, x0, #0x1
   84600:	5100c043 	sub	w3, w2, #0x30
   84604:	12001c65 	and	w5, w3, #0xff
   84608:	710024bf 	cmp	w5, #0x9
   8460c:	54ffff09 	b.ls	845ec <vUartCmd+0x123c>  // b.plast
   84610:	7100e85f 	cmp	w2, #0x3a
   84614:	54000940 	b.eq	8473c <vUartCmd+0x138c>  // b.none
   84618:	7100ed1f 	cmp	w8, #0x3b
   8461c:	7a57d820 	ccmp	w1, #0x17, #0x0, le
   84620:	54ffa8ac 	b.gt	83b34 <vUartCmd+0x784>
   84624:	52800020 	mov	w0, #0x1                   	// #1
   84628:	d2800002 	mov	x2, #0x0                   	// #0
   8462c:	b9020be0 	str	w0, [sp, #520]
   84630:	14000002 	b	84638 <vUartCmd+0x1288>
   84634:	39003c83 	strb	w3, [x4, #15]
   84638:	9107e3e0 	add	x0, sp, #0x1f8
   8463c:	910823e4 	add	x4, sp, #0x208
   84640:	38626803 	ldrb	w3, [x0, x2]
   84644:	93407c40 	sxtw	x0, w2
   84648:	91000442 	add	x2, x2, #0x1
   8464c:	8b020084 	add	x4, x4, x2
   84650:	35ffff23 	cbnz	w3, 84634 <vUartCmd+0x1284>
   84654:	f940efe5 	ldr	x5, [sp, #472]
   84658:	52800403 	mov	w3, #0x20                  	// #32
   8465c:	910823e2 	add	x2, sp, #0x208
   84660:	11000409 	add	w9, w0, #0x1
   84664:	8b000044 	add	x4, x2, x0
   84668:	2a0003e2 	mov	w2, w0
   8466c:	91000400 	add	x0, x0, #0x1
   84670:	39004083 	strb	w3, [x4, #16]
   84674:	38401ca3 	ldrb	w3, [x5, #1]!
   84678:	35ffff23 	cbnz	w3, 8465c <vUartCmd+0x12ac>
   8467c:	1ad30824 	udiv	w4, w1, w19
   84680:	11000847 	add	w7, w2, #0x2
   84684:	11000c45 	add	w5, w2, #0x3
   84688:	11001046 	add	w6, w2, #0x4
   8468c:	1ad30903 	udiv	w3, w8, w19
   84690:	1b138480 	msub	w0, w4, w19, w1
   84694:	910863e1 	add	x1, sp, #0x218
   84698:	1100c084 	add	w4, w4, #0x30
   8469c:	1100c000 	add	w0, w0, #0x30
   846a0:	3829c824 	strb	w4, [x1, w9, sxtw]
   846a4:	910863e4 	add	x4, sp, #0x218
   846a8:	3827c820 	strb	w0, [x1, w7, sxtw]
   846ac:	52800740 	mov	w0, #0x3a                  	// #58
   846b0:	1b13a061 	msub	w1, w3, w19, w8
   846b4:	1100c063 	add	w3, w3, #0x30
   846b8:	3825c880 	strb	w0, [x4, w5, sxtw]
   846bc:	11001445 	add	w5, w2, #0x5
   846c0:	11001844 	add	w4, w2, #0x6
   846c4:	910863e2 	add	x2, sp, #0x218
   846c8:	1100c021 	add	w1, w1, #0x30
   846cc:	f94116e0 	ldr	x0, [x23, #552]
   846d0:	3826c843 	strb	w3, [x2, w6, sxtw]
   846d4:	3825c841 	strb	w1, [x2, w5, sxtw]
   846d8:	910863e5 	add	x5, sp, #0x218
   846dc:	910823e1 	add	x1, sp, #0x208
   846e0:	d2800003 	mov	x3, #0x0                   	// #0
   846e4:	d2800002 	mov	x2, #0x0                   	// #0
   846e8:	3824c8bf 	strb	wzr, [x5, w4, sxtw]
   846ec:	94001ba9 	bl	8b590 <xQueueGenericSend>
   846f0:	17fffc98 	b	83950 <vUartCmd+0x5a0>
   846f4:	f940e3e0 	ldr	x0, [sp, #448]
   846f8:	b90966ff 	str	wzr, [x23, #2404]
   846fc:	94000199 	bl	84d60 <uart_puts>
   84700:	f9403be0 	ldr	x0, [sp, #112]
   84704:	94000197 	bl	84d60 <uart_puts>
   84708:	17fffc92 	b	83950 <vUartCmd+0x5a0>
   8470c:	f900f3e4 	str	x4, [sp, #480]
   84710:	14000003 	b	8471c <vUartCmd+0x136c>
   84714:	1b130129 	madd	w9, w9, w19, w0
   84718:	f900f3e3 	str	x3, [sp, #480]
   8471c:	f940f3e0 	ldr	x0, [sp, #480]
   84720:	91000403 	add	x3, x0, #0x1
   84724:	39400000 	ldrb	w0, [x0]
   84728:	5100c000 	sub	w0, w0, #0x30
   8472c:	12001c02 	and	w2, w0, #0xff
   84730:	7100245f 	cmp	w2, #0x9
   84734:	54ffff09 	b.ls	84714 <vUartCmd+0x1364>  // b.plast
   84738:	17ffff76 	b	84510 <vUartCmd+0x1160>
   8473c:	f900f3e4 	str	x4, [sp, #480]
   84740:	14000003 	b	8474c <vUartCmd+0x139c>
   84744:	1b130108 	madd	w8, w8, w19, w0
   84748:	f900f3e3 	str	x3, [sp, #480]
   8474c:	f940f3e0 	ldr	x0, [sp, #480]
   84750:	91000403 	add	x3, x0, #0x1
   84754:	39400000 	ldrb	w0, [x0]
   84758:	5100c000 	sub	w0, w0, #0x30
   8475c:	12001c02 	and	w2, w0, #0xff
   84760:	7100245f 	cmp	w2, #0x9
   84764:	54ffff09 	b.ls	84744 <vUartCmd+0x1394>  // b.plast
   84768:	17ffffac 	b	84618 <vUartCmd+0x1268>
   8476c:	52800001 	mov	w1, #0x0                   	// #0
   84770:	17fffe74 	b	84140 <vUartCmd+0xd90>
   84774:	5100c043 	sub	w3, w2, #0x30
   84778:	12001c63 	and	w3, w3, #0xff
   8477c:	7100247f 	cmp	w3, #0x9
   84780:	54ffc229 	b.ls	83fc4 <vUartCmd+0xc14>  // b.plast
   84784:	52800002 	mov	w2, #0x0                   	// #0
   84788:	52800003 	mov	w3, #0x0                   	// #0
   8478c:	17fffe27 	b	84028 <vUartCmd+0xc78>
   84790:	f9409be0 	ldr	x0, [sp, #304]
   84794:	b9000aff 	str	wzr, [x23, #8]
   84798:	94000172 	bl	84d60 <uart_puts>
   8479c:	17fffc6d 	b	83950 <vUartCmd+0x5a0>
   847a0:	1b1300c6 	madd	w6, w6, w19, w0
   847a4:	f900f3e2 	str	x2, [sp, #480]
   847a8:	f940f3e0 	ldr	x0, [sp, #480]
   847ac:	91000402 	add	x2, x0, #0x1
   847b0:	39400000 	ldrb	w0, [x0]
   847b4:	5100c000 	sub	w0, w0, #0x30
   847b8:	12001c01 	and	w1, w0, #0xff
   847bc:	7100243f 	cmp	w1, #0x9
   847c0:	54ffff09 	b.ls	847a0 <vUartCmd+0x13f0>  // b.plast
   847c4:	710000df 	cmp	w6, #0x0
   847c8:	f94057e2 	ldr	x2, [sp, #168]
   847cc:	1a9f07e1 	cset	w1, ne  // ne = any
   847d0:	f940a3e0 	ldr	x0, [sp, #320]
   847d4:	b9001441 	str	w1, [x2, #20]
   847d8:	94000162 	bl	84d60 <uart_puts>
   847dc:	17fffc5d 	b	83950 <vUartCmd+0x5a0>
   847e0:	1b1300a5 	madd	w5, w5, w19, w0
   847e4:	f900f3e2 	str	x2, [sp, #480]
   847e8:	f940f3e0 	ldr	x0, [sp, #480]
   847ec:	91000402 	add	x2, x0, #0x1
   847f0:	39400000 	ldrb	w0, [x0]
   847f4:	5100c000 	sub	w0, w0, #0x30
   847f8:	12001c01 	and	w1, w0, #0xff
   847fc:	7100243f 	cmp	w1, #0x9
   84800:	54ffff09 	b.ls	847e0 <vUartCmd+0x1430>  // b.plast
   84804:	710078bf 	cmp	w5, #0x1e
   84808:	528003c0 	mov	w0, #0x1e                  	// #30
   8480c:	1a80d0a5 	csel	w5, w5, w0, le
   84810:	710000bf 	cmp	w5, #0x0
   84814:	f94057e1 	ldr	x1, [sp, #168]
   84818:	1a9fc4a5 	csinc	w5, w5, wzr, gt
   8481c:	f9409fe0 	ldr	x0, [sp, #312]
   84820:	b9001025 	str	w5, [x1, #16]
   84824:	9400014f 	bl	84d60 <uart_puts>
   84828:	17fffc4a 	b	83950 <vUartCmd+0x5a0>
   8482c:	f94097e0 	ldr	x0, [sp, #296]
   84830:	52800021 	mov	w1, #0x1                   	// #1
   84834:	b9000ae1 	str	w1, [x23, #8]
   84838:	9400014a 	bl	84d60 <uart_puts>
   8483c:	17fffc45 	b	83950 <vUartCmd+0x5a0>
   84840:	52800002 	mov	w2, #0x0                   	// #0
   84844:	17fffde8 	b	83fe4 <vUartCmd+0xc34>
   84848:	52800001 	mov	w1, #0x0                   	// #0
   8484c:	17fffe18 	b	840ac <vUartCmd+0xcfc>

0000000000084850 <irq_handler>:
   84850:	d65f03c0 	ret
   84854:	d503201f 	nop
   84858:	d503201f 	nop
   8485c:	d503201f 	nop

0000000000084860 <vApplicationIdleHook>:
   84860:	d65f03c0 	ret
   84864:	d503201f 	nop
   84868:	d503201f 	nop
   8486c:	d503201f 	nop

0000000000084870 <vApplicationTickHook>:
   84870:	d65f03c0 	ret
   84874:	d503201f 	nop
   84878:	d503201f 	nop
   8487c:	d503201f 	nop

0000000000084880 <vApplicationStackOverflowHook>:
   84880:	a9be7bfd 	stp	x29, x30, [sp, #-32]!
   84884:	d0000040 	adrp	x0, 8e000 <sc_scope_draw+0x570>
   84888:	910ea000 	add	x0, x0, #0x3a8
   8488c:	910003fd 	mov	x29, sp
   84890:	f9000bf3 	str	x19, [sp, #16]
   84894:	aa0103f3 	mov	x19, x1
   84898:	94000132 	bl	84d60 <uart_puts>
   8489c:	aa1303e0 	mov	x0, x19
   848a0:	94000130 	bl	84d60 <uart_puts>
   848a4:	d0000040 	adrp	x0, 8e000 <sc_scope_draw+0x570>
   848a8:	9100a000 	add	x0, x0, #0x28
   848ac:	9400012d 	bl	84d60 <uart_puts>
   848b0:	14000000 	b	848b0 <vApplicationStackOverflowHook+0x30>
   848b4:	d503201f 	nop
   848b8:	d503201f 	nop
   848bc:	d503201f 	nop

00000000000848c0 <vApplicationMallocFailedHook>:
   848c0:	a9bf7bfd 	stp	x29, x30, [sp, #-16]!
   848c4:	d0000040 	adrp	x0, 8e000 <sc_scope_draw+0x570>
   848c8:	910ee000 	add	x0, x0, #0x3b8
   848cc:	910003fd 	mov	x29, sp
   848d0:	94000124 	bl	84d60 <uart_puts>
   848d4:	14000000 	b	848d4 <vApplicationMallocFailedHook+0x14>
	...

00000000000848e0 <main>:
   848e0:	a9be7bfd 	stp	x29, x30, [sp, #-32]!
   848e4:	910003fd 	mov	x29, sp
   848e8:	f9000bf3 	str	x19, [sp, #16]
   848ec:	940000e5 	bl	84c80 <uart_init>
   848f0:	d0000040 	adrp	x0, 8e000 <sc_scope_draw+0x570>
   848f4:	910c4000 	add	x0, x0, #0x310
   848f8:	9400011a 	bl	84d60 <uart_puts>
   848fc:	f0000053 	adrp	x19, 8f000 <g_msg+0x18>
   84900:	9106c273 	add	x19, x19, #0x1b0
   84904:	52800021 	mov	w1, #0x1                   	// #1
   84908:	52800220 	mov	w0, #0x11                  	// #17
   8490c:	9400009d 	bl	84b80 <gpio_set_function>
   84910:	52800021 	mov	w1, #0x1                   	// #1
   84914:	52800360 	mov	w0, #0x1b                  	// #27
   84918:	9400009a 	bl	84b80 <gpio_set_function>
   8491c:	52800021 	mov	w1, #0x1                   	// #1
   84920:	528002c0 	mov	w0, #0x16                  	// #22
   84924:	94000097 	bl	84b80 <gpio_set_function>
   84928:	52a10840 	mov	w0, #0x8420000             	// #138543104
   8492c:	940000c5 	bl	84c40 <gpio_clear>
   84930:	9400021c 	bl	851a0 <tm1637_init>
   84934:	940002d7 	bl	85490 <max_init>
   84938:	52800020 	mov	w0, #0x1                   	// #1
   8493c:	94001b81 	bl	8b740 <xQueueCreateMutex>
   84940:	f9011a60 	str	x0, [x19, #560]
   84944:	940010ef 	bl	88d00 <servo_init>
   84948:	52800002 	mov	w2, #0x0                   	// #0
   8494c:	d2800f01 	mov	x1, #0x78                  	// #120
   84950:	d2800100 	mov	x0, #0x8                   	// #8
   84954:	94001abf 	bl	8b450 <xQueueGenericCreate>
   84958:	f9011660 	str	x0, [x19, #552]
   8495c:	b4000840 	cbz	x0, 84a64 <main+0x184>
   84960:	d2800005 	mov	x5, #0x0                   	// #0
   84964:	d2800044 	mov	x4, #0x2                   	// #2
   84968:	d2800003 	mov	x3, #0x0                   	// #0
   8496c:	52808002 	mov	w2, #0x400                 	// #1024
   84970:	d0000041 	adrp	x1, 8e000 <sc_scope_draw+0x570>
   84974:	d0ffffe0 	adrp	x0, 82000 <vSweep+0x10>
   84978:	910e0021 	add	x1, x1, #0x380
   8497c:	9103c000 	add	x0, x0, #0xf0
   84980:	940014b8 	bl	89c60 <xTaskCreate>
   84984:	d2800005 	mov	x5, #0x0                   	// #0
   84988:	d2800064 	mov	x4, #0x3                   	// #3
   8498c:	d2800003 	mov	x3, #0x0                   	// #0
   84990:	52808002 	mov	w2, #0x400                 	// #1024
   84994:	d0000041 	adrp	x1, 8e000 <sc_scope_draw+0x570>
   84998:	f0ffffe0 	adrp	x0, 83000 <vHdmi+0x4e0>
   8499c:	910e2021 	add	x1, x1, #0x388
   849a0:	910ec000 	add	x0, x0, #0x3b0
   849a4:	940014af 	bl	89c60 <xTaskCreate>
   849a8:	d2800005 	mov	x5, #0x0                   	// #0
   849ac:	d2800024 	mov	x4, #0x1                   	// #1
   849b0:	d2800003 	mov	x3, #0x0                   	// #0
   849b4:	52804002 	mov	w2, #0x200                 	// #512
   849b8:	d0000041 	adrp	x1, 8e000 <sc_scope_draw+0x570>
   849bc:	b0ffffe0 	adrp	x0, 81000 <_freertos_vector_table>
   849c0:	910e4021 	add	x1, x1, #0x390
   849c4:	913fc000 	add	x0, x0, #0xff0
   849c8:	940014a6 	bl	89c60 <xTaskCreate>
   849cc:	d2800005 	mov	x5, #0x0                   	// #0
   849d0:	d2800024 	mov	x4, #0x1                   	// #1
   849d4:	d2800003 	mov	x3, #0x0                   	// #0
   849d8:	52808002 	mov	w2, #0x400                 	// #1024
   849dc:	d0000041 	adrp	x1, 8e000 <sc_scope_draw+0x570>
   849e0:	d0ffffe0 	adrp	x0, 82000 <vSweep+0x10>
   849e4:	910e6021 	add	x1, x1, #0x398
   849e8:	912c8000 	add	x0, x0, #0xb20
   849ec:	9400149d 	bl	89c60 <xTaskCreate>
   849f0:	d2800005 	mov	x5, #0x0                   	// #0
   849f4:	d2800024 	mov	x4, #0x1                   	// #1
   849f8:	d2800003 	mov	x3, #0x0                   	// #0
   849fc:	52804002 	mov	w2, #0x200                 	// #512
   84a00:	d0000041 	adrp	x1, 8e000 <sc_scope_draw+0x570>
   84a04:	b0ffffe0 	adrp	x0, 81000 <_freertos_vector_table>
   84a08:	9106c021 	add	x1, x1, #0x1b0
   84a0c:	9137c000 	add	x0, x0, #0xdf0
   84a10:	94001494 	bl	89c60 <xTaskCreate>
   84a14:	d2800005 	mov	x5, #0x0                   	// #0
   84a18:	d2800024 	mov	x4, #0x1                   	// #1
   84a1c:	d2800003 	mov	x3, #0x0                   	// #0
   84a20:	52804002 	mov	w2, #0x200                 	// #512
   84a24:	d0000041 	adrp	x1, 8e000 <sc_scope_draw+0x570>
   84a28:	b0ffffe0 	adrp	x0, 81000 <_freertos_vector_table>
   84a2c:	91086021 	add	x1, x1, #0x218
   84a30:	9134c000 	add	x0, x0, #0xd30
   84a34:	9400148b 	bl	89c60 <xTaskCreate>
   84a38:	d0000041 	adrp	x1, 8e000 <sc_scope_draw+0x570>
   84a3c:	910e8021 	add	x1, x1, #0x3a0
   84a40:	d2800005 	mov	x5, #0x0                   	// #0
   84a44:	d2800024 	mov	x4, #0x1                   	// #1
   84a48:	d2800003 	mov	x3, #0x0                   	// #0
   84a4c:	52804002 	mov	w2, #0x200                 	// #512
   84a50:	b0ffffe0 	adrp	x0, 81000 <_freertos_vector_table>
   84a54:	91320000 	add	x0, x0, #0xc80
   84a58:	94001482 	bl	89c60 <xTaskCreate>
   84a5c:	94001559 	bl	89fc0 <vTaskStartScheduler>
   84a60:	14000000 	b	84a60 <main+0x180>
   84a64:	d0000040 	adrp	x0, 8e000 <sc_scope_draw+0x570>
   84a68:	910da000 	add	x0, x0, #0x368
   84a6c:	940000bd 	bl	84d60 <uart_puts>
   84a70:	14000000 	b	84a70 <main+0x190>
	...

0000000000084a80 <delay>:
   84a80:	d10043ff 	sub	sp, sp, #0x10
   84a84:	b9000fe0 	str	w0, [sp, #12]
   84a88:	b9400fe0 	ldr	w0, [sp, #12]
   84a8c:	51000401 	sub	w1, w0, #0x1
   84a90:	b9000fe1 	str	w1, [sp, #12]
   84a94:	340000c0 	cbz	w0, 84aac <delay+0x2c>
   84a98:	d503201f 	nop
   84a9c:	b9400fe0 	ldr	w0, [sp, #12]
   84aa0:	51000401 	sub	w1, w0, #0x1
   84aa4:	b9000fe1 	str	w1, [sp, #12]
   84aa8:	35ffff80 	cbnz	w0, 84a98 <delay+0x18>
   84aac:	910043ff 	add	sp, sp, #0x10
   84ab0:	d65f03c0 	ret
   84ab4:	d503201f 	nop
   84ab8:	d503201f 	nop
   84abc:	d503201f 	nop

0000000000084ac0 <sys_us>:
   84ac0:	d2860101 	mov	x1, #0x3008                	// #12296
   84ac4:	f2a7e001 	movk	x1, #0x3f00, lsl #16
   84ac8:	d2860084 	mov	x4, #0x3004                	// #12292
   84acc:	f2a7e004 	movk	x4, #0x3f00, lsl #16
   84ad0:	b9400020 	ldr	w0, [x1]
   84ad4:	b9400083 	ldr	w3, [x4]
   84ad8:	b9400022 	ldr	w2, [x1]
   84adc:	6b02001f 	cmp	w0, w2
   84ae0:	54ffff81 	b.ne	84ad0 <sys_us+0x10>  // b.any
   84ae4:	2a0303e3 	mov	w3, w3
   84ae8:	aa008060 	orr	x0, x3, x0, lsl #32
   84aec:	d65f03c0 	ret

0000000000084af0 <delay_us>:
   84af0:	d2860102 	mov	x2, #0x3008                	// #12296
   84af4:	f2a7e002 	movk	x2, #0x3f00, lsl #16
   84af8:	d2860085 	mov	x5, #0x3004                	// #12292
   84afc:	f2a7e005 	movk	x5, #0x3f00, lsl #16
   84b00:	b9400041 	ldr	w1, [x2]
   84b04:	b94000a4 	ldr	w4, [x5]
   84b08:	b9400043 	ldr	w3, [x2]
   84b0c:	6b03003f 	cmp	w1, w3
   84b10:	54ffff81 	b.ne	84b00 <delay_us+0x10>  // b.any
   84b14:	52801902 	mov	w2, #0xc8                  	// #200
   84b18:	5290d405 	mov	w5, #0x86a0                	// #34464
   84b1c:	72a00025 	movk	w5, #0x1, lsl #16
   84b20:	2a0403e4 	mov	w4, w4
   84b24:	2a0003e7 	mov	w7, w0
   84b28:	aa018086 	orr	x6, x4, x1, lsl #32
   84b2c:	1b021405 	madd	w5, w0, w2, w5
   84b30:	d2860101 	mov	x1, #0x3008                	// #12296
   84b34:	f2a7e001 	movk	x1, #0x3f00, lsl #16
   84b38:	d2860084 	mov	x4, #0x3004                	// #12292
   84b3c:	f2a7e004 	movk	x4, #0x3f00, lsl #16
   84b40:	b9400020 	ldr	w0, [x1]
   84b44:	b9400083 	ldr	w3, [x4]
   84b48:	b9400022 	ldr	w2, [x1]
   84b4c:	6b02001f 	cmp	w0, w2
   84b50:	54ffff81 	b.ne	84b40 <delay_us+0x50>  // b.any
   84b54:	2a0303e3 	mov	w3, w3
   84b58:	aa008060 	orr	x0, x3, x0, lsl #32
   84b5c:	cb060000 	sub	x0, x0, x6
   84b60:	eb07001f 	cmp	x0, x7
   84b64:	54000062 	b.cs	84b70 <delay_us+0x80>  // b.hs, b.nlast
   84b68:	710004a5 	subs	w5, w5, #0x1
   84b6c:	54fffea1 	b.ne	84b40 <delay_us+0x50>  // b.any
   84b70:	d65f03c0 	ret
	...

0000000000084b80 <gpio_set_function>:
   84b80:	529999a2 	mov	w2, #0xcccd                	// #52429
   84b84:	72b99982 	movk	w2, #0xcccc, lsl #16
   84b88:	52800146 	mov	w6, #0xa                   	// #10
   84b8c:	d2a7e404 	mov	x4, #0x3f200000            	// #1059061760
   84b90:	9ba27c02 	umull	x2, w0, w2
   84b94:	528000e3 	mov	w3, #0x7                   	// #7
   84b98:	d363fc42 	lsr	x2, x2, #35
   84b9c:	2a0203e5 	mov	w5, w2
   84ba0:	1b068040 	msub	w0, w2, w6, w0
   84ba4:	b8657886 	ldr	w6, [x4, x5, lsl #2]
   84ba8:	0b000400 	add	w0, w0, w0, lsl #1
   84bac:	1ac02062 	lsl	w2, w3, w0
   84bb0:	0a2200c2 	bic	w2, w6, w2
   84bb4:	1ac02020 	lsl	w0, w1, w0
   84bb8:	2a020000 	orr	w0, w0, w2
   84bbc:	b8257880 	str	w0, [x4, x5, lsl #2]
   84bc0:	d65f03c0 	ret
   84bc4:	d503201f 	nop
   84bc8:	d503201f 	nop
   84bcc:	d503201f 	nop

0000000000084bd0 <gpio_set_pull>:
   84bd0:	a9bd7bfd 	stp	x29, x30, [sp, #-48]!
   84bd4:	910003fd 	mov	x29, sp
   84bd8:	f90013f5 	str	x21, [sp, #32]
   84bdc:	d2801295 	mov	x21, #0x94                  	// #148
   84be0:	f2a7e415 	movk	x21, #0x3f20, lsl #16
   84be4:	a90153f3 	stp	x19, x20, [sp, #16]
   84be8:	2a0003f3 	mov	w19, w0
   84bec:	b90002a1 	str	w1, [x21]
   84bf0:	528000a0 	mov	w0, #0x5                   	// #5
   84bf4:	d2801314 	mov	x20, #0x98                  	// #152
   84bf8:	f2a7e414 	movk	x20, #0x3f20, lsl #16
   84bfc:	97ffffbd 	bl	84af0 <delay_us>
   84c00:	52800021 	mov	w1, #0x1                   	// #1
   84c04:	1ad32020 	lsl	w0, w1, w19
   84c08:	b9000280 	str	w0, [x20]
   84c0c:	528000a0 	mov	w0, #0x5                   	// #5
   84c10:	97ffffb8 	bl	84af0 <delay_us>
   84c14:	b90002bf 	str	wzr, [x21]
   84c18:	f94013f5 	ldr	x21, [sp, #32]
   84c1c:	b900029f 	str	wzr, [x20]
   84c20:	a94153f3 	ldp	x19, x20, [sp, #16]
   84c24:	a8c37bfd 	ldp	x29, x30, [sp], #48
   84c28:	d65f03c0 	ret
   84c2c:	d503201f 	nop

0000000000084c30 <gpio_set>:
   84c30:	d2800381 	mov	x1, #0x1c                  	// #28
   84c34:	f2a7e401 	movk	x1, #0x3f20, lsl #16
   84c38:	b9000020 	str	w0, [x1]
   84c3c:	d65f03c0 	ret

0000000000084c40 <gpio_clear>:
   84c40:	d2800501 	mov	x1, #0x28                  	// #40
   84c44:	f2a7e401 	movk	x1, #0x3f20, lsl #16
   84c48:	b9000020 	str	w0, [x1]
   84c4c:	d65f03c0 	ret

0000000000084c50 <gpio_read>:
   84c50:	d2800681 	mov	x1, #0x34                  	// #52
   84c54:	f2a7e401 	movk	x1, #0x3f20, lsl #16
   84c58:	b9400021 	ldr	w1, [x1]
   84c5c:	1ac02420 	lsr	w0, w1, w0
   84c60:	12000000 	and	w0, w0, #0x1
   84c64:	d65f03c0 	ret
   84c68:	d503201f 	nop
   84c6c:	d503201f 	nop

0000000000084c70 <gpio_level0>:
   84c70:	d2800680 	mov	x0, #0x34                  	// #52
   84c74:	f2a7e400 	movk	x0, #0x3f20, lsl #16
   84c78:	b9400000 	ldr	w0, [x0]
   84c7c:	d65f03c0 	ret

0000000000084c80 <uart_init>:
   84c80:	a9be7bfd 	stp	x29, x30, [sp, #-32]!
   84c84:	52800081 	mov	w1, #0x4                   	// #4
   84c88:	528001c0 	mov	w0, #0xe                   	// #14
   84c8c:	910003fd 	mov	x29, sp
   84c90:	f9000bf3 	str	x19, [sp, #16]
   84c94:	d2820613 	mov	x19, #0x1030                	// #4144
   84c98:	f2a7e413 	movk	x19, #0x3f20, lsl #16
   84c9c:	b900027f 	str	wzr, [x19]
   84ca0:	97ffffb8 	bl	84b80 <gpio_set_function>
   84ca4:	52800081 	mov	w1, #0x4                   	// #4
   84ca8:	528001e0 	mov	w0, #0xf                   	// #15
   84cac:	97ffffb5 	bl	84b80 <gpio_set_function>
   84cb0:	d2820880 	mov	x0, #0x1044                	// #4164
   84cb4:	f2a7e400 	movk	x0, #0x3f20, lsl #16
   84cb8:	d2820482 	mov	x2, #0x1024                	// #4132
   84cbc:	f2a7e402 	movk	x2, #0x3f20, lsl #16
   84cc0:	5280ffe3 	mov	w3, #0x7ff                 	// #2047
   84cc4:	d2820501 	mov	x1, #0x1028                	// #4136
   84cc8:	f2a7e401 	movk	x1, #0x3f20, lsl #16
   84ccc:	b9000003 	str	w3, [x0]
   84cd0:	52800343 	mov	w3, #0x1a                  	// #26
   84cd4:	b9000043 	str	w3, [x2]
   84cd8:	52800062 	mov	w2, #0x3                   	// #3
   84cdc:	b9000022 	str	w2, [x1]
   84ce0:	52800e01 	mov	w1, #0x70                  	// #112
   84ce4:	b81e8001 	stur	w1, [x0, #-24]
   84ce8:	52806020 	mov	w0, #0x301                 	// #769
   84cec:	b9000260 	str	w0, [x19]
   84cf0:	f9400bf3 	ldr	x19, [sp, #16]
   84cf4:	a8c27bfd 	ldp	x29, x30, [sp], #32
   84cf8:	d65f03c0 	ret
   84cfc:	d503201f 	nop

0000000000084d00 <uart_getc_nb>:
   84d00:	d2820300 	mov	x0, #0x1018                	// #4120
   84d04:	f2a7e400 	movk	x0, #0x3f20, lsl #16
   84d08:	b9400000 	ldr	w0, [x0]
   84d0c:	372000c0 	tbnz	w0, #4, 84d24 <uart_getc_nb+0x24>
   84d10:	d2820000 	mov	x0, #0x1000                	// #4096
   84d14:	f2a7e400 	movk	x0, #0x3f20, lsl #16
   84d18:	b9400000 	ldr	w0, [x0]
   84d1c:	12001c00 	and	w0, w0, #0xff
   84d20:	d65f03c0 	ret
   84d24:	12800000 	mov	w0, #0xffffffff            	// #-1
   84d28:	d65f03c0 	ret
   84d2c:	d503201f 	nop

0000000000084d30 <uart_putc>:
   84d30:	12001c00 	and	w0, w0, #0xff
   84d34:	d2820302 	mov	x2, #0x1018                	// #4120
   84d38:	f2a7e402 	movk	x2, #0x3f20, lsl #16
   84d3c:	d503201f 	nop
   84d40:	b9400041 	ldr	w1, [x2]
   84d44:	372fffe1 	tbnz	w1, #5, 84d40 <uart_putc+0x10>
   84d48:	d2820001 	mov	x1, #0x1000                	// #4096
   84d4c:	f2a7e401 	movk	x1, #0x3f20, lsl #16
   84d50:	b9000020 	str	w0, [x1]
   84d54:	d65f03c0 	ret
   84d58:	d503201f 	nop
   84d5c:	d503201f 	nop

0000000000084d60 <uart_puts>:
   84d60:	39400003 	ldrb	w3, [x0]
   84d64:	34000183 	cbz	w3, 84d94 <uart_puts+0x34>
   84d68:	d2820302 	mov	x2, #0x1018                	// #4120
   84d6c:	f2a7e402 	movk	x2, #0x3f20, lsl #16
   84d70:	d2820004 	mov	x4, #0x1000                	// #4096
   84d74:	f2a7e404 	movk	x4, #0x3f20, lsl #16
   84d78:	91000400 	add	x0, x0, #0x1
   84d7c:	d503201f 	nop
   84d80:	b9400041 	ldr	w1, [x2]
   84d84:	372fffe1 	tbnz	w1, #5, 84d80 <uart_puts+0x20>
   84d88:	b9000083 	str	w3, [x4]
   84d8c:	39400003 	ldrb	w3, [x0]
   84d90:	35ffff43 	cbnz	w3, 84d78 <uart_puts+0x18>
   84d94:	d65f03c0 	ret
	...

0000000000084da0 <spi_init>:
   84da0:	a9bf7bfd 	stp	x29, x30, [sp, #-16]!
   84da4:	52800081 	mov	w1, #0x4                   	// #4
   84da8:	528000e0 	mov	w0, #0x7                   	// #7
   84dac:	910003fd 	mov	x29, sp
   84db0:	97ffff74 	bl	84b80 <gpio_set_function>
   84db4:	52800081 	mov	w1, #0x4                   	// #4
   84db8:	52800100 	mov	w0, #0x8                   	// #8
   84dbc:	97ffff71 	bl	84b80 <gpio_set_function>
   84dc0:	52800081 	mov	w1, #0x4                   	// #4
   84dc4:	52800120 	mov	w0, #0x9                   	// #9
   84dc8:	97ffff6e 	bl	84b80 <gpio_set_function>
   84dcc:	52800081 	mov	w1, #0x4                   	// #4
   84dd0:	52800140 	mov	w0, #0xa                   	// #10
   84dd4:	97ffff6b 	bl	84b80 <gpio_set_function>
   84dd8:	52800081 	mov	w1, #0x4                   	// #4
   84ddc:	52800160 	mov	w0, #0xb                   	// #11
   84de0:	97ffff68 	bl	84b80 <gpio_set_function>
   84de4:	d2880001 	mov	x1, #0x4000                	// #16384
   84de8:	f2a7e401 	movk	x1, #0x3f20, lsl #16
   84dec:	d2880100 	mov	x0, #0x4008                	// #16392
   84df0:	f2a7e400 	movk	x0, #0x3f20, lsl #16
   84df4:	52800602 	mov	w2, #0x30                  	// #48
   84df8:	b9000022 	str	w2, [x1]
   84dfc:	52802001 	mov	w1, #0x100                 	// #256
   84e00:	b9000001 	str	w1, [x0]
   84e04:	a8c17bfd 	ldp	x29, x30, [sp], #16
   84e08:	d65f03c0 	ret
   84e0c:	d503201f 	nop

0000000000084e10 <spi_write>:
   84e10:	d2880002 	mov	x2, #0x4000                	// #16384
   84e14:	f2a7e402 	movk	x2, #0x3f20, lsl #16
   84e18:	52800604 	mov	w4, #0x30                  	// #48
   84e1c:	52801003 	mov	w3, #0x80                  	// #128
   84e20:	b9000044 	str	w4, [x2]
   84e24:	7100003f 	cmp	w1, #0x0
   84e28:	b9000043 	str	w3, [x2]
   84e2c:	5400036d 	b.le	84e98 <spi_write+0x88>
   84e30:	51000421 	sub	w1, w1, #0x1
   84e34:	91000405 	add	x5, x0, #0x1
   84e38:	aa0003e4 	mov	x4, x0
   84e3c:	8b0100a5 	add	x5, x5, x1
   84e40:	d2880083 	mov	x3, #0x4004                	// #16388
   84e44:	f2a7e403 	movk	x3, #0x3f20, lsl #16
   84e48:	52801900 	mov	w0, #0xc8                  	// #200
   84e4c:	14000003 	b	84e58 <spi_write+0x48>
   84e50:	71000400 	subs	w0, w0, #0x1
   84e54:	54000060 	b.eq	84e60 <spi_write+0x50>  // b.none
   84e58:	b9400041 	ldr	w1, [x2]
   84e5c:	3697ffa1 	tbz	w1, #18, 84e50 <spi_write+0x40>
   84e60:	39400080 	ldrb	w0, [x4]
   84e64:	b9000060 	str	w0, [x3]
   84e68:	b9400040 	ldr	w0, [x2]
   84e6c:	36880100 	tbz	w0, #17, 84e8c <spi_write+0x7c>
   84e70:	528018e0 	mov	w0, #0xc7                  	// #199
   84e74:	14000003 	b	84e80 <spi_write+0x70>
   84e78:	71000400 	subs	w0, w0, #0x1
   84e7c:	54000080 	b.eq	84e8c <spi_write+0x7c>  // b.none
   84e80:	b9400061 	ldr	w1, [x3]
   84e84:	b9400041 	ldr	w1, [x2]
   84e88:	378fff81 	tbnz	w1, #17, 84e78 <spi_write+0x68>
   84e8c:	91000484 	add	x4, x4, #0x1
   84e90:	eb05009f 	cmp	x4, x5
   84e94:	54fffda1 	b.ne	84e48 <spi_write+0x38>  // b.any
   84e98:	d2880002 	mov	x2, #0x4000                	// #16384
   84e9c:	f2a7e402 	movk	x2, #0x3f20, lsl #16
   84ea0:	5289c400 	mov	w0, #0x4e20                	// #20000
   84ea4:	14000003 	b	84eb0 <spi_write+0xa0>
   84ea8:	71000400 	subs	w0, w0, #0x1
   84eac:	54000060 	b.eq	84eb8 <spi_write+0xa8>  // b.none
   84eb0:	b9400041 	ldr	w1, [x2]
   84eb4:	3687ffa1 	tbz	w1, #16, 84ea8 <spi_write+0x98>
   84eb8:	d2880000 	mov	x0, #0x4000                	// #16384
   84ebc:	f2a7e400 	movk	x0, #0x3f20, lsl #16
   84ec0:	52800601 	mov	w1, #0x30                  	// #48
   84ec4:	b9000001 	str	w1, [x0]
   84ec8:	d65f03c0 	ret
   84ecc:	d503201f 	nop

0000000000084ed0 <spi_xfer1>:
   84ed0:	d2880004 	mov	x4, #0x4000                	// #16384
   84ed4:	f2a7e404 	movk	x4, #0x3f20, lsl #16
   84ed8:	52800625 	mov	w5, #0x31                  	// #49
   84edc:	52801023 	mov	w3, #0x81                  	// #129
   84ee0:	b9000085 	str	w5, [x4]
   84ee4:	7100005f 	cmp	w2, #0x0
   84ee8:	b9000083 	str	w3, [x4]
   84eec:	5400030d 	b.le	84f4c <spi_xfer1+0x7c>
   84ef0:	d2880087 	mov	x7, #0x4004                	// #16388
   84ef4:	f2a7e407 	movk	x7, #0x3f20, lsl #16
   84ef8:	d2800006 	mov	x6, #0x0                   	// #0
   84efc:	d503201f 	nop
   84f00:	5289c403 	mov	w3, #0x4e20                	// #20000
   84f04:	14000003 	b	84f10 <spi_xfer1+0x40>
   84f08:	71000463 	subs	w3, w3, #0x1
   84f0c:	54000060 	b.eq	84f18 <spi_xfer1+0x48>  // b.none
   84f10:	b9400085 	ldr	w5, [x4]
   84f14:	3697ffa5 	tbz	w5, #18, 84f08 <spi_xfer1+0x38>
   84f18:	38666805 	ldrb	w5, [x0, x6]
   84f1c:	5289c403 	mov	w3, #0x4e20                	// #20000
   84f20:	b90000e5 	str	w5, [x7]
   84f24:	14000003 	b	84f30 <spi_xfer1+0x60>
   84f28:	71000463 	subs	w3, w3, #0x1
   84f2c:	54000060 	b.eq	84f38 <spi_xfer1+0x68>  // b.none
   84f30:	b9400085 	ldr	w5, [x4]
   84f34:	368fffa5 	tbz	w5, #17, 84f28 <spi_xfer1+0x58>
   84f38:	b94000e3 	ldr	w3, [x7]
   84f3c:	38266823 	strb	w3, [x1, x6]
   84f40:	910004c6 	add	x6, x6, #0x1
   84f44:	6b06005f 	cmp	w2, w6
   84f48:	54fffdcc 	b.gt	84f00 <spi_xfer1+0x30>
   84f4c:	d2880002 	mov	x2, #0x4000                	// #16384
   84f50:	f2a7e402 	movk	x2, #0x3f20, lsl #16
   84f54:	5289c400 	mov	w0, #0x4e20                	// #20000
   84f58:	14000003 	b	84f64 <spi_xfer1+0x94>
   84f5c:	71000400 	subs	w0, w0, #0x1
   84f60:	54000060 	b.eq	84f6c <spi_xfer1+0x9c>  // b.none
   84f64:	b9400041 	ldr	w1, [x2]
   84f68:	3687ffa1 	tbz	w1, #16, 84f5c <spi_xfer1+0x8c>
   84f6c:	d2880000 	mov	x0, #0x4000                	// #16384
   84f70:	f2a7e400 	movk	x0, #0x3f20, lsl #16
   84f74:	52800601 	mov	w1, #0x30                  	// #48
   84f78:	b9000001 	str	w1, [x0]
   84f7c:	d65f03c0 	ret

0000000000084f80 <tm_stop>:
   84f80:	a9bf7bfd 	stp	x29, x30, [sp, #-16]!
   84f84:	52800021 	mov	w1, #0x1                   	// #1
   84f88:	52800040 	mov	w0, #0x2                   	// #2
   84f8c:	910003fd 	mov	x29, sp
   84f90:	97fffefc 	bl	84b80 <gpio_set_function>
   84f94:	528000a0 	mov	w0, #0x5                   	// #5
   84f98:	97fffed6 	bl	84af0 <delay_us>
   84f9c:	52800021 	mov	w1, #0x1                   	// #1
   84fa0:	52800060 	mov	w0, #0x3                   	// #3
   84fa4:	97fffef7 	bl	84b80 <gpio_set_function>
   84fa8:	528000a0 	mov	w0, #0x5                   	// #5
   84fac:	97fffed1 	bl	84af0 <delay_us>
   84fb0:	52800001 	mov	w1, #0x0                   	// #0
   84fb4:	52800040 	mov	w0, #0x2                   	// #2
   84fb8:	97fffef2 	bl	84b80 <gpio_set_function>
   84fbc:	528000a0 	mov	w0, #0x5                   	// #5
   84fc0:	97fffecc 	bl	84af0 <delay_us>
   84fc4:	52800001 	mov	w1, #0x0                   	// #0
   84fc8:	52800060 	mov	w0, #0x3                   	// #3
   84fcc:	97fffeed 	bl	84b80 <gpio_set_function>
   84fd0:	a8c17bfd 	ldp	x29, x30, [sp], #16
   84fd4:	528000a0 	mov	w0, #0x5                   	// #5
   84fd8:	17fffec6 	b	84af0 <delay_us>
   84fdc:	d503201f 	nop

0000000000084fe0 <tm_write.isra.0>:
   84fe0:	a9be7bfd 	stp	x29, x30, [sp, #-32]!
   84fe4:	910003fd 	mov	x29, sp
   84fe8:	a90153f3 	stp	x19, x20, [sp, #16]
   84fec:	12001c14 	and	w20, w0, #0xff
   84ff0:	52800113 	mov	w19, #0x8                   	// #8
   84ff4:	1400000e 	b	8502c <tm_write.isra.0+0x4c>
   84ff8:	52800001 	mov	w1, #0x0                   	// #0
   84ffc:	52800060 	mov	w0, #0x3                   	// #3
   85000:	97fffee0 	bl	84b80 <gpio_set_function>
   85004:	528000a0 	mov	w0, #0x5                   	// #5
   85008:	97fffeba 	bl	84af0 <delay_us>
   8500c:	52800001 	mov	w1, #0x0                   	// #0
   85010:	52800040 	mov	w0, #0x2                   	// #2
   85014:	97fffedb 	bl	84b80 <gpio_set_function>
   85018:	53017e94 	lsr	w20, w20, #1
   8501c:	528000a0 	mov	w0, #0x5                   	// #5
   85020:	97fffeb4 	bl	84af0 <delay_us>
   85024:	71000673 	subs	w19, w19, #0x1
   85028:	54000160 	b.eq	85054 <tm_write.isra.0+0x74>  // b.none
   8502c:	52800021 	mov	w1, #0x1                   	// #1
   85030:	52800040 	mov	w0, #0x2                   	// #2
   85034:	97fffed3 	bl	84b80 <gpio_set_function>
   85038:	528000a0 	mov	w0, #0x5                   	// #5
   8503c:	97fffead 	bl	84af0 <delay_us>
   85040:	3707fdd4 	tbnz	w20, #0, 84ff8 <tm_write.isra.0+0x18>
   85044:	52800021 	mov	w1, #0x1                   	// #1
   85048:	52800060 	mov	w0, #0x3                   	// #3
   8504c:	97fffecd 	bl	84b80 <gpio_set_function>
   85050:	17ffffed 	b	85004 <tm_write.isra.0+0x24>
   85054:	52800021 	mov	w1, #0x1                   	// #1
   85058:	52800040 	mov	w0, #0x2                   	// #2
   8505c:	97fffec9 	bl	84b80 <gpio_set_function>
   85060:	52800001 	mov	w1, #0x0                   	// #0
   85064:	52800060 	mov	w0, #0x3                   	// #3
   85068:	97fffec6 	bl	84b80 <gpio_set_function>
   8506c:	528000a0 	mov	w0, #0x5                   	// #5
   85070:	97fffea0 	bl	84af0 <delay_us>
   85074:	52800001 	mov	w1, #0x0                   	// #0
   85078:	52800040 	mov	w0, #0x2                   	// #2
   8507c:	97fffec1 	bl	84b80 <gpio_set_function>
   85080:	528000a0 	mov	w0, #0x5                   	// #5
   85084:	97fffe9b 	bl	84af0 <delay_us>
   85088:	52800060 	mov	w0, #0x3                   	// #3
   8508c:	97fffef1 	bl	84c50 <gpio_read>
   85090:	52800021 	mov	w1, #0x1                   	// #1
   85094:	52800040 	mov	w0, #0x2                   	// #2
   85098:	97fffeba 	bl	84b80 <gpio_set_function>
   8509c:	a94153f3 	ldp	x19, x20, [sp, #16]
   850a0:	528000a0 	mov	w0, #0x5                   	// #5
   850a4:	a8c27bfd 	ldp	x29, x30, [sp], #32
   850a8:	17fffe92 	b	84af0 <delay_us>
   850ac:	d503201f 	nop

00000000000850b0 <tm1637_show>:
   850b0:	a9be7bfd 	stp	x29, x30, [sp, #-32]!
   850b4:	52800001 	mov	w1, #0x0                   	// #0
   850b8:	910003fd 	mov	x29, sp
   850bc:	a90153f3 	stp	x19, x20, [sp, #16]
   850c0:	aa0003f4 	mov	x20, x0
   850c4:	52800040 	mov	w0, #0x2                   	// #2
   850c8:	97fffeae 	bl	84b80 <gpio_set_function>
   850cc:	d2800013 	mov	x19, #0x0                   	// #0
   850d0:	52800001 	mov	w1, #0x0                   	// #0
   850d4:	52800060 	mov	w0, #0x3                   	// #3
   850d8:	97fffeaa 	bl	84b80 <gpio_set_function>
   850dc:	528000a0 	mov	w0, #0x5                   	// #5
   850e0:	97fffe84 	bl	84af0 <delay_us>
   850e4:	52800021 	mov	w1, #0x1                   	// #1
   850e8:	52800060 	mov	w0, #0x3                   	// #3
   850ec:	97fffea5 	bl	84b80 <gpio_set_function>
   850f0:	528000a0 	mov	w0, #0x5                   	// #5
   850f4:	97fffe7f 	bl	84af0 <delay_us>
   850f8:	52800800 	mov	w0, #0x40                  	// #64
   850fc:	97ffffb9 	bl	84fe0 <tm_write.isra.0>
   85100:	97ffffa0 	bl	84f80 <tm_stop>
   85104:	52800001 	mov	w1, #0x0                   	// #0
   85108:	52800040 	mov	w0, #0x2                   	// #2
   8510c:	97fffe9d 	bl	84b80 <gpio_set_function>
   85110:	52800001 	mov	w1, #0x0                   	// #0
   85114:	52800060 	mov	w0, #0x3                   	// #3
   85118:	97fffe9a 	bl	84b80 <gpio_set_function>
   8511c:	528000a0 	mov	w0, #0x5                   	// #5
   85120:	97fffe74 	bl	84af0 <delay_us>
   85124:	52800021 	mov	w1, #0x1                   	// #1
   85128:	52800060 	mov	w0, #0x3                   	// #3
   8512c:	97fffe95 	bl	84b80 <gpio_set_function>
   85130:	528000a0 	mov	w0, #0x5                   	// #5
   85134:	97fffe6f 	bl	84af0 <delay_us>
   85138:	128007e0 	mov	w0, #0xffffffc0            	// #-64
   8513c:	97ffffa9 	bl	84fe0 <tm_write.isra.0>
   85140:	38736a80 	ldrb	w0, [x20, x19]
   85144:	91000673 	add	x19, x19, #0x1
   85148:	97ffffa6 	bl	84fe0 <tm_write.isra.0>
   8514c:	f100127f 	cmp	x19, #0x4
   85150:	54ffff81 	b.ne	85140 <tm1637_show+0x90>  // b.any
   85154:	97ffff8b 	bl	84f80 <tm_stop>
   85158:	52800001 	mov	w1, #0x0                   	// #0
   8515c:	52800040 	mov	w0, #0x2                   	// #2
   85160:	97fffe88 	bl	84b80 <gpio_set_function>
   85164:	52800001 	mov	w1, #0x0                   	// #0
   85168:	52800060 	mov	w0, #0x3                   	// #3
   8516c:	97fffe85 	bl	84b80 <gpio_set_function>
   85170:	528000a0 	mov	w0, #0x5                   	// #5
   85174:	97fffe5f 	bl	84af0 <delay_us>
   85178:	52800021 	mov	w1, #0x1                   	// #1
   8517c:	52800060 	mov	w0, #0x3                   	// #3
   85180:	97fffe80 	bl	84b80 <gpio_set_function>
   85184:	528000a0 	mov	w0, #0x5                   	// #5
   85188:	97fffe5a 	bl	84af0 <delay_us>
   8518c:	12800e00 	mov	w0, #0xffffff8f            	// #-113
   85190:	97ffff94 	bl	84fe0 <tm_write.isra.0>
   85194:	a94153f3 	ldp	x19, x20, [sp, #16]
   85198:	a8c27bfd 	ldp	x29, x30, [sp], #32
   8519c:	17ffff79 	b	84f80 <tm_stop>

00000000000851a0 <tm1637_init>:
   851a0:	a9bf7bfd 	stp	x29, x30, [sp, #-16]!
   851a4:	52800180 	mov	w0, #0xc                   	// #12
   851a8:	910003fd 	mov	x29, sp
   851ac:	97fffea5 	bl	84c40 <gpio_clear>
   851b0:	52800041 	mov	w1, #0x2                   	// #2
   851b4:	2a0103e0 	mov	w0, w1
   851b8:	97fffe86 	bl	84bd0 <gpio_set_pull>
   851bc:	52800041 	mov	w1, #0x2                   	// #2
   851c0:	52800060 	mov	w0, #0x3                   	// #3
   851c4:	97fffe83 	bl	84bd0 <gpio_set_pull>
   851c8:	52800001 	mov	w1, #0x0                   	// #0
   851cc:	52800040 	mov	w0, #0x2                   	// #2
   851d0:	97fffe6c 	bl	84b80 <gpio_set_function>
   851d4:	a8c17bfd 	ldp	x29, x30, [sp], #16
   851d8:	52800001 	mov	w1, #0x0                   	// #0
   851dc:	52800060 	mov	w0, #0x3                   	// #3
   851e0:	17fffe68 	b	84b80 <gpio_set_function>
   851e4:	d503201f 	nop
   851e8:	d503201f 	nop
   851ec:	d503201f 	nop

00000000000851f0 <tm_number>:
   851f0:	5284e1e3 	mov	w3, #0x270f                	// #9999
   851f4:	6b03001f 	cmp	w0, w3
   851f8:	1a839003 	csel	w3, w0, w3, ls  // ls = plast
   851fc:	529999a1 	mov	w1, #0xcccd                	// #52429
   85200:	72b99981 	movk	w1, #0xcccc, lsl #16
   85204:	a9be7bfd 	stp	x29, x30, [sp, #-32]!
   85208:	52800148 	mov	w8, #0xa                   	// #10
   8520c:	9ba17c65 	umull	x5, w3, w1
   85210:	910003fd 	mov	x29, sp
   85214:	d2800000 	mov	x0, #0x0                   	// #0
   85218:	7100081f 	cmp	w0, #0x2
   8521c:	b0000047 	adrp	x7, 8e000 <sc_scope_draw+0x570>
   85220:	9116c0e7 	add	x7, x7, #0x5b0
   85224:	d363fca5 	lsr	x5, x5, #35
   85228:	52800026 	mov	w6, #0x1                   	// #1
   8522c:	910063e4 	add	x4, sp, #0x18
   85230:	9ba17ca2 	umull	x2, w5, w1
   85234:	1b088ca3 	msub	w3, w5, w8, w3
   85238:	39004fe3 	strb	w3, [sp, #19]
   8523c:	d363fc43 	lsr	x3, x2, #35
   85240:	9ba17c61 	umull	x1, w3, w1
   85244:	1b089465 	msub	w5, w3, w8, w5
   85248:	39004be5 	strb	w5, [sp, #18]
   8524c:	d363fc22 	lsr	x2, x1, #35
   85250:	12001c41 	and	w1, w2, #0xff
   85254:	1b088c42 	msub	w2, w2, w8, w3
   85258:	520000c3 	eor	w3, w6, #0x1
   8525c:	390047e2 	strb	w2, [sp, #17]
   85260:	1a9fd7e2 	cset	w2, gt
   85264:	350001c1 	cbnz	w1, 8529c <tm_number+0xac>
   85268:	2a030042 	orr	w2, w2, w3
   8526c:	350001a2 	cbnz	w2, 852a0 <tm_number+0xb0>
   85270:	38001481 	strb	w1, [x4], #1
   85274:	910043e2 	add	x2, sp, #0x10
   85278:	8b020002 	add	x2, x0, x2
   8527c:	f1000c1f 	cmp	x0, #0x3
   85280:	91000400 	add	x0, x0, #0x1
   85284:	540001c0 	b.eq	852bc <tm_number+0xcc>  // b.none
   85288:	39400441 	ldrb	w1, [x2, #1]
   8528c:	7100081f 	cmp	w0, #0x2
   85290:	520000c3 	eor	w3, w6, #0x1
   85294:	1a9fd7e2 	cset	w2, gt
   85298:	34fffe81 	cbz	w1, 85268 <tm_number+0x78>
   8529c:	52800006 	mov	w6, #0x0                   	// #0
   852a0:	3861c8e1 	ldrb	w1, [x7, w1, sxtw]
   852a4:	910043e2 	add	x2, sp, #0x10
   852a8:	38001481 	strb	w1, [x4], #1
   852ac:	8b020002 	add	x2, x0, x2
   852b0:	f1000c1f 	cmp	x0, #0x3
   852b4:	91000400 	add	x0, x0, #0x1
   852b8:	54fffe81 	b.ne	85288 <tm_number+0x98>  // b.any
   852bc:	910063e0 	add	x0, sp, #0x18
   852c0:	97ffff7c 	bl	850b0 <tm1637_show>
   852c4:	a8c27bfd 	ldp	x29, x30, [sp], #32
   852c8:	d65f03c0 	ret
   852cc:	d503201f 	nop

00000000000852d0 <tm_time>:
   852d0:	528ccce3 	mov	w3, #0x6667                	// #26215
   852d4:	72acccc3 	movk	w3, #0x6666, lsl #16
   852d8:	2a0003e6 	mov	w6, w0
   852dc:	7100005f 	cmp	w2, #0x0
   852e0:	9b237c24 	smull	x4, w1, w3
   852e4:	52800149 	mov	w9, #0xa                   	// #10
   852e8:	9b237c05 	smull	x5, w0, w3
   852ec:	b0000048 	adrp	x8, 8e000 <sc_scope_draw+0x570>
   852f0:	9116c108 	add	x8, x8, #0x5b0
   852f4:	a9be7bfd 	stp	x29, x30, [sp, #-32]!
   852f8:	9362fc82 	asr	x2, x4, #34
   852fc:	9362fca5 	asr	x5, x5, #34
   85300:	4b817c42 	sub	w2, w2, w1, asr #31
   85304:	4b867ca4 	sub	w4, w5, w6, asr #31
   85308:	910003fd 	mov	x29, sp
   8530c:	910063e0 	add	x0, sp, #0x18
   85310:	9b237c85 	smull	x5, w4, w3
   85314:	9b237c43 	smull	x3, w2, w3
   85318:	1b099887 	msub	w7, w4, w9, w6
   8531c:	9362fca5 	asr	x5, x5, #34
   85320:	1b098446 	msub	w6, w2, w9, w1
   85324:	9362fc63 	asr	x3, x3, #34
   85328:	4b847ca1 	sub	w1, w5, w4, asr #31
   8532c:	4b827c63 	sub	w3, w3, w2, asr #31
   85330:	3867c905 	ldrb	w5, [x8, w7, sxtw]
   85334:	1b099024 	msub	w4, w1, w9, w4
   85338:	3866c906 	ldrb	w6, [x8, w6, sxtw]
   8533c:	1b098863 	msub	w3, w3, w9, w2
   85340:	321960a1 	orr	w1, w5, #0xffffff80
   85344:	1a851021 	csel	w1, w1, w5, ne  // ne = any
   85348:	390067e1 	strb	w1, [sp, #25]
   8534c:	39006fe6 	strb	w6, [sp, #27]
   85350:	3864c902 	ldrb	w2, [x8, w4, sxtw]
   85354:	3863c901 	ldrb	w1, [x8, w3, sxtw]
   85358:	390063e2 	strb	w2, [sp, #24]
   8535c:	39006be1 	strb	w1, [sp, #26]
   85360:	97ffff54 	bl	850b0 <tm1637_show>
   85364:	a8c27bfd 	ldp	x29, x30, [sp], #32
   85368:	d65f03c0 	ret
   8536c:	d503201f 	nop

0000000000085370 <tm_dashes>:
   85370:	a9be7bfd 	stp	x29, x30, [sp, #-32]!
   85374:	3202c3e1 	mov	w1, #0x40404040            	// #1077952576
   85378:	910003fd 	mov	x29, sp
   8537c:	910063e0 	add	x0, sp, #0x18
   85380:	b9001be1 	str	w1, [sp, #24]
   85384:	97ffff4b 	bl	850b0 <tm1637_show>
   85388:	a8c27bfd 	ldp	x29, x30, [sp], #32
   8538c:	d65f03c0 	ret

0000000000085390 <max_all>:
   85390:	a9be7bfd 	stp	x29, x30, [sp, #-32]!
   85394:	12001c03 	and	w3, w0, #0xff
   85398:	12001c22 	and	w2, w1, #0xff
   8539c:	910003fd 	mov	x29, sp
   853a0:	910063e0 	add	x0, sp, #0x18
   853a4:	52800101 	mov	w1, #0x8                   	// #8
   853a8:	390063e3 	strb	w3, [sp, #24]
   853ac:	390067e2 	strb	w2, [sp, #25]
   853b0:	39006be3 	strb	w3, [sp, #26]
   853b4:	39006fe2 	strb	w2, [sp, #27]
   853b8:	390073e3 	strb	w3, [sp, #28]
   853bc:	390077e2 	strb	w2, [sp, #29]
   853c0:	39007be3 	strb	w3, [sp, #30]
   853c4:	39007fe2 	strb	w2, [sp, #31]
   853c8:	97fffe92 	bl	84e10 <spi_write>
   853cc:	a8c27bfd 	ldp	x29, x30, [sp], #32
   853d0:	d65f03c0 	ret
   853d4:	d503201f 	nop
   853d8:	d503201f 	nop
   853dc:	d503201f 	nop

00000000000853e0 <max_render>:
   853e0:	a9bc7bfd 	stp	x29, x30, [sp, #-64]!
   853e4:	52800005 	mov	w5, #0x0                   	// #0
   853e8:	910003fd 	mov	x29, sp
   853ec:	a90153f3 	stp	x19, x20, [sp, #16]
   853f0:	aa0003f3 	mov	x19, x0
   853f4:	52800034 	mov	w20, #0x1                   	// #1
   853f8:	a9025bf5 	stp	x21, x22, [sp, #32]
   853fc:	528000f5 	mov	w21, #0x7                   	// #7
   85400:	110004b6 	add	w22, w5, #0x1
   85404:	12001ec8 	and	w8, w22, #0xff
   85408:	9100e3e6 	add	x6, sp, #0x38
   8540c:	aa1303e4 	mov	x4, x19
   85410:	1ac52285 	lsl	w5, w20, w5
   85414:	52800007 	mov	w7, #0x0                   	// #0
   85418:	d2800001 	mov	x1, #0x0                   	// #0
   8541c:	52800002 	mov	w2, #0x0                   	// #0
   85420:	4b0102a0 	sub	w0, w21, w1
   85424:	38616883 	ldrb	w3, [x4, x1]
   85428:	91000421 	add	x1, x1, #0x1
   8542c:	1ac02280 	lsl	w0, w20, w0
   85430:	2a000040 	orr	w0, w2, w0
   85434:	6a05007f 	tst	w3, w5
   85438:	12001c00 	and	w0, w0, #0xff
   8543c:	1a821002 	csel	w2, w0, w2, ne  // ne = any
   85440:	f100203f 	cmp	x1, #0x8
   85444:	54fffee1 	b.ne	85420 <max_render+0x40>  // b.any
   85448:	390000c8 	strb	w8, [x6]
   8544c:	110020e7 	add	w7, w7, #0x8
   85450:	390004c2 	strb	w2, [x6, #1]
   85454:	710080ff 	cmp	w7, #0x20
   85458:	910008c6 	add	x6, x6, #0x2
   8545c:	91002084 	add	x4, x4, #0x8
   85460:	54fffdc1 	b.ne	85418 <max_render+0x38>  // b.any
   85464:	9100e3e0 	add	x0, sp, #0x38
   85468:	97fffe6a 	bl	84e10 <spi_write>
   8546c:	2a1603e5 	mov	w5, w22
   85470:	710022df 	cmp	w22, #0x8
   85474:	54fffc61 	b.ne	85400 <max_render+0x20>  // b.any
   85478:	a94153f3 	ldp	x19, x20, [sp, #16]
   8547c:	a9425bf5 	ldp	x21, x22, [sp, #32]
   85480:	a8c47bfd 	ldp	x29, x30, [sp], #64
   85484:	d65f03c0 	ret
   85488:	d503201f 	nop
   8548c:	d503201f 	nop

0000000000085490 <max_init>:
   85490:	a9be7bfd 	stp	x29, x30, [sp, #-32]!
   85494:	910003fd 	mov	x29, sp
   85498:	97fffe42 	bl	84da0 <spi_init>
   8549c:	390067ff 	strb	wzr, [sp, #25]
   854a0:	528001e2 	mov	w2, #0xf                   	// #15
   854a4:	910063e0 	add	x0, sp, #0x18
   854a8:	52800101 	mov	w1, #0x8                   	// #8
   854ac:	390063e2 	strb	w2, [sp, #24]
   854b0:	39006be2 	strb	w2, [sp, #26]
   854b4:	39006fff 	strb	wzr, [sp, #27]
   854b8:	390073e2 	strb	w2, [sp, #28]
   854bc:	390077ff 	strb	wzr, [sp, #29]
   854c0:	39007be2 	strb	w2, [sp, #30]
   854c4:	39007fff 	strb	wzr, [sp, #31]
   854c8:	97fffe52 	bl	84e10 <spi_write>
   854cc:	52800122 	mov	w2, #0x9                   	// #9
   854d0:	910063e0 	add	x0, sp, #0x18
   854d4:	52800101 	mov	w1, #0x8                   	// #8
   854d8:	390063e2 	strb	w2, [sp, #24]
   854dc:	390067ff 	strb	wzr, [sp, #25]
   854e0:	39006be2 	strb	w2, [sp, #26]
   854e4:	39006fff 	strb	wzr, [sp, #27]
   854e8:	390073e2 	strb	w2, [sp, #28]
   854ec:	390077ff 	strb	wzr, [sp, #29]
   854f0:	39007be2 	strb	w2, [sp, #30]
   854f4:	39007fff 	strb	wzr, [sp, #31]
   854f8:	97fffe46 	bl	84e10 <spi_write>
   854fc:	52800163 	mov	w3, #0xb                   	// #11
   85500:	528000e2 	mov	w2, #0x7                   	// #7
   85504:	910063e0 	add	x0, sp, #0x18
   85508:	52800101 	mov	w1, #0x8                   	// #8
   8550c:	390063e3 	strb	w3, [sp, #24]
   85510:	390067e2 	strb	w2, [sp, #25]
   85514:	39006be3 	strb	w3, [sp, #26]
   85518:	39006fe2 	strb	w2, [sp, #27]
   8551c:	390073e3 	strb	w3, [sp, #28]
   85520:	390077e2 	strb	w2, [sp, #29]
   85524:	39007be3 	strb	w3, [sp, #30]
   85528:	39007fe2 	strb	w2, [sp, #31]
   8552c:	97fffe39 	bl	84e10 <spi_write>
   85530:	52800143 	mov	w3, #0xa                   	// #10
   85534:	52800042 	mov	w2, #0x2                   	// #2
   85538:	910063e0 	add	x0, sp, #0x18
   8553c:	52800101 	mov	w1, #0x8                   	// #8
   85540:	390063e3 	strb	w3, [sp, #24]
   85544:	390067e2 	strb	w2, [sp, #25]
   85548:	39006be3 	strb	w3, [sp, #26]
   8554c:	39006fe2 	strb	w2, [sp, #27]
   85550:	390073e3 	strb	w3, [sp, #28]
   85554:	390077e2 	strb	w2, [sp, #29]
   85558:	39007be3 	strb	w3, [sp, #30]
   8555c:	39007fe2 	strb	w2, [sp, #31]
   85560:	97fffe2c 	bl	84e10 <spi_write>
   85564:	52800183 	mov	w3, #0xc                   	// #12
   85568:	52800022 	mov	w2, #0x1                   	// #1
   8556c:	910063e0 	add	x0, sp, #0x18
   85570:	52800101 	mov	w1, #0x8                   	// #8
   85574:	390063e3 	strb	w3, [sp, #24]
   85578:	390067e2 	strb	w2, [sp, #25]
   8557c:	39006be3 	strb	w3, [sp, #26]
   85580:	39006fe2 	strb	w2, [sp, #27]
   85584:	390073e3 	strb	w3, [sp, #28]
   85588:	390077e2 	strb	w2, [sp, #29]
   8558c:	39007be3 	strb	w3, [sp, #30]
   85590:	39007fe2 	strb	w2, [sp, #31]
   85594:	97fffe1f 	bl	84e10 <spi_write>
   85598:	a8c27bfd 	ldp	x29, x30, [sp], #32
   8559c:	d65f03c0 	ret

00000000000855a0 <fb_fill.part.0>:
   855a0:	d0000045 	adrp	x5, 8f000 <g_msg+0x18>
   855a4:	912c80aa 	add	x10, x5, #0xb20
   855a8:	7100001f 	cmp	w0, #0x0
   855ac:	0b000046 	add	w6, w2, w0
   855b0:	b94b20a8 	ldr	w8, [x5, #2848]
   855b4:	1a9fa005 	csel	w5, w0, wzr, ge  // ge = tcont
   855b8:	b9400547 	ldr	w7, [x10, #4]
   855bc:	7100003f 	cmp	w1, #0x0
   855c0:	0b010060 	add	w0, w3, w1
   855c4:	1a9fa022 	csel	w2, w1, wzr, ge  // ge = tcont
   855c8:	6b06011f 	cmp	w8, w6
   855cc:	1a86d108 	csel	w8, w8, w6, le
   855d0:	6b0000ff 	cmp	w7, w0
   855d4:	1a80d0e7 	csel	w7, w7, w0, le
   855d8:	6b07005f 	cmp	w2, w7
   855dc:	5400034a 	b.ge	85644 <fb_fill.part.0+0xa4>  // b.tcont
   855e0:	b9401149 	ldr	w9, [x10, #16]
   855e4:	2a2503e6 	mvn	w6, w5
   855e8:	f940054c 	ldr	x12, [x10, #8]
   855ec:	937e7cab 	sbfiz	x11, x5, #2, #32
   855f0:	0b0800c6 	add	w6, w6, w8
   855f4:	8b0b018a 	add	x10, x12, x11
   855f8:	1b097c43 	mul	w3, w2, w9
   855fc:	d37ef4c6 	lsl	x6, x6, #2
   85600:	9100114a 	add	x10, x10, #0x4
   85604:	d503201f 	nop
   85608:	6b0800bf 	cmp	w5, w8
   8560c:	2a0303e1 	mov	w1, w3
   85610:	5400012a 	b.ge	85634 <fb_fill.part.0+0x94>  // b.tcont
   85614:	8b0b0020 	add	x0, x1, x11
   85618:	8b060021 	add	x1, x1, x6
   8561c:	8b000180 	add	x0, x12, x0
   85620:	8b0a0021 	add	x1, x1, x10
   85624:	d503201f 	nop
   85628:	b8004404 	str	w4, [x0], #4
   8562c:	eb01001f 	cmp	x0, x1
   85630:	54ffffc1 	b.ne	85628 <fb_fill.part.0+0x88>  // b.any
   85634:	11000442 	add	w2, w2, #0x1
   85638:	0b090063 	add	w3, w3, w9
   8563c:	6b0200ff 	cmp	w7, w2
   85640:	54fffe41 	b.ne	85608 <fb_fill.part.0+0x68>  // b.any
   85644:	d65f03c0 	ret
   85648:	d503201f 	nop
   8564c:	d503201f 	nop

0000000000085650 <fb_disc>:
   85650:	7100005f 	cmp	w2, #0x0
   85654:	2a0303e4 	mov	w4, w3
   85658:	540003ad 	b.le	856cc <fb_disc+0x7c>
   8565c:	a9be7bfd 	stp	x29, x30, [sp, #-32]!
   85660:	1b027c4d 	mul	w13, w2, w2
   85664:	2a0203ef 	mov	w15, w2
   85668:	910003fd 	mov	x29, sp
   8566c:	2a0003f2 	mov	w18, w0
   85670:	4b0203ee 	neg	w14, w2
   85674:	f9000bf3 	str	x19, [sp, #16]
   85678:	2a0103f3 	mov	w19, w1
   8567c:	d503201f 	nop
   85680:	1b0e7dc7 	mul	w7, w14, w14
   85684:	52800005 	mov	w5, #0x0                   	// #0
   85688:	2a0503e0 	mov	w0, w5
   8568c:	110004a5 	add	w5, w5, #0x1
   85690:	1b051ca6 	madd	w6, w5, w5, w7
   85694:	6b0d00df 	cmp	w6, w13
   85698:	54ffff8d 	b.le	85688 <fb_disc+0x38>
   8569c:	0b000002 	add	w2, w0, w0
   856a0:	0b1301c1 	add	w1, w14, w19
   856a4:	52800023 	mov	w3, #0x1                   	// #1
   856a8:	4b000240 	sub	w0, w18, w0
   856ac:	0b0301ce 	add	w14, w14, w3
   856b0:	11000442 	add	w2, w2, #0x1
   856b4:	97ffffbb 	bl	855a0 <fb_fill.part.0>
   856b8:	6b0e01ff 	cmp	w15, w14
   856bc:	54fffe2a 	b.ge	85680 <fb_disc+0x30>  // b.tcont
   856c0:	f9400bf3 	ldr	x19, [sp, #16]
   856c4:	a8c27bfd 	ldp	x29, x30, [sp], #32
   856c8:	d65f03c0 	ret
   856cc:	52800023 	mov	w3, #0x1                   	// #1
   856d0:	2a0303e2 	mov	w2, w3
   856d4:	17ffffb3 	b	855a0 <fb_fill.part.0>
   856d8:	d503201f 	nop
   856dc:	d503201f 	nop

00000000000856e0 <fb_width>:
   856e0:	d0000040 	adrp	x0, 8f000 <g_msg+0x18>
   856e4:	b94b2000 	ldr	w0, [x0, #2848]
   856e8:	d65f03c0 	ret
   856ec:	d503201f 	nop

00000000000856f0 <fb_height>:
   856f0:	d0000040 	adrp	x0, 8f000 <g_msg+0x18>
   856f4:	b94b2400 	ldr	w0, [x0, #2852]
   856f8:	d65f03c0 	ret
   856fc:	d503201f 	nop

0000000000085700 <fb_pitch>:
   85700:	d0000040 	adrp	x0, 8f000 <g_msg+0x18>
   85704:	b94b3000 	ldr	w0, [x0, #2864]
   85708:	d65f03c0 	ret
   8570c:	d503201f 	nop

0000000000085710 <fb_base>:
   85710:	d0000040 	adrp	x0, 8f000 <g_msg+0x18>
   85714:	f9459400 	ldr	x0, [x0, #2856]
   85718:	d65f03c0 	ret
   8571c:	d503201f 	nop

0000000000085720 <fb_init>:
   85720:	d0000048 	adrp	x8, 8f000 <g_msg+0x18>
   85724:	912c8106 	add	x6, x8, #0xb20
   85728:	910080c2 	add	x2, x6, #0x20
   8572c:	52900063 	mov	w3, #0x8003                	// #32771
   85730:	72a00083 	movk	w3, #0x4, lsl #16
   85734:	52800105 	mov	w5, #0x8                   	// #8
   85738:	b90020df 	str	wzr, [x6, #32]
   8573c:	2a0003e7 	mov	w7, w0
   85740:	b900045f 	str	wzr, [x2, #4]
   85744:	52900084 	mov	w4, #0x8004                	// #32772
   85748:	72a00084 	movk	w4, #0x4, lsl #16
   8574c:	b9000843 	str	w3, [x2, #8]
   85750:	b9000c45 	str	w5, [x2, #12]
   85754:	11001863 	add	w3, w3, #0x6
   85758:	b900105f 	str	wzr, [x2, #16]
   8575c:	529000af 	mov	w15, #0x8005                	// #32773
   85760:	72a0008f 	movk	w15, #0x4, lsl #16
   85764:	b9001447 	str	w7, [x2, #20]
   85768:	b9001841 	str	w1, [x2, #24]
   8576c:	52800080 	mov	w0, #0x4                   	// #4
   85770:	b9001c44 	str	w4, [x2, #28]
   85774:	5280040e 	mov	w14, #0x20                  	// #32
   85778:	b9002045 	str	w5, [x2, #32]
   8577c:	529000cd 	mov	w13, #0x8006                	// #32774
   85780:	72a0008d 	movk	w13, #0x4, lsl #16
   85784:	b900245f 	str	wzr, [x2, #36]
   85788:	b9002847 	str	w7, [x2, #40]
   8578c:	5280002c 	mov	w12, #0x1                   	// #1
   85790:	72a0008c 	movk	w12, #0x4, lsl #16
   85794:	b9002c41 	str	w1, [x2, #44]
   85798:	b9003043 	str	w3, [x2, #48]
   8579c:	5282000b 	mov	w11, #0x1000                	// #4096
   857a0:	b9003445 	str	w5, [x2, #52]
   857a4:	5280010a 	mov	w10, #0x8                   	// #8
   857a8:	72a0008a 	movk	w10, #0x4, lsl #16
   857ac:	b900385f 	str	wzr, [x2, #56]
   857b0:	b9003c5f 	str	wzr, [x2, #60]
   857b4:	2a050044 	orr	w4, w2, w5
   857b8:	b900405f 	str	wzr, [x2, #64]
   857bc:	52801189 	mov	w9, #0x8c                  	// #140
   857c0:	b900444f 	str	w15, [x2, #68]
   857c4:	d2971303 	mov	x3, #0xb898                	// #47256
   857c8:	f2a7e003 	movk	x3, #0x3f00, lsl #16
   857cc:	b9004840 	str	w0, [x2, #72]
   857d0:	b9004c5f 	str	wzr, [x2, #76]
   857d4:	b900504e 	str	w14, [x2, #80]
   857d8:	b900544d 	str	w13, [x2, #84]
   857dc:	b9005840 	str	w0, [x2, #88]
   857e0:	b9005c5f 	str	wzr, [x2, #92]
   857e4:	b900605f 	str	wzr, [x2, #96]
   857e8:	b900644c 	str	w12, [x2, #100]
   857ec:	b9006845 	str	w5, [x2, #104]
   857f0:	b9006c5f 	str	wzr, [x2, #108]
   857f4:	b900704b 	str	w11, [x2, #112]
   857f8:	b900745f 	str	wzr, [x2, #116]
   857fc:	b900784a 	str	w10, [x2, #120]
   85800:	b9007c40 	str	w0, [x2, #124]
   85804:	b900805f 	str	wzr, [x2, #128]
   85808:	b900845f 	str	wzr, [x2, #132]
   8580c:	b900885f 	str	wzr, [x2, #136]
   85810:	b90020c9 	str	w9, [x6, #32]
   85814:	d503201f 	nop
   85818:	b9400062 	ldr	w2, [x3]
   8581c:	37ffffe2 	tbnz	w2, #31, 85818 <fb_init+0xf8>
   85820:	d2971400 	mov	x0, #0xb8a0                	// #47264
   85824:	f2a7e000 	movk	x0, #0x3f00, lsl #16
   85828:	d2971303 	mov	x3, #0xb898                	// #47256
   8582c:	f2a7e003 	movk	x3, #0x3f00, lsl #16
   85830:	d2971005 	mov	x5, #0xb880                	// #47232
   85834:	f2a7e005 	movk	x5, #0x3f00, lsl #16
   85838:	b9000004 	str	w4, [x0]
   8583c:	d503201f 	nop
   85840:	b9400062 	ldr	w2, [x3]
   85844:	37f7ffe2 	tbnz	w2, #30, 85840 <fb_init+0x120>
   85848:	b94000a2 	ldr	w2, [x5]
   8584c:	6b02009f 	cmp	w4, w2
   85850:	54ffff81 	b.ne	85840 <fb_init+0x120>  // b.any
   85854:	b94024c4 	ldr	w4, [x6, #36]
   85858:	52b00003 	mov	w3, #0x80000000            	// #-2147483648
   8585c:	52800000 	mov	w0, #0x0                   	// #0
   85860:	6b03009f 	cmp	w4, w3
   85864:	54000141 	b.ne	8588c <fb_init+0x16c>  // b.any
   85868:	b94090c0 	ldr	w0, [x6, #144]
   8586c:	b940a4c2 	ldr	w2, [x6, #164]
   85870:	92407403 	and	x3, x0, #0x3fffffff
   85874:	b90b2107 	str	w7, [x8, #2848]
   85878:	f240741f 	tst	x0, #0x3fffffff
   8587c:	b90004c1 	str	w1, [x6, #4]
   85880:	1a9f07e0 	cset	w0, ne  // ne = any
   85884:	f90004c3 	str	x3, [x6, #8]
   85888:	b90010c2 	str	w2, [x6, #16]
   8588c:	d65f03c0 	ret

0000000000085890 <fb_pixel>:
   85890:	d0000043 	adrp	x3, 8f000 <g_msg+0x18>
   85894:	912c8064 	add	x4, x3, #0xb20
   85898:	b94b2063 	ldr	w3, [x3, #2848]
   8589c:	6b03001f 	cmp	w0, w3
   858a0:	54000142 	b.cs	858c8 <fb_pixel+0x38>  // b.hs, b.nlast
   858a4:	b9400483 	ldr	w3, [x4, #4]
   858a8:	6b03003f 	cmp	w1, w3
   858ac:	540000e2 	b.cs	858c8 <fb_pixel+0x38>  // b.hs, b.nlast
   858b0:	b9401085 	ldr	w5, [x4, #16]
   858b4:	531e7400 	lsl	w0, w0, #2
   858b8:	f9400483 	ldr	x3, [x4, #8]
   858bc:	1b057c21 	mul	w1, w1, w5
   858c0:	8b20c020 	add	x0, x1, w0, sxtw
   858c4:	b8206862 	str	w2, [x3, x0]
   858c8:	d65f03c0 	ret
   858cc:	d503201f 	nop

00000000000858d0 <fb_fill>:
   858d0:	7100005f 	cmp	w2, #0x0
   858d4:	7a40c864 	ccmp	w3, #0x0, #0x4, gt
   858d8:	5400004d 	b.le	858e0 <fb_fill+0x10>
   858dc:	17ffff31 	b	855a0 <fb_fill.part.0>
   858e0:	d65f03c0 	ret
   858e4:	d503201f 	nop
   858e8:	d503201f 	nop
   858ec:	d503201f 	nop

00000000000858f0 <fb_clear>:
   858f0:	d0000042 	adrp	x2, 8f000 <g_msg+0x18>
   858f4:	912c8041 	add	x1, x2, #0xb20
   858f8:	b94b2043 	ldr	w3, [x2, #2848]
   858fc:	b9400426 	ldr	w6, [x1, #4]
   85900:	7100007f 	cmp	w3, #0x0
   85904:	7a40c8c4 	ccmp	w6, #0x0, #0x4, gt
   85908:	5400020d 	b.le	85948 <fb_clear+0x58>
   8590c:	b9401027 	ldr	w7, [x1, #16]
   85910:	52800005 	mov	w5, #0x0                   	// #0
   85914:	f9400428 	ldr	x8, [x1, #8]
   85918:	52800004 	mov	w4, #0x0                   	// #0
   8591c:	d503201f 	nop
   85920:	8b254102 	add	x2, x8, w5, uxtw
   85924:	52800001 	mov	w1, #0x0                   	// #0
   85928:	b8004440 	str	w0, [x2], #4
   8592c:	11000421 	add	w1, w1, #0x1
   85930:	6b01007f 	cmp	w3, w1
   85934:	54ffffac 	b.gt	85928 <fb_clear+0x38>
   85938:	11000484 	add	w4, w4, #0x1
   8593c:	0b0700a5 	add	w5, w5, w7
   85940:	6b0400df 	cmp	w6, w4
   85944:	54fffeec 	b.gt	85920 <fb_clear+0x30>
   85948:	d65f03c0 	ret
   8594c:	d503201f 	nop

0000000000085950 <fb_char>:
   85950:	a9bd7bfd 	stp	x29, x30, [sp, #-48]!
   85954:	12001c42 	and	w2, w2, #0xff
   85958:	51008042 	sub	w2, w2, #0x20
   8595c:	910003fd 	mov	x29, sp
   85960:	a90153f3 	stp	x19, x20, [sp, #16]
   85964:	7101685f 	cmp	w2, #0x5a
   85968:	2a0303ef 	mov	w15, w3
   8596c:	a9025bf5 	stp	x21, x22, [sp, #32]
   85970:	2a0103f6 	mov	w22, w1
   85974:	54000508 	b.hi	85a14 <fb_char+0xc4>  // b.pmore
   85978:	528000a3 	mov	w3, #0x5                   	// #5
   8597c:	b0000041 	adrp	x1, 8e000 <sc_scope_draw+0x570>
   85980:	91170021 	add	x1, x1, #0x5c0
   85984:	9ba37c42 	umull	x2, w2, w3
   85988:	8b020035 	add	x21, x1, x2
   8598c:	38626832 	ldrb	w18, [x1, x2]
   85990:	910006b4 	add	x20, x21, #0x1
   85994:	2a0003f3 	mov	w19, w0
   85998:	910016b5 	add	x21, x21, #0x5
   8599c:	2a1603ee 	mov	w14, w22
   859a0:	5280000d 	mov	w13, #0x0                   	// #0
   859a4:	14000004 	b	859b4 <fb_char+0x64>
   859a8:	0b0f01ce 	add	w14, w14, w15
   859ac:	71001dbf 	cmp	w13, #0x7
   859b0:	540001c0 	b.eq	859e8 <fb_char+0x98>  // b.none
   859b4:	1acd2642 	lsr	w2, w18, w13
   859b8:	110005ad 	add	w13, w13, #0x1
   859bc:	3607ff62 	tbz	w2, #0, 859a8 <fb_char+0x58>
   859c0:	710001ff 	cmp	w15, #0x0
   859c4:	54ffff2d 	b.le	859a8 <fb_char+0x58>
   859c8:	2a0e03e1 	mov	w1, w14
   859cc:	2a0f03e3 	mov	w3, w15
   859d0:	2a0f03e2 	mov	w2, w15
   859d4:	2a1303e0 	mov	w0, w19
   859d8:	97fffef2 	bl	855a0 <fb_fill.part.0>
   859dc:	0b0f01ce 	add	w14, w14, w15
   859e0:	71001dbf 	cmp	w13, #0x7
   859e4:	54fffe81 	b.ne	859b4 <fb_char+0x64>  // b.any
   859e8:	0b0f0273 	add	w19, w19, w15
   859ec:	eb1402bf 	cmp	x21, x20
   859f0:	54000060 	b.eq	859fc <fb_char+0xac>  // b.none
   859f4:	38401692 	ldrb	w18, [x20], #1
   859f8:	17ffffe9 	b	8599c <fb_char+0x4c>
   859fc:	528000c0 	mov	w0, #0x6                   	// #6
   85a00:	a94153f3 	ldp	x19, x20, [sp, #16]
   85a04:	1b007de0 	mul	w0, w15, w0
   85a08:	a9425bf5 	ldp	x21, x22, [sp, #32]
   85a0c:	a8c37bfd 	ldp	x29, x30, [sp], #48
   85a10:	d65f03c0 	ret
   85a14:	b0000055 	adrp	x21, 8e000 <sc_scope_draw+0x570>
   85a18:	911702b5 	add	x21, x21, #0x5c0
   85a1c:	52800012 	mov	w18, #0x0                   	// #0
   85a20:	17ffffdc 	b	85990 <fb_char+0x40>
   85a24:	d503201f 	nop
   85a28:	d503201f 	nop
   85a2c:	d503201f 	nop

0000000000085a30 <fb_text>:
   85a30:	39400045 	ldrb	w5, [x2]
   85a34:	340003c5 	cbz	w5, 85aac <fb_text+0x7c>
   85a38:	a9bc7bfd 	stp	x29, x30, [sp, #-64]!
   85a3c:	910003fd 	mov	x29, sp
   85a40:	a90153f3 	stp	x19, x20, [sp, #16]
   85a44:	91000454 	add	x20, x2, #0x1
   85a48:	2a0003f3 	mov	w19, w0
   85a4c:	a9025bf5 	stp	x21, x22, [sp, #32]
   85a50:	2a0103f5 	mov	w21, w1
   85a54:	2a0303f6 	mov	w22, w3
   85a58:	f9001bf7 	str	x23, [sp, #48]
   85a5c:	2a0003f7 	mov	w23, w0
   85a60:	510184a6 	sub	w6, w5, #0x61
   85a64:	510080a2 	sub	w2, w5, #0x20
   85a68:	12001cc6 	and	w6, w6, #0xff
   85a6c:	12001c42 	and	w2, w2, #0xff
   85a70:	710068df 	cmp	w6, #0x1a
   85a74:	2a1303e0 	mov	w0, w19
   85a78:	1a853042 	csel	w2, w2, w5, cc  // cc = lo, ul, last
   85a7c:	2a1603e3 	mov	w3, w22
   85a80:	2a1503e1 	mov	w1, w21
   85a84:	97ffffb3 	bl	85950 <fb_char>
   85a88:	0b000273 	add	w19, w19, w0
   85a8c:	38401685 	ldrb	w5, [x20], #1
   85a90:	35fffe85 	cbnz	w5, 85a60 <fb_text+0x30>
   85a94:	4b170260 	sub	w0, w19, w23
   85a98:	a94153f3 	ldp	x19, x20, [sp, #16]
   85a9c:	a9425bf5 	ldp	x21, x22, [sp, #32]
   85aa0:	f9401bf7 	ldr	x23, [sp, #48]
   85aa4:	a8c47bfd 	ldp	x29, x30, [sp], #64
   85aa8:	d65f03c0 	ret
   85aac:	52800000 	mov	w0, #0x0                   	// #0
   85ab0:	d65f03c0 	ret
   85ab4:	d503201f 	nop
   85ab8:	d503201f 	nop
   85abc:	d503201f 	nop

0000000000085ac0 <fb_text_w>:
   85ac0:	39400002 	ldrb	w2, [x0]
   85ac4:	34000162 	cbz	w2, 85af0 <fb_text_w+0x30>
   85ac8:	d1000403 	sub	x3, x0, #0x1
   85acc:	d2800020 	mov	x0, #0x1                   	// #1
   85ad0:	2a0003e4 	mov	w4, w0
   85ad4:	91000400 	add	x0, x0, #0x1
   85ad8:	38606862 	ldrb	w2, [x3, x0]
   85adc:	35ffffa2 	cbnz	w2, 85ad0 <fb_text_w+0x10>
   85ae0:	1b047c21 	mul	w1, w1, w4
   85ae4:	528000c0 	mov	w0, #0x6                   	// #6
   85ae8:	1b007c20 	mul	w0, w1, w0
   85aec:	d65f03c0 	ret
   85af0:	52800000 	mov	w0, #0x0                   	// #0
   85af4:	d65f03c0 	ret
   85af8:	d503201f 	nop
   85afc:	d503201f 	nop

0000000000085b00 <fb_char8>:
   85b00:	a9bd7bfd 	stp	x29, x30, [sp, #-48]!
   85b04:	d37d1842 	ubfiz	x2, x2, #3, #7
   85b08:	2a0303ef 	mov	w15, w3
   85b0c:	910003fd 	mov	x29, sp
   85b10:	a90153f3 	stp	x19, x20, [sp, #16]
   85b14:	b0000053 	adrp	x19, 8e000 <sc_scope_draw+0x570>
   85b18:	912c2273 	add	x19, x19, #0xb08
   85b1c:	8b130053 	add	x19, x2, x19
   85b20:	2a0103f4 	mov	w20, w1
   85b24:	a9025bf5 	stp	x21, x22, [sp, #32]
   85b28:	2a0003f5 	mov	w21, w0
   85b2c:	91002276 	add	x22, x19, #0x8
   85b30:	39400272 	ldrb	w18, [x19]
   85b34:	2a1503ee 	mov	w14, w21
   85b38:	5280000d 	mov	w13, #0x0                   	// #0
   85b3c:	14000004 	b	85b4c <fb_char8+0x4c>
   85b40:	0b0f01ce 	add	w14, w14, w15
   85b44:	710021bf 	cmp	w13, #0x8
   85b48:	540001c0 	b.eq	85b80 <fb_char8+0x80>  // b.none
   85b4c:	1acd2645 	lsr	w5, w18, w13
   85b50:	110005ad 	add	w13, w13, #0x1
   85b54:	3607ff65 	tbz	w5, #0, 85b40 <fb_char8+0x40>
   85b58:	710001ff 	cmp	w15, #0x0
   85b5c:	54ffff2d 	b.le	85b40 <fb_char8+0x40>
   85b60:	2a0e03e0 	mov	w0, w14
   85b64:	2a0f03e3 	mov	w3, w15
   85b68:	2a0f03e2 	mov	w2, w15
   85b6c:	2a1403e1 	mov	w1, w20
   85b70:	97fffe8c 	bl	855a0 <fb_fill.part.0>
   85b74:	0b0f01ce 	add	w14, w14, w15
   85b78:	710021bf 	cmp	w13, #0x8
   85b7c:	54fffe81 	b.ne	85b4c <fb_char8+0x4c>  // b.any
   85b80:	91000673 	add	x19, x19, #0x1
   85b84:	0b0f0294 	add	w20, w20, w15
   85b88:	eb16027f 	cmp	x19, x22
   85b8c:	54fffd21 	b.ne	85b30 <fb_char8+0x30>  // b.any
   85b90:	0b0f0de0 	add	w0, w15, w15, lsl #3
   85b94:	a94153f3 	ldp	x19, x20, [sp, #16]
   85b98:	a9425bf5 	ldp	x21, x22, [sp, #32]
   85b9c:	a8c37bfd 	ldp	x29, x30, [sp], #48
   85ba0:	d65f03c0 	ret
   85ba4:	d503201f 	nop
   85ba8:	d503201f 	nop
   85bac:	d503201f 	nop

0000000000085bb0 <fb_text8>:
   85bb0:	a9bc7bfd 	stp	x29, x30, [sp, #-64]!
   85bb4:	910003fd 	mov	x29, sp
   85bb8:	a90153f3 	stp	x19, x20, [sp, #16]
   85bbc:	aa0203f4 	mov	x20, x2
   85bc0:	39400042 	ldrb	w2, [x2]
   85bc4:	340002c2 	cbz	w2, 85c1c <fb_text8+0x6c>
   85bc8:	91000694 	add	x20, x20, #0x1
   85bcc:	2a0003f3 	mov	w19, w0
   85bd0:	a9025bf5 	stp	x21, x22, [sp, #32]
   85bd4:	2a0103f5 	mov	w21, w1
   85bd8:	2a0303f6 	mov	w22, w3
   85bdc:	f9001bf7 	str	x23, [sp, #48]
   85be0:	2a0003f7 	mov	w23, w0
   85be4:	d503201f 	nop
   85be8:	2a1303e0 	mov	w0, w19
   85bec:	2a1603e3 	mov	w3, w22
   85bf0:	2a1503e1 	mov	w1, w21
   85bf4:	97ffffc3 	bl	85b00 <fb_char8>
   85bf8:	38401682 	ldrb	w2, [x20], #1
   85bfc:	0b000273 	add	w19, w19, w0
   85c00:	35ffff42 	cbnz	w2, 85be8 <fb_text8+0x38>
   85c04:	4b170260 	sub	w0, w19, w23
   85c08:	a94153f3 	ldp	x19, x20, [sp, #16]
   85c0c:	a9425bf5 	ldp	x21, x22, [sp, #32]
   85c10:	f9401bf7 	ldr	x23, [sp, #48]
   85c14:	a8c47bfd 	ldp	x29, x30, [sp], #64
   85c18:	d65f03c0 	ret
   85c1c:	52800000 	mov	w0, #0x0                   	// #0
   85c20:	a94153f3 	ldp	x19, x20, [sp, #16]
   85c24:	a8c47bfd 	ldp	x29, x30, [sp], #64
   85c28:	d65f03c0 	ret
   85c2c:	d503201f 	nop

0000000000085c30 <fb_text8_w>:
   85c30:	39400002 	ldrb	w2, [x0]
   85c34:	34000142 	cbz	w2, 85c5c <fb_text8_w+0x2c>
   85c38:	d1000403 	sub	x3, x0, #0x1
   85c3c:	d2800020 	mov	x0, #0x1                   	// #1
   85c40:	2a0003e4 	mov	w4, w0
   85c44:	91000400 	add	x0, x0, #0x1
   85c48:	38606862 	ldrb	w2, [x3, x0]
   85c4c:	35ffffa2 	cbnz	w2, 85c40 <fb_text8_w+0x10>
   85c50:	1b047c20 	mul	w0, w1, w4
   85c54:	0b000c00 	add	w0, w0, w0, lsl #3
   85c58:	d65f03c0 	ret
   85c5c:	52800000 	mov	w0, #0x0                   	// #0
   85c60:	d65f03c0 	ret
   85c64:	d503201f 	nop
   85c68:	d503201f 	nop
   85c6c:	d503201f 	nop

0000000000085c70 <fb_clock_reset>:
   85c70:	d0000040 	adrp	x0, 8f000 <g_msg+0x18>
   85c74:	52800021 	mov	w1, #0x1                   	// #1
   85c78:	b90be001 	str	w1, [x0, #3040]
   85c7c:	d65f03c0 	ret

0000000000085c80 <fb_clock_big>:
   85c80:	a9b67bfd 	stp	x29, x30, [sp, #-160]!
   85c84:	d0000046 	adrp	x6, 8f000 <g_msg+0x18>
   85c88:	2a0203e4 	mov	w4, w2
   85c8c:	910003fd 	mov	x29, sp
   85c90:	f90043e0 	str	x0, [sp, #128]
   85c94:	912c80c0 	add	x0, x6, #0xb20
   85c98:	a90153f3 	stp	x19, x20, [sp, #16]
   85c9c:	b940c000 	ldr	w0, [x0, #192]
   85ca0:	a9025bf5 	stp	x21, x22, [sp, #32]
   85ca4:	a90363f7 	stp	x23, x24, [sp, #48]
   85ca8:	2a0103f7 	mov	w23, w1
   85cac:	a9046bf9 	stp	x25, x26, [sp, #64]
   85cb0:	a90573fb 	stp	x27, x28, [sp, #80]
   85cb4:	35001e60 	cbnz	w0, 86080 <fb_clock_big+0x400>
   85cb8:	f94043e1 	ldr	x1, [sp, #128]
   85cbc:	d0000040 	adrp	x0, 8f000 <g_msg+0x18>
   85cc0:	b9418005 	ldr	w5, [x0, #384]
   85cc4:	f9004fe0 	str	x0, [sp, #152]
   85cc8:	39400020 	ldrb	w0, [x1]
   85ccc:	34001f20 	cbz	w0, 860b0 <fb_clock_big+0x430>
   85cd0:	d1000422 	sub	x2, x1, #0x1
   85cd4:	d2800021 	mov	x1, #0x1                   	// #1
   85cd8:	b90073e1 	str	w1, [sp, #112]
   85cdc:	91000421 	add	x1, x1, #0x1
   85ce0:	38616843 	ldrb	w3, [x2, x1]
   85ce4:	35ffffa3 	cbnz	w3, 85cd8 <fb_clock_big+0x58>
   85ce8:	b94073e1 	ldr	w1, [sp, #112]
   85cec:	528000da 	mov	w26, #0x6                   	// #6
   85cf0:	1b1a7c3a 	mul	w26, w1, w26
   85cf4:	5100075a 	sub	w26, w26, #0x1
   85cf8:	d0000041 	adrp	x1, 8f000 <g_msg+0x18>
   85cfc:	912c8021 	add	x1, x1, #0xb20
   85d00:	52849273 	mov	w19, #0x2493                	// #9363
   85d04:	72b24933 	movk	w19, #0x9249, lsl #16
   85d08:	b94b20c6 	ldr	w6, [x6, #2848]
   85d0c:	b9400421 	ldr	w1, [x1, #4]
   85d10:	7100dc3f 	cmp	w1, #0x37
   85d14:	9b337c33 	smull	x19, w1, w19
   85d18:	d360fe73 	lsr	x19, x19, #32
   85d1c:	0b130033 	add	w19, w1, w19
   85d20:	13047e73 	asr	w19, w19, #4
   85d24:	4b817e73 	sub	w19, w19, w1, asr #31
   85d28:	540016ac 	b.gt	85ffc <fb_clock_big+0x37c>
   85d2c:	528000e1 	mov	w1, #0x7                   	// #7
   85d30:	0b1a0354 	add	w20, w26, w26
   85d34:	52800053 	mov	w19, #0x2                   	// #2
   85d38:	52800036 	mov	w22, #0x1                   	// #1
   85d3c:	b90093e1 	str	w1, [sp, #144]
   85d40:	528001c1 	mov	w1, #0xe                   	// #14
   85d44:	b9008fe1 	str	w1, [sp, #140]
   85d48:	d3483ee1 	ubfx	x1, x23, #8, #8
   85d4c:	d3505ef5 	ubfx	x21, x23, #16, #8
   85d50:	52955567 	mov	w7, #0xaaab                	// #43691
   85d54:	72b55547 	movk	w7, #0xaaaa, lsl #16
   85d58:	12001ee2 	and	w2, w23, #0xff
   85d5c:	4b1400c3 	sub	w3, w6, w20
   85d60:	9ba77c21 	umull	x1, w1, w7
   85d64:	6b05027f 	cmp	w19, w5
   85d68:	9ba77eb5 	umull	x21, w21, w7
   85d6c:	0b437c63 	add	w3, w3, w3, lsr #31
   85d70:	9ba77c42 	umull	x2, w2, w7
   85d74:	d362fc21 	lsr	x1, x1, #34
   85d78:	13017c63 	asr	w3, w3, #1
   85d7c:	d362feb5 	lsr	x21, x21, #34
   85d80:	b9006fe3 	str	w3, [sp, #108]
   85d84:	53185c21 	lsl	w1, w1, #8
   85d88:	d362fc42 	lsr	x2, x2, #34
   85d8c:	2a154035 	orr	w21, w1, w21, lsl #16
   85d90:	2a0202b5 	orr	w21, w21, w2
   85d94:	54001b60 	b.eq	86100 <fb_clock_big+0x480>  // b.none
   85d98:	710000bf 	cmp	w5, #0x0
   85d9c:	5400190c 	b.gt	860bc <fb_clock_big+0x43c>
   85da0:	b9408fe0 	ldr	w0, [sp, #140]
   85da4:	7100029f 	cmp	w20, #0x0
   85da8:	7a40c804 	ccmp	w0, #0x0, #0x4, gt
   85dac:	540000cd 	b.le	85dc4 <fb_clock_big+0x144>
   85db0:	2a0003e3 	mov	w3, w0
   85db4:	b94093e1 	ldr	w1, [sp, #144]
   85db8:	b9406fe0 	ldr	w0, [sp, #108]
   85dbc:	2a1403e2 	mov	w2, w20
   85dc0:	97fffdf8 	bl	855a0 <fb_fill.part.0>
   85dc4:	7100035f 	cmp	w26, #0x0
   85dc8:	5400030d 	b.le	85e28 <fb_clock_big+0x1a8>
   85dcc:	0b537e7c 	add	w28, w19, w19, lsr #31
   85dd0:	b9406fe0 	ldr	w0, [sp, #108]
   85dd4:	52800018 	mov	w24, #0x0                   	// #0
   85dd8:	13017f9c 	asr	w28, w28, #1
   85ddc:	0b00039b 	add	w27, w28, w0
   85de0:	b94093e0 	ldr	w0, [sp, #144]
   85de4:	0b000380 	add	w0, w28, w0
   85de8:	b9007be0 	str	w0, [sp, #120]
   85dec:	d503201f 	nop
   85df0:	b9407bfc 	ldr	w28, [sp, #120]
   85df4:	528000f9 	mov	w25, #0x7                   	// #7
   85df8:	2a1c03e1 	mov	w1, w28
   85dfc:	2a1503e3 	mov	w3, w21
   85e00:	2a1603e2 	mov	w2, w22
   85e04:	2a1b03e0 	mov	w0, w27
   85e08:	97fffe12 	bl	85650 <fb_disc>
   85e0c:	0b13039c 	add	w28, w28, w19
   85e10:	71000739 	subs	w25, w25, #0x1
   85e14:	54ffff21 	b.ne	85df8 <fb_clock_big+0x178>  // b.any
   85e18:	11000718 	add	w24, w24, #0x1
   85e1c:	0b13037b 	add	w27, w27, w19
   85e20:	6b1a031f 	cmp	w24, w26
   85e24:	54fffe61 	b.ne	85df0 <fb_clock_big+0x170>  // b.any
   85e28:	d0000040 	adrp	x0, 8f000 <g_msg+0x18>
   85e2c:	912c8000 	add	x0, x0, #0xb20
   85e30:	d0000041 	adrp	x1, 8f000 <g_msg+0x18>
   85e34:	912c8021 	add	x1, x1, #0xb20
   85e38:	b9406fe2 	ldr	w2, [sp, #108]
   85e3c:	3903201f 	strb	wzr, [x0, #200]
   85e40:	52800020 	mov	w0, #0x1                   	// #1
   85e44:	b9008be0 	str	w0, [sp, #136]
   85e48:	f9404fe0 	ldr	x0, [sp, #152]
   85e4c:	b900d822 	str	w2, [x1, #216]
   85e50:	d0000041 	adrp	x1, 8f000 <g_msg+0x18>
   85e54:	912c8021 	add	x1, x1, #0xb20
   85e58:	b94093e2 	ldr	w2, [sp, #144]
   85e5c:	b9018013 	str	w19, [x0, #384]
   85e60:	b900dc22 	str	w2, [x1, #220]
   85e64:	d0000041 	adrp	x1, 8f000 <g_msg+0x18>
   85e68:	912c8021 	add	x1, x1, #0xb20
   85e6c:	b9408fe2 	ldr	w2, [sp, #140]
   85e70:	f94043e0 	ldr	x0, [sp, #128]
   85e74:	b900e034 	str	w20, [x1, #224]
   85e78:	d0000041 	adrp	x1, 8f000 <g_msg+0x18>
   85e7c:	912c8021 	add	x1, x1, #0xb20
   85e80:	39400000 	ldrb	w0, [x0]
   85e84:	b900e422 	str	w2, [x1, #228]
   85e88:	b94073e2 	ldr	w2, [sp, #112]
   85e8c:	34000842 	cbz	w2, 85f94 <fb_clock_big+0x314>
   85e90:	528000c3 	mov	w3, #0x6                   	// #6
   85e94:	0b537e61 	add	w1, w19, w19, lsr #31
   85e98:	f94043e4 	ldr	x4, [sp, #128]
   85e9c:	1b037e63 	mul	w3, w19, w3
   85ea0:	b9008fe3 	str	w3, [sp, #140]
   85ea4:	13017c21 	asr	w1, w1, #1
   85ea8:	b94093e3 	ldr	w3, [sp, #144]
   85eac:	91000484 	add	x4, x4, #0x1
   85eb0:	51000442 	sub	w2, w2, #0x1
   85eb4:	b9009be1 	str	w1, [sp, #152]
   85eb8:	0b03003a 	add	w26, w1, w3
   85ebc:	8b040041 	add	x1, x2, x4
   85ec0:	f9004be1 	str	x1, [sp, #144]
   85ec4:	d0000041 	adrp	x1, 8f000 <g_msg+0x18>
   85ec8:	912c8021 	add	x1, x1, #0xb20
   85ecc:	f9003be4 	str	x4, [sp, #112]
   85ed0:	91032021 	add	x1, x1, #0xc8
   85ed4:	f9003fe1 	str	x1, [sp, #120]
   85ed8:	b9408be1 	ldr	w1, [sp, #136]
   85edc:	350000a1 	cbnz	w1, 85ef0 <fb_clock_big+0x270>
   85ee0:	f9403fe1 	ldr	x1, [sp, #120]
   85ee4:	39400021 	ldrb	w1, [x1]
   85ee8:	6b00003f 	cmp	w1, w0
   85eec:	54000320 	b.eq	85f50 <fb_clock_big+0x2d0>  // b.none
   85ef0:	94000b50 	bl	88c30 <glyph>
   85ef4:	aa0003f4 	mov	x20, x0
   85ef8:	b9409be1 	ldr	w1, [sp, #152]
   85efc:	91001418 	add	x24, x0, #0x5
   85f00:	b9406fe0 	ldr	w0, [sp, #108]
   85f04:	0b01001c 	add	w28, w0, w1
   85f08:	2a1a03f9 	mov	w25, w26
   85f0c:	5280001b 	mov	w27, #0x0                   	// #0
   85f10:	39400283 	ldrb	w3, [x20]
   85f14:	2a1903e1 	mov	w1, w25
   85f18:	2a1603e2 	mov	w2, w22
   85f1c:	2a1c03e0 	mov	w0, w28
   85f20:	0b130339 	add	w25, w25, w19
   85f24:	1adb2863 	asr	w3, w3, w27
   85f28:	1100077b 	add	w27, w27, #0x1
   85f2c:	f240007f 	tst	x3, #0x1
   85f30:	1a9512e3 	csel	w3, w23, w21, ne  // ne = any
   85f34:	97fffdc7 	bl	85650 <fb_disc>
   85f38:	71001f7f 	cmp	w27, #0x7
   85f3c:	54fffea1 	b.ne	85f10 <fb_clock_big+0x290>  // b.any
   85f40:	91000694 	add	x20, x20, #0x1
   85f44:	0b13039c 	add	w28, w28, w19
   85f48:	eb14031f 	cmp	x24, x20
   85f4c:	54fffde1 	b.ne	85f08 <fb_clock_big+0x288>  // b.any
   85f50:	b9406fe0 	ldr	w0, [sp, #108]
   85f54:	b9408fe1 	ldr	w1, [sp, #140]
   85f58:	0b010000 	add	w0, w0, w1
   85f5c:	b9006fe0 	str	w0, [sp, #108]
   85f60:	f9403fe0 	ldr	x0, [sp, #120]
   85f64:	f9403be1 	ldr	x1, [sp, #112]
   85f68:	91000400 	add	x0, x0, #0x1
   85f6c:	f9003fe0 	str	x0, [sp, #120]
   85f70:	f9404be0 	ldr	x0, [sp, #144]
   85f74:	eb01001f 	cmp	x0, x1
   85f78:	540000a0 	b.eq	85f8c <fb_clock_big+0x30c>  // b.none
   85f7c:	f9403be1 	ldr	x1, [sp, #112]
   85f80:	38401420 	ldrb	w0, [x1], #1
   85f84:	f9003be1 	str	x1, [sp, #112]
   85f88:	17ffffd4 	b	85ed8 <fb_clock_big+0x258>
   85f8c:	f94043e0 	ldr	x0, [sp, #128]
   85f90:	39400000 	ldrb	w0, [x0]
   85f94:	34000d20 	cbz	w0, 86138 <fb_clock_big+0x4b8>
   85f98:	d0000041 	adrp	x1, 8f000 <g_msg+0x18>
   85f9c:	912c8021 	add	x1, x1, #0xb20
   85fa0:	91032024 	add	x4, x1, #0xc8
   85fa4:	d2800021 	mov	x1, #0x1                   	// #1
   85fa8:	8b010082 	add	x2, x4, x1
   85fac:	2a0103e3 	mov	w3, w1
   85fb0:	381ff040 	sturb	w0, [x2, #-1]
   85fb4:	f94043e0 	ldr	x0, [sp, #128]
   85fb8:	38616800 	ldrb	w0, [x0, x1]
   85fbc:	91000421 	add	x1, x1, #0x1
   85fc0:	f100403f 	cmp	x1, #0x10
   85fc4:	34000060 	cbz	w0, 85fd0 <fb_clock_big+0x350>
   85fc8:	54ffff01 	b.ne	85fa8 <fb_clock_big+0x328>  // b.any
   85fcc:	528001e3 	mov	w3, #0xf                   	// #15
   85fd0:	d0000040 	adrp	x0, 8f000 <g_msg+0x18>
   85fd4:	912c8000 	add	x0, x0, #0xb20
   85fd8:	91032000 	add	x0, x0, #0xc8
   85fdc:	3823c81f 	strb	wzr, [x0, w3, sxtw]
   85fe0:	a94153f3 	ldp	x19, x20, [sp, #16]
   85fe4:	a9425bf5 	ldp	x21, x22, [sp, #32]
   85fe8:	a94363f7 	ldp	x23, x24, [sp, #48]
   85fec:	a9446bf9 	ldp	x25, x26, [sp, #64]
   85ff0:	a94573fb 	ldp	x27, x28, [sp, #80]
   85ff4:	a8ca7bfd 	ldp	x29, x30, [sp], #160
   85ff8:	d65f03c0 	ret
   85ffc:	52800be3 	mov	w3, #0x5f                  	// #95
   86000:	5290a3e2 	mov	w2, #0x851f                	// #34079
   86004:	72aa3d62 	movk	w2, #0x51eb, lsl #16
   86008:	71014c3f 	cmp	w1, #0x53
   8600c:	1b037cc3 	mul	w3, w6, w3
   86010:	1b1a7e74 	mul	w20, w19, w26
   86014:	9b227c61 	smull	x1, w3, w2
   86018:	9365fc21 	asr	x1, x1, #37
   8601c:	4b837c23 	sub	w3, w1, w3, asr #31
   86020:	7a43c284 	ccmp	w20, w3, #0x4, gt
   86024:	540008ed 	b.le	86140 <fb_clock_big+0x4c0>
   86028:	4b1a0281 	sub	w1, w20, w26
   8602c:	d503201f 	nop
   86030:	6b03003f 	cmp	w1, w3
   86034:	51000673 	sub	w19, w19, #0x1
   86038:	2a0103f4 	mov	w20, w1
   8603c:	7a42ca64 	ccmp	w19, #0x2, #0x4, gt
   86040:	4b1a0021 	sub	w1, w1, w26
   86044:	54ffff6c 	b.gt	86030 <fb_clock_big+0x3b0>
   86048:	52800a01 	mov	w1, #0x50                  	// #80
   8604c:	5290a3f6 	mov	w22, #0x851f                	// #34079
   86050:	72aa3d76 	movk	w22, #0x51eb, lsl #16
   86054:	528000e2 	mov	w2, #0x7                   	// #7
   86058:	1b017e61 	mul	w1, w19, w1
   8605c:	1b027e62 	mul	w2, w19, w2
   86060:	b9008fe2 	str	w2, [sp, #140]
   86064:	9bb67c36 	umull	x22, w1, w22
   86068:	13017c42 	asr	w2, w2, #1
   8606c:	b90093e2 	str	w2, [sp, #144]
   86070:	d366fed6 	lsr	x22, x22, #38
   86074:	71031c3f 	cmp	w1, #0xc7
   86078:	1a9fc6d6 	csinc	w22, w22, wzr, gt
   8607c:	17ffff33 	b	85d48 <fb_clock_big+0xc8>
   86080:	b0000041 	adrp	x1, 8f000 <g_msg+0x18>
   86084:	b0000042 	adrp	x2, 8f000 <g_msg+0x18>
   86088:	912c8042 	add	x2, x2, #0xb20
   8608c:	12800000 	mov	w0, #0xffffffff            	// #-1
   86090:	b9018020 	str	w0, [x1, #384]
   86094:	2a0003e5 	mov	w5, w0
   86098:	f9004fe1 	str	x1, [sp, #152]
   8609c:	f94043e1 	ldr	x1, [sp, #128]
   860a0:	3903205f 	strb	wzr, [x2, #200]
   860a4:	b900c05f 	str	wzr, [x2, #192]
   860a8:	39400020 	ldrb	w0, [x1]
   860ac:	35ffe120 	cbnz	w0, 85cd0 <fb_clock_big+0x50>
   860b0:	1280001a 	mov	w26, #0xffffffff            	// #-1
   860b4:	b90073ff 	str	wzr, [sp, #112]
   860b8:	17ffff10 	b	85cf8 <fb_clock_big+0x78>
   860bc:	b0000040 	adrp	x0, 8f000 <g_msg+0x18>
   860c0:	912c8000 	add	x0, x0, #0xb20
   860c4:	b940e002 	ldr	w2, [x0, #224]
   860c8:	b0000040 	adrp	x0, 8f000 <g_msg+0x18>
   860cc:	912c8000 	add	x0, x0, #0xb20
   860d0:	7100005f 	cmp	w2, #0x0
   860d4:	b940e403 	ldr	w3, [x0, #228]
   860d8:	7a40c864 	ccmp	w3, #0x0, #0x4, gt
   860dc:	54ffe62d 	b.le	85da0 <fb_clock_big+0x120>
   860e0:	b0000040 	adrp	x0, 8f000 <g_msg+0x18>
   860e4:	912c8000 	add	x0, x0, #0xb20
   860e8:	b0000041 	adrp	x1, 8f000 <g_msg+0x18>
   860ec:	912c8021 	add	x1, x1, #0xb20
   860f0:	b940d800 	ldr	w0, [x0, #216]
   860f4:	b940dc21 	ldr	w1, [x1, #220]
   860f8:	97fffd2a 	bl	855a0 <fb_fill.part.0>
   860fc:	17ffff29 	b	85da0 <fb_clock_big+0x120>
   86100:	b0000041 	adrp	x1, 8f000 <g_msg+0x18>
   86104:	912c8021 	add	x1, x1, #0xb20
   86108:	2a0303e2 	mov	w2, w3
   8610c:	b940d821 	ldr	w1, [x1, #216]
   86110:	6b02003f 	cmp	w1, w2
   86114:	54ffe421 	b.ne	85d98 <fb_clock_big+0x118>  // b.any
   86118:	b0000041 	adrp	x1, 8f000 <g_msg+0x18>
   8611c:	912c8021 	add	x1, x1, #0xb20
   86120:	b94093e2 	ldr	w2, [sp, #144]
   86124:	b9008bff 	str	wzr, [sp, #136]
   86128:	b940dc21 	ldr	w1, [x1, #220]
   8612c:	6b02003f 	cmp	w1, w2
   86130:	54ffe341 	b.ne	85d98 <fb_clock_big+0x118>  // b.any
   86134:	17ffff55 	b	85e88 <fb_clock_big+0x208>
   86138:	52800003 	mov	w3, #0x0                   	// #0
   8613c:	17ffffa5 	b	85fd0 <fb_clock_big+0x350>
   86140:	528000e3 	mov	w3, #0x7                   	// #7
   86144:	52800a01 	mov	w1, #0x50                  	// #80
   86148:	52800042 	mov	w2, #0x2                   	// #2
   8614c:	52801916 	mov	w22, #0xc8                  	// #200
   86150:	1b037e63 	mul	w3, w19, w3
   86154:	1b017e61 	mul	w1, w19, w1
   86158:	1ac20c62 	sdiv	w2, w3, w2
   8615c:	1ad60c36 	sdiv	w22, w1, w22
   86160:	29118be3 	stp	w3, w2, [sp, #140]
   86164:	17ffffc4 	b	86074 <fb_clock_big+0x3f4>
   86168:	d503201f 	nop
   8616c:	d503201f 	nop

0000000000086170 <fb_marquee_set>:
   86170:	39400002 	ldrb	w2, [x0]
   86174:	b0000046 	adrp	x6, 8f000 <g_msg+0x18>
   86178:	912c80c6 	add	x6, x6, #0xb20
   8617c:	34000362 	cbz	w2, 861e8 <fb_marquee_set+0x78>
   86180:	9103a0c5 	add	x5, x6, #0xe8
   86184:	d2800021 	mov	x1, #0x1                   	// #1
   86188:	14000002 	b	86190 <fb_marquee_set+0x20>
   8618c:	540001e0 	b.eq	861c8 <fb_marquee_set+0x58>  // b.none
   86190:	8b0100a3 	add	x3, x5, x1
   86194:	2a0103e4 	mov	w4, w1
   86198:	381ff062 	sturb	w2, [x3, #-1]
   8619c:	38616802 	ldrb	w2, [x0, x1]
   861a0:	91000421 	add	x1, x1, #0x1
   861a4:	f103243f 	cmp	x1, #0xc9
   861a8:	35ffff22 	cbnz	w2, 8618c <fb_marquee_set+0x1c>
   861ac:	9103a0c1 	add	x1, x6, #0xe8
   861b0:	b0000040 	adrp	x0, 8f000 <g_msg+0x18>
   861b4:	12800002 	mov	w2, #0xffffffff            	// #-1
   861b8:	b901b4c4 	str	w4, [x6, #436]
   861bc:	b9018402 	str	w2, [x0, #388]
   861c0:	3824c83f 	strb	wzr, [x1, w4, sxtw]
   861c4:	d65f03c0 	ret
   861c8:	9103a0c1 	add	x1, x6, #0xe8
   861cc:	52801904 	mov	w4, #0xc8                  	// #200
   861d0:	b0000040 	adrp	x0, 8f000 <g_msg+0x18>
   861d4:	12800002 	mov	w2, #0xffffffff            	// #-1
   861d8:	b901b4c4 	str	w4, [x6, #436]
   861dc:	b9018402 	str	w2, [x0, #388]
   861e0:	3824c83f 	strb	wzr, [x1, w4, sxtw]
   861e4:	d65f03c0 	ret
   861e8:	52800004 	mov	w4, #0x0                   	// #0
   861ec:	17fffff0 	b	861ac <fb_marquee_set+0x3c>

00000000000861f0 <fb_marquee_draw>:
   861f0:	a9b87bfd 	stp	x29, x30, [sp, #-128]!
   861f4:	b0000045 	adrp	x5, 8f000 <g_msg+0x18>
   861f8:	912c80b2 	add	x18, x5, #0xb20
   861fc:	910003fd 	mov	x29, sp
   86200:	a90363f7 	stp	x23, x24, [sp, #48]
   86204:	528000d8 	mov	w24, #0x6                   	// #6
   86208:	2a0403ed 	mov	w13, w4
   8620c:	a90153f3 	stp	x19, x20, [sp, #16]
   86210:	2a0003f3 	mov	w19, w0
   86214:	b941b654 	ldr	w20, [x18, #436]
   86218:	a90573fb 	stp	x27, x28, [sp, #80]
   8621c:	2a0103fc 	mov	w28, w1
   86220:	1b187c21 	mul	w1, w1, w24
   86224:	a9025bf5 	stp	x21, x22, [sp, #32]
   86228:	b94b20b5 	ldr	w21, [x5, #2848]
   8622c:	a9046bf9 	stp	x25, x26, [sp, #64]
   86230:	528000f9 	mov	w25, #0x7                   	// #7
   86234:	1b017e85 	mul	w5, w20, w1
   86238:	b9007be1 	str	w1, [sp, #120]
   8623c:	1b197f99 	mul	w25, w28, w25
   86240:	0b0502a0 	add	w0, w21, w5
   86244:	34001234 	cbz	w20, 86488 <fb_marquee_draw+0x298>
   86248:	2a0303ee 	mov	w14, w3
   8624c:	b0000043 	adrp	x3, 8f000 <g_msg+0x18>
   86250:	91060063 	add	x3, x3, #0x180
   86254:	b9400461 	ldr	w1, [x3, #4]
   86258:	37f80821 	tbnz	w1, #31, 8635c <fb_marquee_draw+0x16c>
   8625c:	0b020021 	add	w1, w1, w2
   86260:	6b00003f 	cmp	w1, w0
   86264:	5400108a 	b.ge	86474 <fb_marquee_draw+0x284>  // b.tcont
   86268:	4b0102af 	sub	w15, w21, w1
   8626c:	b9000461 	str	w1, [x3, #4]
   86270:	0b0f00a0 	add	w0, w5, w15
   86274:	710001ff 	cmp	w15, #0x0
   86278:	540007ac 	b.gt	8636c <fb_marquee_draw+0x17c>
   8627c:	6b0002bf 	cmp	w21, w0
   86280:	5400142c 	b.gt	86504 <fb_marquee_draw+0x314>
   86284:	7100029f 	cmp	w20, #0x0
   86288:	54000e2d 	b.le	8644c <fb_marquee_draw+0x25c>
   8628c:	6b0f02bf 	cmp	w21, w15
   86290:	54000ded 	b.le	8644c <fb_marquee_draw+0x25c>
   86294:	9103a252 	add	x18, x18, #0xe8
   86298:	51000694 	sub	w20, w20, #0x1
   8629c:	8b120280 	add	x0, x20, x18
   862a0:	f90037e0 	str	x0, [sp, #104]
   862a4:	9000005a 	adrp	x26, 8e000 <sc_scope_draw+0x570>
   862a8:	91170340 	add	x0, x26, #0x5c0
   862ac:	f9003be0 	str	x0, [sp, #112]
   862b0:	0b1c0b80 	add	w0, w28, w28, lsl #2
   862b4:	b9007fe0 	str	w0, [sp, #124]
   862b8:	b9407be0 	ldr	w0, [sp, #120]
   862bc:	2a0f03f7 	mov	w23, w15
   862c0:	0b0f000f 	add	w15, w0, w15
   862c4:	710001ff 	cmp	w15, #0x0
   862c8:	54000b6d 	b.le	86434 <fb_marquee_draw+0x244>
   862cc:	39400240 	ldrb	w0, [x18]
   862d0:	51008000 	sub	w0, w0, #0x20
   862d4:	7101681f 	cmp	w0, #0x5a
   862d8:	54000c88 	b.hi	86468 <fb_marquee_draw+0x278>  // b.pmore
   862dc:	528000a1 	mov	w1, #0x5                   	// #5
   862e0:	9ba17c00 	umull	x0, w0, w1
   862e4:	f9403be1 	ldr	x1, [sp, #112]
   862e8:	8b000028 	add	x8, x1, x0
   862ec:	38606822 	ldrb	w2, [x1, x0]
   862f0:	aa0803fb 	mov	x27, x8
   862f4:	2a1703fa 	mov	w26, w23
   862f8:	91001514 	add	x20, x8, #0x5
   862fc:	2a1303f8 	mov	w24, w19
   86300:	52800016 	mov	w22, #0x0                   	// #0
   86304:	14000002 	b	8630c <fb_marquee_draw+0x11c>
   86308:	39400362 	ldrb	w2, [x27]
   8630c:	1ad62842 	asr	w2, w2, w22
   86310:	2a1803e1 	mov	w1, w24
   86314:	f240005f 	tst	x2, #0x1
   86318:	110006d6 	add	w22, w22, #0x1
   8631c:	1a8d11c4 	csel	w4, w14, w13, ne  // ne = any
   86320:	7100039f 	cmp	w28, #0x0
   86324:	540000ad 	b.le	86338 <fb_marquee_draw+0x148>
   86328:	2a1c03e3 	mov	w3, w28
   8632c:	2a1c03e2 	mov	w2, w28
   86330:	2a1a03e0 	mov	w0, w26
   86334:	97fffc9b 	bl	855a0 <fb_fill.part.0>
   86338:	0b1c0318 	add	w24, w24, w28
   8633c:	71001edf 	cmp	w22, #0x7
   86340:	54fffe41 	b.ne	86308 <fb_marquee_draw+0x118>  // b.any
   86344:	9100077b 	add	x27, x27, #0x1
   86348:	0b1c035a 	add	w26, w26, w28
   8634c:	eb1b029f 	cmp	x20, x27
   86350:	540005e0 	b.eq	8640c <fb_marquee_draw+0x21c>  // b.none
   86354:	39400362 	ldrb	w2, [x27]
   86358:	17ffffe9 	b	862fc <fb_marquee_draw+0x10c>
   8635c:	b900047f 	str	wzr, [x3, #4]
   86360:	2a1503ef 	mov	w15, w21
   86364:	710001ff 	cmp	w15, #0x0
   86368:	54fff8ad 	b.le	8627c <fb_marquee_draw+0x8c>
   8636c:	7100033f 	cmp	w25, #0x0
   86370:	54fff8ad 	b.le	86284 <fb_marquee_draw+0x94>
   86374:	b9400647 	ldr	w7, [x18, #4]
   86378:	7100027f 	cmp	w19, #0x0
   8637c:	1a9fa263 	csel	w3, w19, wzr, ge  // ge = tcont
   86380:	0b130321 	add	w1, w25, w19
   86384:	6b0f02bf 	cmp	w21, w15
   86388:	1a8fd2aa 	csel	w10, w21, w15, le
   8638c:	6b0100ff 	cmp	w7, w1
   86390:	1a81d0e7 	csel	w7, w7, w1, le
   86394:	6b07007f 	cmp	w3, w7
   86398:	540002aa 	b.ge	863ec <fb_marquee_draw+0x1fc>  // b.tcont
   8639c:	b9401249 	ldr	w9, [x18, #16]
   863a0:	51000545 	sub	w5, w10, #0x1
   863a4:	f9400648 	ldr	x8, [x18, #8]
   863a8:	d37ef4a5 	lsl	x5, x5, #2
   863ac:	1b097c64 	mul	w4, w3, w9
   863b0:	9100110b 	add	x11, x8, #0x4
   863b4:	d503201f 	nop
   863b8:	2a0403e1 	mov	w1, w4
   863bc:	7100015f 	cmp	w10, #0x0
   863c0:	8b050022 	add	x2, x1, x5
   863c4:	8b010101 	add	x1, x8, x1
   863c8:	8b0b0042 	add	x2, x2, x11
   863cc:	5400008d 	b.le	863dc <fb_marquee_draw+0x1ec>
   863d0:	b800442d 	str	w13, [x1], #4
   863d4:	eb01005f 	cmp	x2, x1
   863d8:	54ffffc1 	b.ne	863d0 <fb_marquee_draw+0x1e0>  // b.any
   863dc:	11000463 	add	w3, w3, #0x1
   863e0:	0b090084 	add	w4, w4, w9
   863e4:	6b0300ff 	cmp	w7, w3
   863e8:	54fffe81 	b.ne	863b8 <fb_marquee_draw+0x1c8>  // b.any
   863ec:	6b0002bf 	cmp	w21, w0
   863f0:	54fff4ad 	b.le	86284 <fb_marquee_draw+0x94>
   863f4:	4b0002a2 	sub	w2, w21, w0
   863f8:	2a0d03e4 	mov	w4, w13
   863fc:	2a1903e3 	mov	w3, w25
   86400:	2a1303e1 	mov	w1, w19
   86404:	97fffc67 	bl	855a0 <fb_fill.part.0>
   86408:	17ffff9f 	b	86284 <fb_marquee_draw+0x94>
   8640c:	7100039f 	cmp	w28, #0x0
   86410:	7a40cb24 	ccmp	w25, #0x0, #0x4, gt
   86414:	5400010d 	b.le	86434 <fb_marquee_draw+0x244>
   86418:	b9407fe0 	ldr	w0, [sp, #124]
   8641c:	2a0d03e4 	mov	w4, w13
   86420:	2a1903e3 	mov	w3, w25
   86424:	2a1c03e2 	mov	w2, w28
   86428:	2a1303e1 	mov	w1, w19
   8642c:	0b0002e0 	add	w0, w23, w0
   86430:	97fffc5c 	bl	855a0 <fb_fill.part.0>
   86434:	f94037e0 	ldr	x0, [sp, #104]
   86438:	eb00025f 	cmp	x18, x0
   8643c:	54000080 	b.eq	8644c <fb_marquee_draw+0x25c>  // b.none
   86440:	91000652 	add	x18, x18, #0x1
   86444:	6b1501ff 	cmp	w15, w21
   86448:	54fff38b 	b.lt	862b8 <fb_marquee_draw+0xc8>  // b.tstop
   8644c:	a94153f3 	ldp	x19, x20, [sp, #16]
   86450:	a9425bf5 	ldp	x21, x22, [sp, #32]
   86454:	a94363f7 	ldp	x23, x24, [sp, #48]
   86458:	a9446bf9 	ldp	x25, x26, [sp, #64]
   8645c:	a94573fb 	ldp	x27, x28, [sp, #80]
   86460:	a8c87bfd 	ldp	x29, x30, [sp], #128
   86464:	d65f03c0 	ret
   86468:	52800002 	mov	w2, #0x0                   	// #0
   8646c:	f9403be8 	ldr	x8, [sp, #112]
   86470:	17ffffa0 	b	862f0 <fb_marquee_draw+0x100>
   86474:	4b000021 	sub	w1, w1, w0
   86478:	b9000461 	str	w1, [x3, #4]
   8647c:	4b0102af 	sub	w15, w21, w1
   86480:	0b0f00a0 	add	w0, w5, w15
   86484:	17ffff7c 	b	86274 <fb_marquee_draw+0x84>
   86488:	710002bf 	cmp	w21, #0x0
   8648c:	7a40cb24 	ccmp	w25, #0x0, #0x4, gt
   86490:	54fffded 	b.le	8644c <fb_marquee_draw+0x25c>
   86494:	b9400643 	ldr	w3, [x18, #4]
   86498:	0b130339 	add	w25, w25, w19
   8649c:	7100027f 	cmp	w19, #0x0
   864a0:	1a9fa273 	csel	w19, w19, wzr, ge  // ge = tcont
   864a4:	6b19007f 	cmp	w3, w25
   864a8:	1a99d063 	csel	w3, w3, w25, le
   864ac:	6b03027f 	cmp	w19, w3
   864b0:	54fffcea 	b.ge	8644c <fb_marquee_draw+0x25c>  // b.tcont
   864b4:	b9401244 	ldr	w4, [x18, #16]
   864b8:	f9400645 	ldr	x5, [x18, #8]
   864bc:	1b047e62 	mul	w2, w19, w4
   864c0:	8b2240a1 	add	x1, x5, w2, uxtw
   864c4:	52800000 	mov	w0, #0x0                   	// #0
   864c8:	b800442d 	str	w13, [x1], #4
   864cc:	11000400 	add	w0, w0, #0x1
   864d0:	6b0002bf 	cmp	w21, w0
   864d4:	54ffffac 	b.gt	864c8 <fb_marquee_draw+0x2d8>
   864d8:	11000673 	add	w19, w19, #0x1
   864dc:	0b040042 	add	w2, w2, w4
   864e0:	6b13007f 	cmp	w3, w19
   864e4:	54fffee1 	b.ne	864c0 <fb_marquee_draw+0x2d0>  // b.any
   864e8:	a94153f3 	ldp	x19, x20, [sp, #16]
   864ec:	a9425bf5 	ldp	x21, x22, [sp, #32]
   864f0:	a94363f7 	ldp	x23, x24, [sp, #48]
   864f4:	a9446bf9 	ldp	x25, x26, [sp, #64]
   864f8:	a94573fb 	ldp	x27, x28, [sp, #80]
   864fc:	a8c87bfd 	ldp	x29, x30, [sp], #128
   86500:	d65f03c0 	ret
   86504:	7100033f 	cmp	w25, #0x0
   86508:	54ffebed 	b.le	86284 <fb_marquee_draw+0x94>
   8650c:	4b0002a2 	sub	w2, w21, w0
   86510:	2a0d03e4 	mov	w4, w13
   86514:	2a1903e3 	mov	w3, w25
   86518:	2a1303e1 	mov	w1, w19
   8651c:	97fffc21 	bl	855a0 <fb_fill.part.0>
   86520:	17ffff59 	b	86284 <fb_marquee_draw+0x94>
	...

0000000000086530 <getAlignmentPatternPositions>:
   86530:	2a0003e4 	mov	w4, w0
   86534:	52800000 	mov	w0, #0x0                   	// #0
   86538:	7100049f 	cmp	w4, #0x1
   8653c:	54000380 	b.eq	865ac <getAlignmentPatternPositions+0x7c>  // b.none
   86540:	52849262 	mov	w2, #0x2493                	// #9363
   86544:	72b24922 	movk	w2, #0x9249, lsl #16
   86548:	531e7483 	lsl	w3, w4, #2
   8654c:	9b227c82 	smull	x2, w4, w2
   86550:	11002863 	add	w3, w3, #0xa
   86554:	d360fc42 	lsr	x2, x2, #32
   86558:	0b020082 	add	w2, w4, w2
   8655c:	13027c42 	asr	w2, w2, #2
   86560:	4b847c42 	sub	w2, w2, w4, asr #31
   86564:	11000840 	add	w0, w2, #0x2
   86568:	11000442 	add	w2, w2, #0x1
   8656c:	7100005f 	cmp	w2, #0x0
   86570:	0b000406 	add	w6, w0, w0, lsl #1
   86574:	531e7445 	lsl	w5, w2, #2
   86578:	0b040cc4 	add	w4, w6, w4, lsl #3
   8657c:	11001484 	add	w4, w4, #0x5
   86580:	1ac50c84 	sdiv	w4, w4, w5
   86584:	0b040084 	add	w4, w4, w4
   86588:	540000ed 	b.le	865a4 <getAlignmentPatternPositions+0x74>
   8658c:	93407c42 	sxtw	x2, w2
   86590:	38226823 	strb	w3, [x1, x2]
   86594:	d1000442 	sub	x2, x2, #0x1
   86598:	7100005f 	cmp	w2, #0x0
   8659c:	4b040063 	sub	w3, w3, w4
   865a0:	54ffff8c 	b.gt	86590 <getAlignmentPatternPositions+0x60>
   865a4:	528000c2 	mov	w2, #0x6                   	// #6
   865a8:	39000022 	strb	w2, [x1]
   865ac:	d65f03c0 	ret

00000000000865b0 <finderPenaltyCountPatterns.constprop.0>:
   865b0:	b9400402 	ldr	w2, [x0, #4]
   865b4:	aa0003e1 	mov	x1, x0
   865b8:	52800000 	mov	w0, #0x0                   	// #0
   865bc:	7100005f 	cmp	w2, #0x0
   865c0:	540000ad 	b.le	865d4 <finderPenaltyCountPatterns.constprop.0+0x24>
   865c4:	b9400823 	ldr	w3, [x1, #8]
   865c8:	52800000 	mov	w0, #0x0                   	// #0
   865cc:	6b03005f 	cmp	w2, w3
   865d0:	54000040 	b.eq	865d8 <finderPenaltyCountPatterns.constprop.0+0x28>  // b.none
   865d4:	d65f03c0 	ret
   865d8:	b9400c24 	ldr	w4, [x1, #12]
   865dc:	0b020443 	add	w3, w2, w2, lsl #1
   865e0:	6b03009f 	cmp	w4, w3
   865e4:	54ffff81 	b.ne	865d4 <finderPenaltyCountPatterns.constprop.0+0x24>  // b.any
   865e8:	b9401023 	ldr	w3, [x1, #16]
   865ec:	6b03005f 	cmp	w2, w3
   865f0:	54ffff21 	b.ne	865d4 <finderPenaltyCountPatterns.constprop.0+0x24>  // b.any
   865f4:	b9401423 	ldr	w3, [x1, #20]
   865f8:	6b03005f 	cmp	w2, w3
   865fc:	54fffec1 	b.ne	865d4 <finderPenaltyCountPatterns.constprop.0+0x24>  // b.any
   86600:	b9400024 	ldr	w4, [x1]
   86604:	531e7443 	lsl	w3, w2, #2
   86608:	b9401821 	ldr	w1, [x1, #24]
   8660c:	6b03009f 	cmp	w4, w3
   86610:	5400006b 	b.lt	8661c <finderPenaltyCountPatterns.constprop.0+0x6c>  // b.tstop
   86614:	6b01005f 	cmp	w2, w1
   86618:	1a9fc7e0 	cset	w0, le
   8661c:	6b03003f 	cmp	w1, w3
   86620:	54fffdab 	b.lt	865d4 <finderPenaltyCountPatterns.constprop.0+0x24>  // b.tstop
   86624:	6b04005f 	cmp	w2, w4
   86628:	1a80c400 	cinc	w0, w0, le
   8662c:	d65f03c0 	ret

0000000000086630 <getNumDataCodewords>:
   86630:	11002002 	add	w2, w0, #0x8
   86634:	7100041f 	cmp	w0, #0x1
   86638:	1b007c42 	mul	w2, w2, w0
   8663c:	11001042 	add	w2, w2, #0x4
   86640:	531c6c42 	lsl	w2, w2, #4
   86644:	5400024d 	b.le	8668c <getNumDataCodewords+0x5c>
   86648:	52849263 	mov	w3, #0x2493                	// #9363
   8664c:	72b24923 	movk	w3, #0x9249, lsl #16
   86650:	52800324 	mov	w4, #0x19                  	// #25
   86654:	7100181f 	cmp	w0, #0x6
   86658:	9b237c03 	smull	x3, w0, w3
   8665c:	d360fc63 	lsr	x3, x3, #32
   86660:	0b030003 	add	w3, w0, w3
   86664:	13027c63 	asr	w3, w3, #2
   86668:	4b807c63 	sub	w3, w3, w0, asr #31
   8666c:	11000863 	add	w3, w3, #0x2
   86670:	1b047c64 	mul	w4, w3, w4
   86674:	51002884 	sub	w4, w4, #0xa
   86678:	1b037c83 	mul	w3, w4, w3
   8667c:	5100dc63 	sub	w3, w3, #0x37
   86680:	4b030042 	sub	w2, w2, w3
   86684:	51009043 	sub	w3, w2, #0x24
   86688:	1a82c062 	csel	w2, w3, w2, gt
   8668c:	93407c21 	sxtw	x1, w1
   86690:	d2800524 	mov	x4, #0x29                  	// #41
   86694:	90000043 	adrp	x3, 8e000 <sc_scope_draw+0x570>
   86698:	911ee063 	add	x3, x3, #0x7b8
   8669c:	9102a065 	add	x5, x3, #0xa8
   866a0:	7100005f 	cmp	w2, #0x0
   866a4:	9b047c21 	mul	x1, x1, x4
   866a8:	11001c44 	add	w4, w2, #0x7
   866ac:	1a82b082 	csel	w2, w4, w2, lt  // lt = tstop
   866b0:	8b010063 	add	x3, x3, x1
   866b4:	8b0100a1 	add	x1, x5, x1
   866b8:	13037c42 	asr	w2, w2, #3
   866bc:	38e0c863 	ldrsb	w3, [x3, w0, sxtw]
   866c0:	38e0c820 	ldrsb	w0, [x1, w0, sxtw]
   866c4:	1b008860 	msub	w0, w3, w0, w2
   866c8:	d65f03c0 	ret
   866cc:	d503201f 	nop

00000000000866d0 <initializeFunctionModules>:
   866d0:	a9bc7bfd 	stp	x29, x30, [sp, #-64]!
   866d4:	910003fd 	mov	x29, sp
   866d8:	a9025bf5 	stp	x21, x22, [sp, #32]
   866dc:	2a0003f5 	mov	w21, w0
   866e0:	aa0103e0 	mov	x0, x1
   866e4:	a90153f3 	stp	x19, x20, [sp, #16]
   866e8:	531e76b4 	lsl	w20, w21, #2
   866ec:	11004696 	add	w22, w20, #0x11
   866f0:	aa0103f3 	mov	x19, x1
   866f4:	52800001 	mov	w1, #0x0                   	// #0
   866f8:	1b167ec2 	mul	w2, w22, w22
   866fc:	11001c42 	add	w2, w2, #0x7
   86700:	13037c42 	asr	w2, w2, #3
   86704:	11000442 	add	w2, w2, #0x1
   86708:	93407c42 	sxtw	x2, w2
   8670c:	94000a41 	bl	89010 <memset>
   86710:	12001ec0 	and	w0, w22, #0xff
   86714:	39000260 	strb	w0, [x19]
   86718:	710002df 	cmp	w22, #0x0
   8671c:	52800002 	mov	w2, #0x0                   	// #0
   86720:	52800024 	mov	w4, #0x1                   	// #1
   86724:	5400006c 	b.gt	86730 <initializeFunctionModules+0x60>
   86728:	1400001e 	b	867a0 <initializeFunctionModules+0xd0>
   8672c:	39400260 	ldrb	w0, [x19]
   86730:	1b027c00 	mul	w0, w0, w2
   86734:	11000442 	add	w2, w2, #0x1
   86738:	6b0202df 	cmp	w22, w2
   8673c:	11001800 	add	w0, w0, #0x6
   86740:	12000801 	and	w1, w0, #0x7
   86744:	13037c00 	asr	w0, w0, #3
   86748:	11000400 	add	w0, w0, #0x1
   8674c:	1ac12081 	lsl	w1, w4, w1
   86750:	3860ca63 	ldrb	w3, [x19, w0, sxtw]
   86754:	2a030021 	orr	w1, w1, w3
   86758:	3820ca61 	strb	w1, [x19, w0, sxtw]
   8675c:	54fffe81 	b.ne	8672c <initializeFunctionModules+0x5c>  // b.any
   86760:	52800002 	mov	w2, #0x0                   	// #0
   86764:	528000c5 	mov	w5, #0x6                   	// #6
   86768:	52800024 	mov	w4, #0x1                   	// #1
   8676c:	39400260 	ldrb	w0, [x19]
   86770:	1b050800 	madd	w0, w0, w5, w2
   86774:	11000442 	add	w2, w2, #0x1
   86778:	6b0202df 	cmp	w22, w2
   8677c:	12000801 	and	w1, w0, #0x7
   86780:	13037c00 	asr	w0, w0, #3
   86784:	11000400 	add	w0, w0, #0x1
   86788:	1ac12081 	lsl	w1, w4, w1
   8678c:	3860ca63 	ldrb	w3, [x19, w0, sxtw]
   86790:	2a030021 	orr	w1, w1, w3
   86794:	3820ca61 	strb	w1, [x19, w0, sxtw]
   86798:	54fffea1 	b.ne	8676c <initializeFunctionModules+0x9c>  // b.any
   8679c:	39400260 	ldrb	w0, [x19]
   867a0:	52800004 	mov	w4, #0x0                   	// #0
   867a4:	52800025 	mov	w5, #0x1                   	// #1
   867a8:	52800002 	mov	w2, #0x0                   	// #0
   867ac:	d503201f 	nop
   867b0:	1b040800 	madd	w0, w0, w4, w2
   867b4:	11000442 	add	w2, w2, #0x1
   867b8:	7100245f 	cmp	w2, #0x9
   867bc:	12000801 	and	w1, w0, #0x7
   867c0:	13037c00 	asr	w0, w0, #3
   867c4:	11000400 	add	w0, w0, #0x1
   867c8:	1ac120a1 	lsl	w1, w5, w1
   867cc:	3860ca63 	ldrb	w3, [x19, w0, sxtw]
   867d0:	2a030021 	orr	w1, w1, w3
   867d4:	3820ca61 	strb	w1, [x19, w0, sxtw]
   867d8:	39400260 	ldrb	w0, [x19]
   867dc:	54fffea1 	b.ne	867b0 <initializeFunctionModules+0xe0>  // b.any
   867e0:	11000484 	add	w4, w4, #0x1
   867e4:	2a0003e1 	mov	w1, w0
   867e8:	7100249f 	cmp	w4, #0x9
   867ec:	54fffde1 	b.ne	867a8 <initializeFunctionModules+0xd8>  // b.any
   867f0:	11002688 	add	w8, w20, #0x9
   867f4:	52800005 	mov	w5, #0x0                   	// #0
   867f8:	52800026 	mov	w6, #0x1                   	// #1
   867fc:	2a0803e4 	mov	w4, w8
   86800:	2a0803e2 	mov	w2, w8
   86804:	14000002 	b	8680c <initializeFunctionModules+0x13c>
   86808:	39400261 	ldrb	w1, [x19]
   8680c:	1b050820 	madd	w0, w1, w5, w2
   86810:	11000442 	add	w2, w2, #0x1
   86814:	6b0202df 	cmp	w22, w2
   86818:	12000801 	and	w1, w0, #0x7
   8681c:	13037c00 	asr	w0, w0, #3
   86820:	11000400 	add	w0, w0, #0x1
   86824:	1ac120c1 	lsl	w1, w6, w1
   86828:	3860ca63 	ldrb	w3, [x19, w0, sxtw]
   8682c:	2a030021 	orr	w1, w1, w3
   86830:	3820ca61 	strb	w1, [x19, w0, sxtw]
   86834:	54fffea1 	b.ne	86808 <initializeFunctionModules+0x138>  // b.any
   86838:	110004a5 	add	w5, w5, #0x1
   8683c:	710024bf 	cmp	w5, #0x9
   86840:	54000060 	b.eq	8684c <initializeFunctionModules+0x17c>  // b.none
   86844:	39400261 	ldrb	w1, [x19]
   86848:	17ffffed 	b	867fc <initializeFunctionModules+0x12c>
   8684c:	52800025 	mov	w5, #0x1                   	// #1
   86850:	52800002 	mov	w2, #0x0                   	// #0
   86854:	d503201f 	nop
   86858:	39400260 	ldrb	w0, [x19]
   8685c:	1b040800 	madd	w0, w0, w4, w2
   86860:	11000442 	add	w2, w2, #0x1
   86864:	7100245f 	cmp	w2, #0x9
   86868:	12000801 	and	w1, w0, #0x7
   8686c:	13037c00 	asr	w0, w0, #3
   86870:	11000400 	add	w0, w0, #0x1
   86874:	1ac120a1 	lsl	w1, w5, w1
   86878:	3860ca63 	ldrb	w3, [x19, w0, sxtw]
   8687c:	2a030021 	orr	w1, w1, w3
   86880:	3820ca61 	strb	w1, [x19, w0, sxtw]
   86884:	54fffea1 	b.ne	86858 <initializeFunctionModules+0x188>  // b.any
   86888:	11000484 	add	w4, w4, #0x1
   8688c:	6b0402df 	cmp	w22, w4
   86890:	54fffe01 	b.ne	86850 <initializeFunctionModules+0x180>  // b.any
   86894:	9100e3e1 	add	x1, sp, #0x38
   86898:	2a1503e0 	mov	w0, w21
   8689c:	d280000d 	mov	x13, #0x0                   	// #0
   868a0:	97ffff24 	bl	86530 <getAlignmentPatternPositions>
   868a4:	52800027 	mov	w7, #0x1                   	// #1
   868a8:	2a0003ee 	mov	w14, w0
   868ac:	7100001f 	cmp	w0, #0x0
   868b0:	51000410 	sub	w16, w0, #0x1
   868b4:	5400056d 	b.le	86960 <initializeFunctionModules+0x290>
   868b8:	2a0d03ef 	mov	w15, w13
   868bc:	aa0103ec 	mov	x12, x1
   868c0:	52800009 	mov	w9, #0x0                   	// #0
   868c4:	d503201f 	nop
   868c8:	2a0f0120 	orr	w0, w9, w15
   868cc:	340003c0 	cbz	w0, 86944 <initializeFunctionModules+0x274>
   868d0:	2a0d03e0 	mov	w0, w13
   868d4:	b400052d 	cbz	x13, 86978 <initializeFunctionModules+0x2a8>
   868d8:	7100013f 	cmp	w9, #0x0
   868dc:	7a500000 	ccmp	w0, w16, #0x0, eq  // eq = none
   868e0:	54000320 	b.eq	86944 <initializeFunctionModules+0x274>  // b.none
   868e4:	386169a6 	ldrb	w6, [x13, x1]
   868e8:	3940018a 	ldrb	w10, [x12]
   868ec:	510008cb 	sub	w11, w6, #0x2
   868f0:	11000cc6 	add	w6, w6, #0x3
   868f4:	51000945 	sub	w5, w10, #0x2
   868f8:	11000d4a 	add	w10, w10, #0x3
   868fc:	d503201f 	nop
   86900:	2a0b03e3 	mov	w3, w11
   86904:	d503201f 	nop
   86908:	39400260 	ldrb	w0, [x19]
   8690c:	1b050c00 	madd	w0, w0, w5, w3
   86910:	11000463 	add	w3, w3, #0x1
   86914:	6b0300df 	cmp	w6, w3
   86918:	12000802 	and	w2, w0, #0x7
   8691c:	13037c00 	asr	w0, w0, #3
   86920:	11000400 	add	w0, w0, #0x1
   86924:	1ac220e2 	lsl	w2, w7, w2
   86928:	3860ca64 	ldrb	w4, [x19, w0, sxtw]
   8692c:	2a040042 	orr	w2, w2, w4
   86930:	3820ca62 	strb	w2, [x19, w0, sxtw]
   86934:	54fffea1 	b.ne	86908 <initializeFunctionModules+0x238>  // b.any
   86938:	110004a5 	add	w5, w5, #0x1
   8693c:	6b05015f 	cmp	w10, w5
   86940:	54fffe01 	b.ne	86900 <initializeFunctionModules+0x230>  // b.any
   86944:	11000529 	add	w9, w9, #0x1
   86948:	9100058c 	add	x12, x12, #0x1
   8694c:	6b0901df 	cmp	w14, w9
   86950:	54fffbc1 	b.ne	868c8 <initializeFunctionModules+0x1f8>  // b.any
   86954:	910005ad 	add	x13, x13, #0x1
   86958:	6b0d01df 	cmp	w14, w13
   8695c:	54fffaec 	b.gt	868b8 <initializeFunctionModules+0x1e8>
   86960:	71001abf 	cmp	w21, #0x6
   86964:	5400018c 	b.gt	86994 <initializeFunctionModules+0x2c4>
   86968:	a94153f3 	ldp	x19, x20, [sp, #16]
   8696c:	a9425bf5 	ldp	x21, x22, [sp, #32]
   86970:	a8c47bfd 	ldp	x29, x30, [sp], #64
   86974:	d65f03c0 	ret
   86978:	6b10013f 	cmp	w9, w16
   8697c:	54fffae1 	b.ne	868d8 <initializeFunctionModules+0x208>  // b.any
   86980:	11000529 	add	w9, w9, #0x1
   86984:	9100058c 	add	x12, x12, #0x1
   86988:	6b0901df 	cmp	w14, w9
   8698c:	54fff9e1 	b.ne	868c8 <initializeFunctionModules+0x1f8>  // b.any
   86990:	17fffff1 	b	86954 <initializeFunctionModules+0x284>
   86994:	11001a94 	add	w20, w20, #0x6
   86998:	52800005 	mov	w5, #0x0                   	// #0
   8699c:	52800026 	mov	w6, #0x1                   	// #1
   869a0:	2a1403e4 	mov	w4, w20
   869a4:	2a1403e2 	mov	w2, w20
   869a8:	39400260 	ldrb	w0, [x19]
   869ac:	1b050800 	madd	w0, w0, w5, w2
   869b0:	11000442 	add	w2, w2, #0x1
   869b4:	6b02011f 	cmp	w8, w2
   869b8:	12000801 	and	w1, w0, #0x7
   869bc:	13037c00 	asr	w0, w0, #3
   869c0:	11000400 	add	w0, w0, #0x1
   869c4:	1ac120c1 	lsl	w1, w6, w1
   869c8:	3860ca63 	ldrb	w3, [x19, w0, sxtw]
   869cc:	2a030021 	orr	w1, w1, w3
   869d0:	3820ca61 	strb	w1, [x19, w0, sxtw]
   869d4:	54fffea1 	b.ne	869a8 <initializeFunctionModules+0x2d8>  // b.any
   869d8:	110004a5 	add	w5, w5, #0x1
   869dc:	710018bf 	cmp	w5, #0x6
   869e0:	54fffe01 	b.ne	869a0 <initializeFunctionModules+0x2d0>  // b.any
   869e4:	52800025 	mov	w5, #0x1                   	// #1
   869e8:	52800002 	mov	w2, #0x0                   	// #0
   869ec:	d503201f 	nop
   869f0:	39400260 	ldrb	w0, [x19]
   869f4:	1b040800 	madd	w0, w0, w4, w2
   869f8:	11000442 	add	w2, w2, #0x1
   869fc:	7100185f 	cmp	w2, #0x6
   86a00:	12000801 	and	w1, w0, #0x7
   86a04:	13037c00 	asr	w0, w0, #3
   86a08:	11000400 	add	w0, w0, #0x1
   86a0c:	1ac120a1 	lsl	w1, w5, w1
   86a10:	3860ca63 	ldrb	w3, [x19, w0, sxtw]
   86a14:	2a030021 	orr	w1, w1, w3
   86a18:	3820ca61 	strb	w1, [x19, w0, sxtw]
   86a1c:	54fffea1 	b.ne	869f0 <initializeFunctionModules+0x320>  // b.any
   86a20:	11000484 	add	w4, w4, #0x1
   86a24:	6b04011f 	cmp	w8, w4
   86a28:	54fffe01 	b.ne	869e8 <initializeFunctionModules+0x318>  // b.any
   86a2c:	a94153f3 	ldp	x19, x20, [sp, #16]
   86a30:	a9425bf5 	ldp	x21, x22, [sp, #32]
   86a34:	a8c47bfd 	ldp	x29, x30, [sp], #64
   86a38:	d65f03c0 	ret
   86a3c:	d503201f 	nop

0000000000086a40 <applyMask>:
   86a40:	3940002b 	ldrb	w11, [x1]
   86a44:	52800007 	mov	w7, #0x0                   	// #0
   86a48:	34000a8b 	cbz	w11, 86b98 <applyMask+0x158>
   86a4c:	5295556e 	mov	w14, #0xaaab                	// #43691
   86a50:	72b5554e 	movk	w14, #0xaaaa, lsl #16
   86a54:	5280002d 	mov	w13, #0x1                   	// #1
   86a58:	3200f3ef 	mov	w15, #0x55555555            	// #1431655765
   86a5c:	120000ec 	and	w12, w7, #0x1
   86a60:	13017cf0 	asr	w16, w7, #1
   86a64:	5200018c 	eor	w12, w12, #0x1
   86a68:	2a0703ea 	mov	w10, w7
   86a6c:	52800009 	mov	w9, #0x0                   	// #0
   86a70:	52800005 	mov	w5, #0x0                   	// #0
   86a74:	1400001b 	b	86ae0 <applyMask+0xa0>
   86a78:	1b0e7d43 	mul	w3, w10, w14
   86a7c:	6b0f007f 	cmp	w3, w15
   86a80:	1a9f87e8 	cset	w8, ls  // ls = plast
   86a84:	d503201f 	nop
   86a88:	39400023 	ldrb	w3, [x1]
   86a8c:	1b071463 	madd	w3, w3, w7, w5
   86a90:	12000872 	and	w18, w3, #0x7
   86a94:	13037c63 	asr	w3, w3, #3
   86a98:	11000463 	add	w3, w3, #0x1
   86a9c:	1ad221a4 	lsl	w4, w13, w18
   86aa0:	13001c91 	sxtb	w17, w4
   86aa4:	3863c826 	ldrb	w6, [x1, w3, sxtw]
   86aa8:	38e3c824 	ldrsb	w4, [x1, w3, sxtw]
   86aac:	1ad228c6 	asr	w6, w6, w18
   86ab0:	120000c6 	and	w6, w6, #0x1
   86ab4:	6b06011f 	cmp	w8, w6
   86ab8:	0a310086 	bic	w6, w4, w17
   86abc:	2a110084 	orr	w4, w4, w17
   86ac0:	1a861084 	csel	w4, w4, w6, ne  // ne = any
   86ac4:	3823c824 	strb	w4, [x1, w3, sxtw]
   86ac8:	110004a3 	add	w3, w5, #0x1
   86acc:	1100054a 	add	w10, w10, #0x1
   86ad0:	0b070129 	add	w9, w9, w7
   86ad4:	6b03017f 	cmp	w11, w3
   86ad8:	540005a0 	b.eq	86b8c <applyMask+0x14c>  // b.none
   86adc:	2a0303e5 	mov	w5, w3
   86ae0:	39400003 	ldrb	w3, [x0]
   86ae4:	1b071463 	madd	w3, w3, w7, w5
   86ae8:	12000864 	and	w4, w3, #0x7
   86aec:	13037c63 	asr	w3, w3, #3
   86af0:	11000463 	add	w3, w3, #0x1
   86af4:	3863c803 	ldrb	w3, [x0, w3, sxtw]
   86af8:	1ac42863 	asr	w3, w3, w4
   86afc:	3707fe63 	tbnz	w3, #0, 86ac8 <applyMask+0x88>
   86b00:	7100105f 	cmp	w2, #0x4
   86b04:	540005a0 	b.eq	86bb8 <applyMask+0x178>  // b.none
   86b08:	5400014c 	b.gt	86b30 <applyMask+0xf0>
   86b0c:	7100085f 	cmp	w2, #0x2
   86b10:	540004c0 	b.eq	86ba8 <applyMask+0x168>  // b.none
   86b14:	71000c5f 	cmp	w2, #0x3
   86b18:	54fffb00 	b.eq	86a78 <applyMask+0x38>  // b.none
   86b1c:	340005a2 	cbz	w2, 86bd0 <applyMask+0x190>
   86b20:	7100045f 	cmp	w2, #0x1
   86b24:	540003a1 	b.ne	86b98 <applyMask+0x158>  // b.any
   86b28:	2a0c03e8 	mov	w8, w12
   86b2c:	17ffffd7 	b	86a88 <applyMask+0x48>
   86b30:	7100185f 	cmp	w2, #0x6
   86b34:	54000340 	b.eq	86b9c <applyMask+0x15c>  // b.none
   86b38:	71001c5f 	cmp	w2, #0x7
   86b3c:	54000141 	b.ne	86b64 <applyMask+0x124>  // b.any
   86b40:	9bae7d23 	umull	x3, w9, w14
   86b44:	12000148 	and	w8, w10, #0x1
   86b48:	d361fc63 	lsr	x3, x3, #33
   86b4c:	0b030463 	add	w3, w3, w3, lsl #1
   86b50:	4b030123 	sub	w3, w9, w3
   86b54:	0b030108 	add	w8, w8, w3
   86b58:	2a2803e8 	mvn	w8, w8
   86b5c:	12000108 	and	w8, w8, #0x1
   86b60:	17ffffca 	b	86a88 <applyMask+0x48>
   86b64:	7100145f 	cmp	w2, #0x5
   86b68:	54000181 	b.ne	86b98 <applyMask+0x158>  // b.any
   86b6c:	9bae7d23 	umull	x3, w9, w14
   86b70:	12000124 	and	w4, w9, #0x1
   86b74:	d361fc63 	lsr	x3, x3, #33
   86b78:	0b030463 	add	w3, w3, w3, lsl #1
   86b7c:	4b030123 	sub	w3, w9, w3
   86b80:	2b03009f 	cmn	w4, w3
   86b84:	1a9f17e8 	cset	w8, eq  // eq = none
   86b88:	17ffffc0 	b	86a88 <applyMask+0x48>
   86b8c:	6b0500ff 	cmp	w7, w5
   86b90:	110004e7 	add	w7, w7, #0x1
   86b94:	54fff641 	b.ne	86a5c <applyMask+0x1c>  // b.any
   86b98:	d65f03c0 	ret
   86b9c:	9bae7d23 	umull	x3, w9, w14
   86ba0:	12000128 	and	w8, w9, #0x1
   86ba4:	17ffffe9 	b	86b48 <applyMask+0x108>
   86ba8:	1b0e7ca3 	mul	w3, w5, w14
   86bac:	6b0f007f 	cmp	w3, w15
   86bb0:	1a9f87e8 	cset	w8, ls  // ls = plast
   86bb4:	17ffffb5 	b	86a88 <applyMask+0x48>
   86bb8:	9bae7ca8 	umull	x8, w5, w14
   86bbc:	d361fd08 	lsr	x8, x8, #33
   86bc0:	0b100108 	add	w8, w8, w16
   86bc4:	2a2803e8 	mvn	w8, w8
   86bc8:	12000108 	and	w8, w8, #0x1
   86bcc:	17ffffaf 	b	86a88 <applyMask+0x48>
   86bd0:	12000148 	and	w8, w10, #0x1
   86bd4:	52000108 	eor	w8, w8, #0x1
   86bd8:	17ffffac 	b	86a88 <applyMask+0x48>
   86bdc:	d503201f 	nop

0000000000086be0 <drawFormatBits>:
   86be0:	90000043 	adrp	x3, 8e000 <sc_scope_draw+0x570>
   86be4:	911ee063 	add	x3, x3, #0x7b8
   86be8:	91054063 	add	x3, x3, #0x150
   86bec:	52800144 	mov	w4, #0xa                   	// #10
   86bf0:	5280a6e6 	mov	w6, #0x537                 	// #1335
   86bf4:	b860d865 	ldr	w5, [x3, w0, sxtw #2]
   86bf8:	2a050c21 	orr	w1, w1, w5, lsl #3
   86bfc:	2a0103e3 	mov	w3, w1
   86c00:	13097c60 	asr	w0, w3, #9
   86c04:	71000484 	subs	w4, w4, #0x1
   86c08:	1b067c00 	mul	w0, w0, w6
   86c0c:	4a030403 	eor	w3, w0, w3, lsl #1
   86c10:	54ffff81 	b.ne	86c00 <drawFormatBits+0x20>  // b.any
   86c14:	2a012861 	orr	w1, w3, w1, lsl #10
   86c18:	528a8245 	mov	w5, #0x5412                	// #21522
   86c1c:	4a050025 	eor	w5, w1, w5
   86c20:	52800004 	mov	w4, #0x0                   	// #0
   86c24:	52800027 	mov	w7, #0x1                   	// #1
   86c28:	39400040 	ldrb	w0, [x2]
   86c2c:	1ac428a1 	asr	w1, w5, w4
   86c30:	f240003f 	tst	x1, #0x1
   86c34:	1b047c00 	mul	w0, w0, w4
   86c38:	11000484 	add	w4, w4, #0x1
   86c3c:	11002000 	add	w0, w0, #0x8
   86c40:	12000801 	and	w1, w0, #0x7
   86c44:	13037c00 	asr	w0, w0, #3
   86c48:	11000400 	add	w0, w0, #0x1
   86c4c:	1ac120e1 	lsl	w1, w7, w1
   86c50:	13001c23 	sxtb	w3, w1
   86c54:	38e0c841 	ldrsb	w1, [x2, w0, sxtw]
   86c58:	0a230026 	bic	w6, w1, w3
   86c5c:	2a030021 	orr	w1, w1, w3
   86c60:	1a861021 	csel	w1, w1, w6, ne  // ne = any
   86c64:	3820c841 	strb	w1, [x2, w0, sxtw]
   86c68:	7100189f 	cmp	w4, #0x6
   86c6c:	54fffde1 	b.ne	86c28 <drawFormatBits+0x48>  // b.any
   86c70:	39400040 	ldrb	w0, [x2]
   86c74:	528000e1 	mov	w1, #0x7                   	// #7
   86c78:	52800027 	mov	w7, #0x1                   	// #1
   86c7c:	f27a00bf 	tst	x5, #0x40
   86c80:	52800124 	mov	w4, #0x9                   	// #9
   86c84:	528001c8 	mov	w8, #0xe                   	// #14
   86c88:	1b017c00 	mul	w0, w0, w1
   86c8c:	11002000 	add	w0, w0, #0x8
   86c90:	0a010001 	and	w1, w0, w1
   86c94:	13037c00 	asr	w0, w0, #3
   86c98:	0b070000 	add	w0, w0, w7
   86c9c:	1ac120e1 	lsl	w1, w7, w1
   86ca0:	13001c23 	sxtb	w3, w1
   86ca4:	38e0c841 	ldrsb	w1, [x2, w0, sxtw]
   86ca8:	0a230026 	bic	w6, w1, w3
   86cac:	2a030021 	orr	w1, w1, w3
   86cb0:	1a861021 	csel	w1, w1, w6, ne  // ne = any
   86cb4:	3820c841 	strb	w1, [x2, w0, sxtw]
   86cb8:	f27900bf 	tst	x5, #0x80
   86cbc:	39400041 	ldrb	w1, [x2]
   86cc0:	11000821 	add	w1, w1, #0x2
   86cc4:	38e1c840 	ldrsb	w0, [x2, w1, sxtw]
   86cc8:	121f7803 	and	w3, w0, #0xfffffffe
   86ccc:	2a070000 	orr	w0, w0, w7
   86cd0:	1a831000 	csel	w0, w0, w3, ne  // ne = any
   86cd4:	3821c840 	strb	w0, [x2, w1, sxtw]
   86cd8:	f27800bf 	tst	x5, #0x100
   86cdc:	39400041 	ldrb	w1, [x2]
   86ce0:	0b070021 	add	w1, w1, w7
   86ce4:	38e1c840 	ldrsb	w0, [x2, w1, sxtw]
   86ce8:	12001803 	and	w3, w0, #0x7f
   86cec:	32196000 	orr	w0, w0, #0xffffff80
   86cf0:	1a831000 	csel	w0, w0, w3, ne  // ne = any
   86cf4:	3821c840 	strb	w0, [x2, w1, sxtw]
   86cf8:	39400040 	ldrb	w0, [x2]
   86cfc:	4b040101 	sub	w1, w8, w4
   86d00:	1ac428a3 	asr	w3, w5, w4
   86d04:	11000484 	add	w4, w4, #0x1
   86d08:	f240007f 	tst	x3, #0x1
   86d0c:	0b000c20 	add	w0, w1, w0, lsl #3
   86d10:	12000801 	and	w1, w0, #0x7
   86d14:	13037c00 	asr	w0, w0, #3
   86d18:	11000400 	add	w0, w0, #0x1
   86d1c:	1ac120e1 	lsl	w1, w7, w1
   86d20:	13001c23 	sxtb	w3, w1
   86d24:	38e0c841 	ldrsb	w1, [x2, w0, sxtw]
   86d28:	0a230026 	bic	w6, w1, w3
   86d2c:	2a030021 	orr	w1, w1, w3
   86d30:	1a861021 	csel	w1, w1, w6, ne  // ne = any
   86d34:	3820c841 	strb	w1, [x2, w0, sxtw]
   86d38:	71003c9f 	cmp	w4, #0xf
   86d3c:	54fffde1 	b.ne	86cf8 <drawFormatBits+0x118>  // b.any
   86d40:	39400046 	ldrb	w6, [x2]
   86d44:	52800001 	mov	w1, #0x0                   	// #0
   86d48:	52800029 	mov	w9, #0x1                   	// #1
   86d4c:	2a0603e0 	mov	w0, w6
   86d50:	510004c8 	sub	w8, w6, #0x1
   86d54:	d503201f 	nop
   86d58:	4b010104 	sub	w4, w8, w1
   86d5c:	1ac128a3 	asr	w3, w5, w1
   86d60:	0b000c80 	add	w0, w4, w0, lsl #3
   86d64:	f240007f 	tst	x3, #0x1
   86d68:	12000803 	and	w3, w0, #0x7
   86d6c:	11000421 	add	w1, w1, #0x1
   86d70:	13037c00 	asr	w0, w0, #3
   86d74:	11000400 	add	w0, w0, #0x1
   86d78:	1ac32123 	lsl	w3, w9, w3
   86d7c:	13001c64 	sxtb	w4, w3
   86d80:	38e0c843 	ldrsb	w3, [x2, w0, sxtw]
   86d84:	0a240067 	bic	w7, w3, w4
   86d88:	2a040063 	orr	w3, w3, w4
   86d8c:	1a871063 	csel	w3, w3, w7, ne  // ne = any
   86d90:	3820c843 	strb	w3, [x2, w0, sxtw]
   86d94:	7100203f 	cmp	w1, #0x8
   86d98:	39400040 	ldrb	w0, [x2]
   86d9c:	2a0003e3 	mov	w3, w0
   86da0:	54fffdc1 	b.ne	86d58 <drawFormatBits+0x178>  // b.any
   86da4:	51003cc9 	sub	w9, w6, #0xf
   86da8:	52800028 	mov	w8, #0x1                   	// #1
   86dac:	d503201f 	nop
   86db0:	0b010120 	add	w0, w9, w1
   86db4:	1ac128a4 	asr	w4, w5, w1
   86db8:	f240009f 	tst	x4, #0x1
   86dbc:	11000421 	add	w1, w1, #0x1
   86dc0:	1b037c00 	mul	w0, w0, w3
   86dc4:	11002000 	add	w0, w0, #0x8
   86dc8:	12000803 	and	w3, w0, #0x7
   86dcc:	13037c00 	asr	w0, w0, #3
   86dd0:	11000400 	add	w0, w0, #0x1
   86dd4:	1ac32103 	lsl	w3, w8, w3
   86dd8:	13001c64 	sxtb	w4, w3
   86ddc:	38e0c843 	ldrsb	w3, [x2, w0, sxtw]
   86de0:	0a240067 	bic	w7, w3, w4
   86de4:	2a040063 	orr	w3, w3, w4
   86de8:	1a871063 	csel	w3, w3, w7, ne  // ne = any
   86dec:	3820c843 	strb	w3, [x2, w0, sxtw]
   86df0:	71003c3f 	cmp	w1, #0xf
   86df4:	39400043 	ldrb	w3, [x2]
   86df8:	54fffdc1 	b.ne	86db0 <drawFormatBits+0x1d0>  // b.any
   86dfc:	510020c0 	sub	w0, w6, #0x8
   86e00:	52800021 	mov	w1, #0x1                   	// #1
   86e04:	1b037c00 	mul	w0, w0, w3
   86e08:	11002000 	add	w0, w0, #0x8
   86e0c:	12000803 	and	w3, w0, #0x7
   86e10:	13037c00 	asr	w0, w0, #3
   86e14:	0b010000 	add	w0, w0, w1
   86e18:	1ac32021 	lsl	w1, w1, w3
   86e1c:	3860c843 	ldrb	w3, [x2, w0, sxtw]
   86e20:	2a030021 	orr	w1, w1, w3
   86e24:	3820c841 	strb	w1, [x2, w0, sxtw]
   86e28:	d65f03c0 	ret
   86e2c:	d503201f 	nop

0000000000086e30 <qrcodegen_encodeSegmentsAdvanced>:
   86e30:	a9b17bfd 	stp	x29, x30, [sp, #-240]!
   86e34:	5280053e 	mov	w30, #0x29                  	// #41
   86e38:	93407c69 	sxtw	x9, w3
   86e3c:	910003fd 	mov	x29, sp
   86e40:	9b3e7c5e 	smull	x30, w2, w30
   86e44:	a9025bf5 	stp	x21, x22, [sp, #32]
   86e48:	90000056 	adrp	x22, 8e000 <sc_scope_draw+0x570>
   86e4c:	911ee2d6 	add	x22, x22, #0x7b8
   86e50:	b90083e2 	str	w2, [sp, #128]
   86e54:	9102a2c2 	add	x2, x22, #0xa8
   86e58:	2a0403f0 	mov	w16, w4
   86e5c:	f9407bf5 	ldr	x21, [sp, #240]
   86e60:	910602cf 	add	x15, x22, #0x180
   86e64:	910642ce 	add	x14, x22, #0x190
   86e68:	910582cd 	add	x13, x22, #0x160
   86e6c:	9105c2cc 	add	x12, x22, #0x170
   86e70:	a90153f3 	stp	x19, x20, [sp, #16]
   86e74:	aa0003f3 	mov	x19, x0
   86e78:	aa0103f4 	mov	x20, x1
   86e7c:	a9046bf9 	stp	x25, x26, [sp, #64]
   86e80:	12001cda 	and	w26, w6, #0xff
   86e84:	a90573fb 	stp	x27, x28, [sp, #80]
   86e88:	8b1e02db 	add	x27, x22, x30
   86e8c:	8b1e005e 	add	x30, x2, x30
   86e90:	528f0f32 	mov	w18, #0x7879                	// #30841
   86e94:	72af0f12 	movk	w18, #0x7878, lsl #16
   86e98:	d280002b 	mov	x11, #0x1                   	// #1
   86e9c:	d28fffea 	mov	x10, #0x7fff                	// #32767
   86ea0:	a90363f7 	stp	x23, x24, [sp, #48]
   86ea4:	52849278 	mov	w24, #0x2493                	// #9363
   86ea8:	72b24938 	movk	w24, #0x9249, lsl #16
   86eac:	52800337 	mov	w23, #0x19                  	// #25
   86eb0:	f9003fe7 	str	x7, [sp, #120]
   86eb4:	b900a3e5 	str	w5, [sp, #160]
   86eb8:	11002127 	add	w7, w9, #0x8
   86ebc:	7100053f 	cmp	w9, #0x1
   86ec0:	2a0903e1 	mov	w1, w9
   86ec4:	2a0903f9 	mov	w25, w9
   86ec8:	2a0903f1 	mov	w17, w9
   86ecc:	1b097ce7 	mul	w7, w7, w9
   86ed0:	110010e7 	add	w7, w7, #0x4
   86ed4:	531c6ce7 	lsl	w7, w7, #4
   86ed8:	2a0703e8 	mov	w8, w7
   86edc:	540001ed 	b.le	86f18 <qrcodegen_encodeSegmentsAdvanced+0xe8>
   86ee0:	9b387d20 	smull	x0, w9, w24
   86ee4:	7100193f 	cmp	w9, #0x6
   86ee8:	d360fc00 	lsr	x0, x0, #32
   86eec:	0b090000 	add	w0, w0, w9
   86ef0:	13027c00 	asr	w0, w0, #2
   86ef4:	4b897c00 	sub	w0, w0, w9, asr #31
   86ef8:	11000800 	add	w0, w0, #0x2
   86efc:	1b177c08 	mul	w8, w0, w23
   86f00:	51002908 	sub	w8, w8, #0xa
   86f04:	1b007d08 	mul	w8, w8, w0
   86f08:	5100dd08 	sub	w8, w8, #0x37
   86f0c:	4b0800e8 	sub	w8, w7, w8
   86f10:	51009100 	sub	w0, w8, #0x24
   86f14:	1a88c008 	csel	w8, w0, w8, gt
   86f18:	b4006bb4 	cbz	x20, 87c8c <qrcodegen_encodeSegmentsAdvanced+0xe5c>
   86f1c:	11001c20 	add	w0, w1, #0x7
   86f20:	d2800003 	mov	x3, #0x0                   	// #0
   86f24:	aa1303e1 	mov	x1, x19
   86f28:	d2800004 	mov	x4, #0x0                   	// #0
   86f2c:	9b327c05 	smull	x5, w0, w18
   86f30:	9363fca5 	asr	x5, x5, #35
   86f34:	4b807ca0 	sub	w0, w5, w0, asr #31
   86f38:	93407c05 	sxtw	x5, w0
   86f3c:	14000013 	b	86f88 <qrcodegen_encodeSegmentsAdvanced+0x158>
   86f40:	7100041f 	cmp	w0, #0x1
   86f44:	54000500 	b.eq	86fe4 <qrcodegen_encodeSegmentsAdvanced+0x1b4>  // b.none
   86f48:	7100081f 	cmp	w0, #0x2
   86f4c:	540090c1 	b.ne	88164 <qrcodegen_encodeSegmentsAdvanced+0x1334>  // b.any
   86f50:	b8657980 	ldr	w0, [x12, x5, lsl #2]
   86f54:	9ac0217c 	lsl	x28, x11, x0
   86f58:	eb26c39f 	cmp	x28, w6, sxtw
   86f5c:	5400030d 	b.le	86fbc <qrcodegen_encodeSegmentsAdvanced+0x18c>
   86f60:	93407c00 	sxtw	x0, w0
   86f64:	91001000 	add	x0, x0, #0x4
   86f68:	8b22c000 	add	x0, x0, w2, sxtw
   86f6c:	8b000063 	add	x3, x3, x0
   86f70:	eb0a007f 	cmp	x3, x10
   86f74:	5400024c 	b.gt	86fbc <qrcodegen_encodeSegmentsAdvanced+0x18c>
   86f78:	91000484 	add	x4, x4, #0x1
   86f7c:	91006021 	add	x1, x1, #0x18
   86f80:	eb04029f 	cmp	x20, x4
   86f84:	54000360 	b.eq	86ff0 <qrcodegen_encodeSegmentsAdvanced+0x1c0>  // b.none
   86f88:	29401820 	ldp	w0, w6, [x1]
   86f8c:	b9401022 	ldr	w2, [x1, #16]
   86f90:	7100101f 	cmp	w0, #0x4
   86f94:	54000220 	b.eq	86fd8 <qrcodegen_encodeSegmentsAdvanced+0x1a8>  // b.none
   86f98:	54fffd49 	b.ls	86f40 <qrcodegen_encodeSegmentsAdvanced+0x110>  // b.plast
   86f9c:	71001c1f 	cmp	w0, #0x7
   86fa0:	54000160 	b.eq	86fcc <qrcodegen_encodeSegmentsAdvanced+0x19c>  // b.none
   86fa4:	7100201f 	cmp	w0, #0x8
   86fa8:	54008de1 	b.ne	88164 <qrcodegen_encodeSegmentsAdvanced+0x1334>  // b.any
   86fac:	b86579c0 	ldr	w0, [x14, x5, lsl #2]
   86fb0:	9ac0217c 	lsl	x28, x11, x0
   86fb4:	eb26c39f 	cmp	x28, w6, sxtw
   86fb8:	54fffd4c 	b.gt	86f60 <qrcodegen_encodeSegmentsAdvanced+0x130>
   86fbc:	6b11021f 	cmp	w16, w17
   86fc0:	540064ed 	b.le	87c5c <qrcodegen_encodeSegmentsAdvanced+0xe2c>
   86fc4:	91000529 	add	x9, x9, #0x1
   86fc8:	17ffffbc 	b	86eb8 <qrcodegen_encodeSegmentsAdvanced+0x88>
   86fcc:	d280003c 	mov	x28, #0x1                   	// #1
   86fd0:	52800000 	mov	w0, #0x0                   	// #0
   86fd4:	17ffffe1 	b	86f58 <qrcodegen_encodeSegmentsAdvanced+0x128>
   86fd8:	b86579e0 	ldr	w0, [x15, x5, lsl #2]
   86fdc:	9ac0217c 	lsl	x28, x11, x0
   86fe0:	17ffffde 	b	86f58 <qrcodegen_encodeSegmentsAdvanced+0x128>
   86fe4:	b86579a0 	ldr	w0, [x13, x5, lsl #2]
   86fe8:	9ac0217c 	lsl	x28, x11, x0
   86fec:	17ffffdb 	b	86f58 <qrcodegen_encodeSegmentsAdvanced+0x128>
   86ff0:	3100047f 	cmn	w3, #0x1
   86ff4:	2a0303e6 	mov	w6, w3
   86ff8:	1a9f07e1 	cset	w1, ne  // ne = any
   86ffc:	7100011f 	cmp	w8, #0x0
   87000:	11001d00 	add	w0, w8, #0x7
   87004:	1a88b000 	csel	w0, w0, w8, lt  // lt = tstop
   87008:	38e96b62 	ldrsb	w2, [x27, x9]
   8700c:	38e96bc3 	ldrsb	w3, [x30, x9]
   87010:	13037c00 	asr	w0, w0, #3
   87014:	1b038040 	msub	w0, w2, w3, w0
   87018:	6b000cdf 	cmp	w6, w0, lsl #3
   8701c:	1a9fc7e0 	cset	w0, le
   87020:	6a000020 	ands	w0, w1, w0
   87024:	b900abe0 	str	w0, [sp, #168]
   87028:	54fffca0 	b.eq	86fbc <qrcodegen_encodeSegmentsAdvanced+0x18c>  // b.none
   8702c:	b90087e7 	str	w7, [sp, #132]
   87030:	52800038 	mov	w24, #0x1                   	// #1
   87034:	b94083e7 	ldr	w7, [sp, #128]
   87038:	b9006ff9 	str	w25, [sp, #108]
   8703c:	b9406fe0 	ldr	w0, [sp, #108]
   87040:	2a1803e1 	mov	w1, w24
   87044:	3400009a 	cbz	w26, 87054 <qrcodegen_encodeSegmentsAdvanced+0x224>
   87048:	97fffd7a 	bl	86630 <getNumDataCodewords>
   8704c:	6b000cdf 	cmp	w6, w0, lsl #3
   87050:	1a98c0e7 	csel	w7, w7, w24, gt
   87054:	11000718 	add	w24, w24, #0x1
   87058:	7100131f 	cmp	w24, #0x4
   8705c:	54ffff01 	b.ne	8703c <qrcodegen_encodeSegmentsAdvanced+0x20c>  // b.any
   87060:	b9406ff7 	ldr	w23, [sp, #108]
   87064:	aa1503e0 	mov	x0, x21
   87068:	52800001 	mov	w1, #0x0                   	// #0
   8706c:	b90083e7 	str	w7, [sp, #128]
   87070:	531e76e2 	lsl	w2, w23, #2
   87074:	11004442 	add	w2, w2, #0x11
   87078:	1b027c42 	mul	w2, w2, w2
   8707c:	11001c42 	add	w2, w2, #0x7
   87080:	13037c42 	asr	w2, w2, #3
   87084:	11000442 	add	w2, w2, #0x1
   87088:	93407c42 	sxtw	x2, w2
   8708c:	940007e1 	bl	89010 <memset>
   87090:	b4008554 	cbz	x20, 88138 <qrcodegen_encodeSegmentsAdvanced+0x1308>
   87094:	11001ee1 	add	w1, w23, #0x7
   87098:	528f0f20 	mov	w0, #0x7879                	// #30841
   8709c:	72af0f00 	movk	w0, #0x7878, lsl #16
   870a0:	d2800302 	mov	x2, #0x18                  	// #24
   870a4:	910602c7 	add	x7, x22, #0x180
   870a8:	910642c5 	add	x5, x22, #0x190
   870ac:	9b207c20 	smull	x0, w1, w0
   870b0:	910582c4 	add	x4, x22, #0x160
   870b4:	9b024e94 	madd	x20, x20, x2, x19
   870b8:	9105c2c8 	add	x8, x22, #0x170
   870bc:	52800006 	mov	w6, #0x0                   	// #0
   870c0:	9363fc00 	asr	x0, x0, #35
   870c4:	4b817c00 	sub	w0, w0, w1, asr #31
   870c8:	93407c02 	sxtw	x2, w0
   870cc:	b940026c 	ldr	w12, [x19]
   870d0:	2a0603e3 	mov	w3, w6
   870d4:	52800061 	mov	w1, #0x3                   	// #3
   870d8:	13037c6a 	asr	w10, w3, #3
   870dc:	2a2303e0 	mvn	w0, w3
   870e0:	12000809 	and	w9, w0, #0x7
   870e4:	1ac12580 	lsr	w0, w12, w1
   870e8:	12000000 	and	w0, w0, #0x1
   870ec:	51000421 	sub	w1, w1, #0x1
   870f0:	386acaab 	ldrb	w11, [x21, w10, sxtw]
   870f4:	3100043f 	cmn	w1, #0x1
   870f8:	1ac92000 	lsl	w0, w0, w9
   870fc:	11000463 	add	w3, w3, #0x1
   87100:	2a0b0000 	orr	w0, w0, w11
   87104:	382acaa0 	strb	w0, [x21, w10, sxtw]
   87108:	54fffe81 	b.ne	870d8 <qrcodegen_encodeSegmentsAdvanced+0x2a8>  // b.any
   8710c:	29403660 	ldp	w0, w13, [x19]
   87110:	110010c1 	add	w1, w6, #0x4
   87114:	7100101f 	cmp	w0, #0x4
   87118:	54000da0 	b.eq	872cc <qrcodegen_encodeSegmentsAdvanced+0x49c>  // b.none
   8711c:	54000c08 	b.hi	8729c <qrcodegen_encodeSegmentsAdvanced+0x46c>  // b.pmore
   87120:	7100041f 	cmp	w0, #0x1
   87124:	54000ce0 	b.eq	872c0 <qrcodegen_encodeSegmentsAdvanced+0x490>  // b.none
   87128:	7100081f 	cmp	w0, #0x2
   8712c:	54000c61 	b.ne	872b8 <qrcodegen_encodeSegmentsAdvanced+0x488>  // b.any
   87130:	b862790c 	ldr	w12, [x8, x2, lsl #2]
   87134:	5100058c 	sub	w12, w12, #0x1
   87138:	37f80c0c 	tbnz	w12, #31, 872b8 <qrcodegen_encodeSegmentsAdvanced+0x488>
   8713c:	2a0c03e3 	mov	w3, w12
   87140:	13037c2a 	asr	w10, w1, #3
   87144:	2a2103e0 	mvn	w0, w1
   87148:	12000809 	and	w9, w0, #0x7
   8714c:	1ac325a0 	lsr	w0, w13, w3
   87150:	12000000 	and	w0, w0, #0x1
   87154:	51000463 	sub	w3, w3, #0x1
   87158:	386acaab 	ldrb	w11, [x21, w10, sxtw]
   8715c:	3100047f 	cmn	w3, #0x1
   87160:	1ac92000 	lsl	w0, w0, w9
   87164:	11000421 	add	w1, w1, #0x1
   87168:	2a0b0000 	orr	w0, w0, w11
   8716c:	382acaa0 	strb	w0, [x21, w10, sxtw]
   87170:	54fffe81 	b.ne	87140 <qrcodegen_encodeSegmentsAdvanced+0x310>  // b.any
   87174:	110014c6 	add	w6, w6, #0x5
   87178:	0b0c00c6 	add	w6, w6, w12
   8717c:	b9401260 	ldr	w0, [x19, #16]
   87180:	7100001f 	cmp	w0, #0x0
   87184:	540002cd 	b.le	871dc <qrcodegen_encodeSegmentsAdvanced+0x3ac>
   87188:	52800001 	mov	w1, #0x0                   	// #0
   8718c:	d503201f 	nop
   87190:	f940066b 	ldr	x11, [x19, #8]
   87194:	13037c2c 	asr	w12, w1, #3
   87198:	2a2103e0 	mvn	w0, w1
   8719c:	13037cca 	asr	w10, w6, #3
   871a0:	12000809 	and	w9, w0, #0x7
   871a4:	2a2603e3 	mvn	w3, w6
   871a8:	386cc960 	ldrb	w0, [x11, w12, sxtw]
   871ac:	12000863 	and	w3, w3, #0x7
   871b0:	386acaab 	ldrb	w11, [x21, w10, sxtw]
   871b4:	11000421 	add	w1, w1, #0x1
   871b8:	110004c6 	add	w6, w6, #0x1
   871bc:	1ac92800 	asr	w0, w0, w9
   871c0:	12000000 	and	w0, w0, #0x1
   871c4:	1ac32000 	lsl	w0, w0, w3
   871c8:	2a0b0000 	orr	w0, w0, w11
   871cc:	382acaa0 	strb	w0, [x21, w10, sxtw]
   871d0:	b9401260 	ldr	w0, [x19, #16]
   871d4:	6b01001f 	cmp	w0, w1
   871d8:	54fffdcc 	b.gt	87190 <qrcodegen_encodeSegmentsAdvanced+0x360>
   871dc:	91006273 	add	x19, x19, #0x18
   871e0:	eb13029f 	cmp	x20, x19
   871e4:	54fff741 	b.ne	870cc <qrcodegen_encodeSegmentsAdvanced+0x29c>  // b.any
   871e8:	b9406fe0 	ldr	w0, [sp, #108]
   871ec:	52800098 	mov	w24, #0x4                   	// #4
   871f0:	b94083e1 	ldr	w1, [sp, #128]
   871f4:	97fffd0f 	bl	86630 <getNumDataCodewords>
   871f8:	531d7009 	lsl	w9, w0, #3
   871fc:	2a0003f7 	mov	w23, w0
   87200:	4b060120 	sub	w0, w9, w6
   87204:	6b18001f 	cmp	w0, w24
   87208:	1a98d018 	csel	w24, w0, w24, le
   8720c:	7100001f 	cmp	w0, #0x0
   87210:	5400004d 	b.le	87218 <qrcodegen_encodeSegmentsAdvanced+0x3e8>
   87214:	0b1800c6 	add	w6, w6, w24
   87218:	4b0603e0 	neg	w0, w6
   8721c:	72000800 	ands	w0, w0, #0x7
   87220:	0b0000c0 	add	w0, w6, w0
   87224:	1a861006 	csel	w6, w0, w6, ne  // ne = any
   87228:	110020ca 	add	w10, w6, #0x8
   8722c:	6b0900df 	cmp	w6, w9
   87230:	2a0a03e8 	mov	w8, w10
   87234:	52801d87 	mov	w7, #0xec                  	// #236
   87238:	5400050a 	b.ge	872d8 <qrcodegen_encodeSegmentsAdvanced+0x4a8>  // b.tcont
   8723c:	2a0603e1 	mov	w1, w6
   87240:	11001cc5 	add	w5, w6, #0x7
   87244:	d503201f 	nop
   87248:	13037c23 	asr	w3, w1, #3
   8724c:	4b0100a0 	sub	w0, w5, w1
   87250:	2a2103e2 	mvn	w2, w1
   87254:	11000421 	add	w1, w1, #0x1
   87258:	12000842 	and	w2, w2, #0x7
   8725c:	1ac024e0 	lsr	w0, w7, w0
   87260:	3863caa4 	ldrb	w4, [x21, w3, sxtw]
   87264:	12000000 	and	w0, w0, #0x1
   87268:	6b08003f 	cmp	w1, w8
   8726c:	1ac22000 	lsl	w0, w0, w2
   87270:	2a040000 	orr	w0, w0, w4
   87274:	3823caa0 	strb	w0, [x21, w3, sxtw]
   87278:	54fffe81 	b.ne	87248 <qrcodegen_encodeSegmentsAdvanced+0x418>  // b.any
   8727c:	521e78e7 	eor	w7, w7, #0xfffffffd
   87280:	11002108 	add	w8, w8, #0x8
   87284:	12001ce7 	and	w7, w7, #0xff
   87288:	6b09015f 	cmp	w10, w9
   8728c:	2a0a03e6 	mov	w6, w10
   87290:	5400024a 	b.ge	872d8 <qrcodegen_encodeSegmentsAdvanced+0x4a8>  // b.tcont
   87294:	1100214a 	add	w10, w10, #0x8
   87298:	17ffffe9 	b	8723c <qrcodegen_encodeSegmentsAdvanced+0x40c>
   8729c:	71001c1f 	cmp	w0, #0x7
   872a0:	540000c0 	b.eq	872b8 <qrcodegen_encodeSegmentsAdvanced+0x488>  // b.none
   872a4:	7100201f 	cmp	w0, #0x8
   872a8:	54000081 	b.ne	872b8 <qrcodegen_encodeSegmentsAdvanced+0x488>  // b.any
   872ac:	b86278ac 	ldr	w12, [x5, x2, lsl #2]
   872b0:	5100058c 	sub	w12, w12, #0x1
   872b4:	17ffffa1 	b	87138 <qrcodegen_encodeSegmentsAdvanced+0x308>
   872b8:	2a0103e6 	mov	w6, w1
   872bc:	17ffffb0 	b	8717c <qrcodegen_encodeSegmentsAdvanced+0x34c>
   872c0:	b862788c 	ldr	w12, [x4, x2, lsl #2]
   872c4:	5100058c 	sub	w12, w12, #0x1
   872c8:	17ffff9c 	b	87138 <qrcodegen_encodeSegmentsAdvanced+0x308>
   872cc:	b86278ec 	ldr	w12, [x7, x2, lsl #2]
   872d0:	5100058c 	sub	w12, w12, #0x1
   872d4:	17ffff99 	b	87138 <qrcodegen_encodeSegmentsAdvanced+0x308>
   872d8:	b98083e0 	ldrsw	x0, [sp, #128]
   872dc:	d2800522 	mov	x2, #0x29                  	// #41
   872e0:	b9406fe3 	ldr	w3, [sp, #108]
   872e4:	9102a2c1 	add	x1, x22, #0xa8
   872e8:	7100047f 	cmp	w3, #0x1
   872ec:	9b027c00 	mul	x0, x0, x2
   872f0:	8b000021 	add	x1, x1, x0
   872f4:	8b0002c0 	add	x0, x22, x0
   872f8:	38e3c821 	ldrsb	w1, [x1, w3, sxtw]
   872fc:	b9008be1 	str	w1, [sp, #136]
   87300:	38e3c813 	ldrsb	w19, [x0, w3, sxtw]
   87304:	54004c0d 	b.le	87c84 <qrcodegen_encodeSegmentsAdvanced+0xe54>
   87308:	b9406fe2 	ldr	w2, [sp, #108]
   8730c:	52849261 	mov	w1, #0x2493                	// #9363
   87310:	72b24921 	movk	w1, #0x9249, lsl #16
   87314:	52800320 	mov	w0, #0x19                  	// #25
   87318:	7100185f 	cmp	w2, #0x6
   8731c:	9b217c41 	smull	x1, w2, w1
   87320:	d360fc21 	lsr	x1, x1, #32
   87324:	0b010041 	add	w1, w2, w1
   87328:	13027c21 	asr	w1, w1, #2
   8732c:	4b827c21 	sub	w1, w1, w2, asr #31
   87330:	11000821 	add	w1, w1, #0x2
   87334:	1b007c20 	mul	w0, w1, w0
   87338:	51002800 	sub	w0, w0, #0xa
   8733c:	1b017c00 	mul	w0, w0, w1
   87340:	b94087e1 	ldr	w1, [sp, #132]
   87344:	5100dc00 	sub	w0, w0, #0x37
   87348:	4b000020 	sub	w0, w1, w0
   8734c:	51009001 	sub	w1, w0, #0x24
   87350:	1a80c020 	csel	w0, w1, w0, gt
   87354:	7100001f 	cmp	w0, #0x0
   87358:	11001c04 	add	w4, w0, #0x7
   8735c:	1a80b080 	csel	w0, w4, w0, lt  // lt = tstop
   87360:	b9408be3 	ldr	w3, [sp, #136]
   87364:	93401e62 	sxtb	x2, w19
   87368:	910343f6 	add	x22, sp, #0xd0
   8736c:	13037c04 	asr	w4, w0, #3
   87370:	d1000454 	sub	x20, x2, #0x1
   87374:	aa1603e0 	mov	x0, x22
   87378:	52800001 	mov	w1, #0x0                   	// #0
   8737c:	a90b53e2 	stp	x2, x20, [sp, #176]
   87380:	1ac30c98 	sdiv	w24, w4, w3
   87384:	1b039304 	msub	w4, w24, w3, w4
   87388:	4b130305 	sub	w5, w24, w19
   8738c:	b900cbe5 	str	w5, [sp, #200]
   87390:	4b040063 	sub	w3, w3, w4
   87394:	b900afe3 	str	w3, [sp, #172]
   87398:	9400071e 	bl	89010 <memset>
   8739c:	52800020 	mov	w0, #0x1                   	// #1
   873a0:	38346ac0 	strb	w0, [x22, x20]
   873a4:	7100027f 	cmp	w19, #0x0
   873a8:	5400064d 	b.le	87470 <qrcodegen_encodeSegmentsAdvanced+0x640>
   873ac:	51000669 	sub	w9, w19, #0x1
   873b0:	910347e0 	add	x0, sp, #0xd1
   873b4:	8b090009 	add	x9, x0, x9
   873b8:	5280000c 	mov	w12, #0x0                   	// #0
   873bc:	52800026 	mov	w6, #0x1                   	// #1
   873c0:	528003a7 	mov	w7, #0x1d                  	// #29
   873c4:	5280004a 	mov	w10, #0x2                   	// #2
   873c8:	aa1603e5 	mov	x5, x22
   873cc:	d503201f 	nop
   873d0:	394000a4 	ldrb	w4, [x5]
   873d4:	528000e2 	mov	w2, #0x7                   	// #7
   873d8:	52800000 	mov	w0, #0x0                   	// #0
   873dc:	d503201f 	nop
   873e0:	53077c03 	lsr	w3, w0, #7
   873e4:	1ac228c1 	asr	w1, w6, w2
   873e8:	12000021 	and	w1, w1, #0x1
   873ec:	51000442 	sub	w2, w2, #0x1
   873f0:	3100045f 	cmn	w2, #0x1
   873f4:	1b077c63 	mul	w3, w3, w7
   873f8:	1b017c81 	mul	w1, w4, w1
   873fc:	4a000460 	eor	w0, w3, w0, lsl #1
   87400:	4a010000 	eor	w0, w0, w1
   87404:	12001c00 	and	w0, w0, #0xff
   87408:	54fffec1 	b.ne	873e0 <qrcodegen_encodeSegmentsAdvanced+0x5b0>  // b.any
   8740c:	380014a0 	strb	w0, [x5], #1
   87410:	eb05013f 	cmp	x9, x5
   87414:	540000a0 	b.eq	87428 <qrcodegen_encodeSegmentsAdvanced+0x5f8>  // b.none
   87418:	394000a1 	ldrb	w1, [x5]
   8741c:	4a010000 	eor	w0, w0, w1
   87420:	381ff0a0 	sturb	w0, [x5, #-1]
   87424:	17ffffeb 	b	873d0 <qrcodegen_encodeSegmentsAdvanced+0x5a0>
   87428:	528000e2 	mov	w2, #0x7                   	// #7
   8742c:	52800000 	mov	w0, #0x0                   	// #0
   87430:	53077c03 	lsr	w3, w0, #7
   87434:	1ac22941 	asr	w1, w10, w2
   87438:	12000021 	and	w1, w1, #0x1
   8743c:	51000442 	sub	w2, w2, #0x1
   87440:	3100045f 	cmn	w2, #0x1
   87444:	1b077c63 	mul	w3, w3, w7
   87448:	1b017cc1 	mul	w1, w6, w1
   8744c:	4a000460 	eor	w0, w3, w0, lsl #1
   87450:	4a010000 	eor	w0, w0, w1
   87454:	12001c00 	and	w0, w0, #0xff
   87458:	54fffec1 	b.ne	87430 <qrcodegen_encodeSegmentsAdvanced+0x600>  // b.any
   8745c:	1100058c 	add	w12, w12, #0x1
   87460:	6b0c027f 	cmp	w19, w12
   87464:	54000060 	b.eq	87470 <qrcodegen_encodeSegmentsAdvanced+0x640>  // b.none
   87468:	2a0003e6 	mov	w6, w0
   8746c:	17ffffd7 	b	873c8 <qrcodegen_encodeSegmentsAdvanced+0x598>
   87470:	b9408be0 	ldr	w0, [sp, #136]
   87474:	7100001f 	cmp	w0, #0x0
   87478:	54000ead 	b.le	8764c <qrcodegen_encodeSegmentsAdvanced+0x81c>
   8747c:	51000660 	sub	w0, w19, #0x1
   87480:	93407ee1 	sxtw	x1, w23
   87484:	1100067b 	add	w27, w19, #0x1
   87488:	8b0102ba 	add	x26, x21, x1
   8748c:	93407c18 	sxtw	x24, w0
   87490:	aa1b03fc 	mov	x28, x27
   87494:	aa1803fb 	mov	x27, x24
   87498:	aa1a03f8 	mov	x24, x26
   8749c:	a9097ff5 	stp	x21, xzr, [sp, #144]
   874a0:	f90063e1 	str	x1, [sp, #192]
   874a4:	f9007bf5 	str	x21, [sp, #240]
   874a8:	f9404fe3 	ldr	x3, [sp, #152]
   874ac:	52800001 	mov	w1, #0x0                   	// #0
   874b0:	b940afe0 	ldr	w0, [sp, #172]
   874b4:	f9405be2 	ldr	x2, [sp, #176]
   874b8:	6b03001f 	cmp	w0, w3
   874bc:	b940cbe0 	ldr	w0, [sp, #200]
   874c0:	2a0303f9 	mov	w25, w3
   874c4:	1a80c414 	cinc	w20, w0, le
   874c8:	aa1803e0 	mov	x0, x24
   874cc:	b900a7f4 	str	w20, [sp, #164]
   874d0:	940006d0 	bl	89010 <memset>
   874d4:	7100029f 	cmp	w20, #0x0
   874d8:	540008ad 	b.le	875ec <qrcodegen_encodeSegmentsAdvanced+0x7bc>
   874dc:	f9404be1 	ldr	x1, [sp, #144]
   874e0:	91000715 	add	x21, x24, #0x1
   874e4:	b940a7e0 	ldr	w0, [sp, #164]
   874e8:	d100071a 	sub	x26, x24, #0x1
   874ec:	91000434 	add	x20, x1, #0x1
   874f0:	b900cff9 	str	w25, [sp, #204]
   874f4:	51000400 	sub	w0, w0, #0x1
   874f8:	aa0103f9 	mov	x25, x1
   874fc:	8b000297 	add	x23, x20, x0
   87500:	aa1803f4 	mov	x20, x24
   87504:	f9405fe0 	ldr	x0, [sp, #184]
   87508:	8b000300 	add	x0, x24, x0
   8750c:	f9003be0 	str	x0, [sp, #112]
   87510:	39400283 	ldrb	w3, [x20]
   87514:	aa1b03e2 	mov	x2, x27
   87518:	39400338 	ldrb	w24, [x25]
   8751c:	aa1503e1 	mov	x1, x21
   87520:	aa1403e0 	mov	x0, x20
   87524:	4a030318 	eor	w24, w24, w3
   87528:	940006c2 	bl	89030 <memmove>
   8752c:	12001f18 	and	w24, w24, #0xff
   87530:	f9403be0 	ldr	x0, [sp, #112]
   87534:	7100027f 	cmp	w19, #0x0
   87538:	d2800028 	mov	x8, #0x1                   	// #1
   8753c:	528003a5 	mov	w5, #0x1d                  	// #29
   87540:	3900001f 	strb	wzr, [x0]
   87544:	540002cd 	b.le	8759c <qrcodegen_encodeSegmentsAdvanced+0x76c>
   87548:	8b0802c1 	add	x1, x22, x8
   8754c:	528000e3 	mov	w3, #0x7                   	// #7
   87550:	52800000 	mov	w0, #0x0                   	// #0
   87554:	385ff024 	ldurb	w4, [x1, #-1]
   87558:	53077c02 	lsr	w2, w0, #7
   8755c:	1ac32b01 	asr	w1, w24, w3
   87560:	12000021 	and	w1, w1, #0x1
   87564:	51000463 	sub	w3, w3, #0x1
   87568:	3100047f 	cmn	w3, #0x1
   8756c:	1b057c42 	mul	w2, w2, w5
   87570:	1b017c81 	mul	w1, w4, w1
   87574:	4a000440 	eor	w0, w2, w0, lsl #1
   87578:	4a010000 	eor	w0, w0, w1
   8757c:	12001c00 	and	w0, w0, #0xff
   87580:	54fffec1 	b.ne	87558 <qrcodegen_encodeSegmentsAdvanced+0x728>  // b.any
   87584:	38686b41 	ldrb	w1, [x26, x8]
   87588:	4a010000 	eor	w0, w0, w1
   8758c:	38286b40 	strb	w0, [x26, x8]
   87590:	91000508 	add	x8, x8, #0x1
   87594:	eb08039f 	cmp	x28, x8
   87598:	54fffd81 	b.ne	87548 <qrcodegen_encodeSegmentsAdvanced+0x718>  // b.any
   8759c:	91000739 	add	x25, x25, #0x1
   875a0:	eb1902ff 	cmp	x23, x25
   875a4:	54fffb61 	b.ne	87510 <qrcodegen_encodeSegmentsAdvanced+0x6e0>  // b.any
   875a8:	b9408be3 	ldr	w3, [sp, #136]
   875ac:	aa1403f8 	mov	x24, x20
   875b0:	b940a7e6 	ldr	w6, [sp, #164]
   875b4:	d2800000 	mov	x0, #0x0                   	// #0
   875b8:	b940afe4 	ldr	w4, [sp, #172]
   875bc:	295967e5 	ldp	w5, w25, [sp, #200]
   875c0:	f9403fe7 	ldr	x7, [sp, #120]
   875c4:	f9404be2 	ldr	x2, [sp, #144]
   875c8:	6b0000bf 	cmp	w5, w0
   875cc:	4b040321 	sub	w1, w25, w4
   875d0:	1a990039 	csel	w25, w1, w25, eq  // eq = none
   875d4:	38606841 	ldrb	w1, [x2, x0]
   875d8:	91000400 	add	x0, x0, #0x1
   875dc:	6b0000df 	cmp	w6, w0
   875e0:	3839c8e1 	strb	w1, [x7, w25, sxtw]
   875e4:	0b030339 	add	w25, w25, w3
   875e8:	54ffff0c 	b.gt	875c8 <qrcodegen_encodeSegmentsAdvanced+0x798>
   875ec:	7100027f 	cmp	w19, #0x0
   875f0:	540001cd 	b.le	87628 <qrcodegen_encodeSegmentsAdvanced+0x7f8>
   875f4:	f9403fe0 	ldr	x0, [sp, #120]
   875f8:	f94063e1 	ldr	x1, [sp, #192]
   875fc:	398223e3 	ldrsb	x3, [sp, #136]
   87600:	8b010001 	add	x1, x0, x1
   87604:	f9404fe0 	ldr	x0, [sp, #152]
   87608:	8b000021 	add	x1, x1, x0
   8760c:	d2800000 	mov	x0, #0x0                   	// #0
   87610:	38606b02 	ldrb	w2, [x24, x0]
   87614:	91000400 	add	x0, x0, #0x1
   87618:	39000022 	strb	w2, [x1]
   8761c:	6b00027f 	cmp	w19, w0
   87620:	8b030021 	add	x1, x1, x3
   87624:	54ffff6c 	b.gt	87610 <qrcodegen_encodeSegmentsAdvanced+0x7e0>
   87628:	a94903e2 	ldp	x2, x0, [sp, #144]
   8762c:	b940a7e1 	ldr	w1, [sp, #164]
   87630:	8b21c041 	add	x1, x2, w1, sxtw
   87634:	91000400 	add	x0, x0, #0x1
   87638:	a90903e1 	stp	x1, x0, [sp, #144]
   8763c:	b9408be1 	ldr	w1, [sp, #136]
   87640:	6b00003f 	cmp	w1, w0
   87644:	54fff32c 	b.gt	874a8 <qrcodegen_encodeSegmentsAdvanced+0x678>
   87648:	f9407bf5 	ldr	x21, [sp, #240]
   8764c:	aa1503e1 	mov	x1, x21
   87650:	b9406ff3 	ldr	w19, [sp, #108]
   87654:	2a1303e0 	mov	w0, w19
   87658:	97fffc1e 	bl	866d0 <initializeFunctionModules>
   8765c:	7100067f 	cmp	w19, #0x1
   87660:	540002ad 	b.le	876b4 <qrcodegen_encodeSegmentsAdvanced+0x884>
   87664:	b9406fe2 	ldr	w2, [sp, #108]
   87668:	52849260 	mov	w0, #0x2493                	// #9363
   8766c:	72b24920 	movk	w0, #0x9249, lsl #16
   87670:	52800321 	mov	w1, #0x19                  	// #25
   87674:	7100185f 	cmp	w2, #0x6
   87678:	9b207c40 	smull	x0, w2, w0
   8767c:	d360fc00 	lsr	x0, x0, #32
   87680:	0b000040 	add	w0, w2, w0
   87684:	13027c00 	asr	w0, w0, #2
   87688:	4b827c00 	sub	w0, w0, w2, asr #31
   8768c:	11000800 	add	w0, w0, #0x2
   87690:	1b017c01 	mul	w1, w0, w1
   87694:	51002821 	sub	w1, w1, #0xa
   87698:	1b007c20 	mul	w0, w1, w0
   8769c:	b94087e1 	ldr	w1, [sp, #132]
   876a0:	5100dc00 	sub	w0, w0, #0x37
   876a4:	4b000021 	sub	w1, w1, w0
   876a8:	51009020 	sub	w0, w1, #0x24
   876ac:	1a81c000 	csel	w0, w0, w1, gt
   876b0:	b90087e0 	str	w0, [sp, #132]
   876b4:	b94087e0 	ldr	w0, [sp, #132]
   876b8:	394002aa 	ldrb	w10, [x21]
   876bc:	7100001f 	cmp	w0, #0x0
   876c0:	11001c09 	add	w9, w0, #0x7
   876c4:	1a80b129 	csel	w9, w9, w0, lt  // lt = tstop
   876c8:	5100054c 	sub	w12, w10, #0x1
   876cc:	2a0c03ee 	mov	w14, w12
   876d0:	7100019f 	cmp	w12, #0x0
   876d4:	13037d29 	asr	w9, w9, #3
   876d8:	540052ad 	b.le	8812c <qrcodegen_encodeSegmentsAdvanced+0x12fc>
   876dc:	f9403ff1 	ldr	x17, [sp, #120]
   876e0:	531d7129 	lsl	w9, w9, #3
   876e4:	2a0a03f0 	mov	w16, w10
   876e8:	52800007 	mov	w7, #0x0                   	// #0
   876ec:	5280002f 	mov	w15, #0x1                   	// #1
   876f0:	710019df 	cmp	w14, #0x6
   876f4:	54002900 	b.eq	87c14 <qrcodegen_encodeSegmentsAdvanced+0xde4>  // b.none
   876f8:	510009c0 	sub	w0, w14, #0x2
   876fc:	340005ea 	cbz	w10, 877b8 <qrcodegen_encodeSegmentsAdvanced+0x988>
   87700:	110005cb 	add	w11, w14, #0x1
   87704:	2a0e03ed 	mov	w13, w14
   87708:	121f016b 	and	w11, w11, #0x2
   8770c:	2a0003ee 	mov	w14, w0
   87710:	510009a8 	sub	w8, w13, #0x2
   87714:	52800004 	mov	w4, #0x0                   	// #0
   87718:	14000006 	b	87730 <qrcodegen_encodeSegmentsAdvanced+0x900>
   8771c:	6b01011f 	cmp	w8, w1
   87720:	54000101 	b.ne	87740 <qrcodegen_encodeSegmentsAdvanced+0x910>  // b.any
   87724:	11000484 	add	w4, w4, #0x1
   87728:	6b04015f 	cmp	w10, w4
   8772c:	540004a0 	b.eq	877c0 <qrcodegen_encodeSegmentsAdvanced+0x990>  // b.none
   87730:	7100017f 	cmp	w11, #0x0
   87734:	4b040185 	sub	w5, w12, w4
   87738:	1a851085 	csel	w5, w4, w5, ne  // ne = any
   8773c:	2a0d03e1 	mov	w1, w13
   87740:	1b050600 	madd	w0, w16, w5, w1
   87744:	2a1003f3 	mov	w19, w16
   87748:	51000421 	sub	w1, w1, #0x1
   8774c:	12000802 	and	w2, w0, #0x7
   87750:	13037c00 	asr	w0, w0, #3
   87754:	11000400 	add	w0, w0, #0x1
   87758:	3860caa3 	ldrb	w3, [x21, w0, sxtw]
   8775c:	1ac22866 	asr	w6, w3, w2
   87760:	3707fde6 	tbnz	w6, #0, 8771c <qrcodegen_encodeSegmentsAdvanced+0x8ec>
   87764:	6b07013f 	cmp	w9, w7
   87768:	54fffdad 	b.le	8771c <qrcodegen_encodeSegmentsAdvanced+0x8ec>
   8776c:	13037cf0 	asr	w16, w7, #3
   87770:	2a2703e6 	mvn	w6, w7
   87774:	1ac221e2 	lsl	w2, w15, w2
   87778:	13001c63 	sxtb	w3, w3
   8777c:	120008d2 	and	w18, w6, #0x7
   87780:	13001c42 	sxtb	w2, w2
   87784:	3870ca30 	ldrb	w16, [x17, w16, sxtw]
   87788:	2a020066 	orr	w6, w3, w2
   8778c:	0a220062 	bic	w2, w3, w2
   87790:	12001cc3 	and	w3, w6, #0xff
   87794:	12001c42 	and	w2, w2, #0xff
   87798:	110004e7 	add	w7, w7, #0x1
   8779c:	1ad22a06 	asr	w6, w16, w18
   877a0:	f24000df 	tst	x6, #0x1
   877a4:	1a830042 	csel	w2, w2, w3, eq  // eq = none
   877a8:	3820caa2 	strb	w2, [x21, w0, sxtw]
   877ac:	394002b0 	ldrb	w16, [x21]
   877b0:	2a1003f3 	mov	w19, w16
   877b4:	17ffffda 	b	8771c <qrcodegen_encodeSegmentsAdvanced+0x8ec>
   877b8:	2a0003ee 	mov	w14, w0
   877bc:	2a1003f3 	mov	w19, w16
   877c0:	710001df 	cmp	w14, #0x0
   877c4:	54fff96c 	b.gt	876f0 <qrcodegen_encodeSegmentsAdvanced+0x8c0>
   877c8:	51001e66 	sub	w6, w19, #0x7
   877cc:	71001cdf 	cmp	w6, #0x7
   877d0:	5400036d 	b.le	8783c <qrcodegen_encodeSegmentsAdvanced+0xa0c>
   877d4:	528000e1 	mov	w1, #0x7                   	// #7
   877d8:	52800024 	mov	w4, #0x1                   	// #1
   877dc:	528000c7 	mov	w7, #0x6                   	// #6
   877e0:	14000002 	b	877e8 <qrcodegen_encodeSegmentsAdvanced+0x9b8>
   877e4:	394002b0 	ldrb	w16, [x21]
   877e8:	1b017e00 	mul	w0, w16, w1
   877ec:	11001800 	add	w0, w0, #0x6
   877f0:	12000802 	and	w2, w0, #0x7
   877f4:	13037c00 	asr	w0, w0, #3
   877f8:	11000400 	add	w0, w0, #0x1
   877fc:	1ac22082 	lsl	w2, w4, w2
   87800:	3860caa3 	ldrb	w3, [x21, w0, sxtw]
   87804:	0a220062 	bic	w2, w3, w2
   87808:	3820caa2 	strb	w2, [x21, w0, sxtw]
   8780c:	394002a0 	ldrb	w0, [x21]
   87810:	1b070400 	madd	w0, w0, w7, w1
   87814:	11000821 	add	w1, w1, #0x2
   87818:	6b06003f 	cmp	w1, w6
   8781c:	12000802 	and	w2, w0, #0x7
   87820:	13037c00 	asr	w0, w0, #3
   87824:	11000400 	add	w0, w0, #0x1
   87828:	1ac22082 	lsl	w2, w4, w2
   8782c:	3860caa3 	ldrb	w3, [x21, w0, sxtw]
   87830:	0a220062 	bic	w2, w3, w2
   87834:	3820caa2 	strb	w2, [x21, w0, sxtw]
   87838:	54fffd6b 	b.lt	877e4 <qrcodegen_encodeSegmentsAdvanced+0x9b4>  // b.tstop
   8783c:	51002260 	sub	w0, w19, #0x8
   87840:	12800017 	mov	w23, #0xffffffff            	// #-1
   87844:	2a0003f9 	mov	w25, w0
   87848:	b90073e0 	str	w0, [sp, #112]
   8784c:	b90087f3 	str	w19, [sp, #132]
   87850:	2a3703fb 	mvn	w27, w23
   87854:	b94073f8 	ldr	w24, [sp, #112]
   87858:	51000efa 	sub	w26, w23, #0x3
   8785c:	12800013 	mov	w19, #0xffffffff            	// #-1
   87860:	531f7f7b 	lsr	w27, w27, #31
   87864:	12001f7c 	and	w28, w27, #0xff
   87868:	14000008 	b	87888 <qrcodegen_encodeSegmentsAdvanced+0xa58>
   8786c:	51000a94 	sub	w20, w20, #0x2
   87870:	721e7a9f 	tst	w20, #0xfffffffd
   87874:	54000240 	b.eq	878bc <qrcodegen_encodeSegmentsAdvanced+0xa8c>  // b.none
   87878:	11000673 	add	w19, w19, #0x1
   8787c:	11000718 	add	w24, w24, #0x1
   87880:	7100227f 	cmp	w19, #0x8
   87884:	54000520 	b.eq	87928 <qrcodegen_encodeSegmentsAdvanced+0xaf8>  // b.none
   87888:	51000e60 	sub	w0, w19, #0x3
   8788c:	94000605 	bl	890a0 <abs>
   87890:	2a0003f4 	mov	w20, w0
   87894:	2a1a03e0 	mov	w0, w26
   87898:	94000602 	bl	890a0 <abs>
   8789c:	6b00029f 	cmp	w20, w0
   878a0:	54fffe6a 	b.ge	8786c <qrcodegen_encodeSegmentsAdvanced+0xa3c>  // b.tcont
   878a4:	2a1a03e0 	mov	w0, w26
   878a8:	940005fe 	bl	890a0 <abs>
   878ac:	2a0003f4 	mov	w20, w0
   878b0:	51000a94 	sub	w20, w20, #0x2
   878b4:	721e7a9f 	tst	w20, #0xfffffffd
   878b8:	54fffe01 	b.ne	87878 <qrcodegen_encodeSegmentsAdvanced+0xa48>  // b.any
   878bc:	2a3303e2 	mvn	w2, w19
   878c0:	394002a0 	ldrb	w0, [x21]
   878c4:	531f7c42 	lsr	w2, w2, #31
   878c8:	2a0003e3 	mov	w3, w0
   878cc:	7100005f 	cmp	w2, #0x0
   878d0:	2a0003e4 	mov	w4, w0
   878d4:	7a401260 	ccmp	w19, w0, #0x0, ne  // ne = any
   878d8:	5400080a 	b.ge	879d8 <qrcodegen_encodeSegmentsAdvanced+0xba8>  // b.tcont
   878dc:	6b0002ff 	cmp	w23, w0
   878e0:	1a9fa7e3 	cset	w3, lt  // lt = tstop
   878e4:	6a1b0065 	ands	w5, w3, w27
   878e8:	54001721 	b.ne	87bcc <qrcodegen_encodeSegmentsAdvanced+0xd9c>  // b.any
   878ec:	6b19009f 	cmp	w4, w25
   878f0:	54fffc49 	b.ls	87878 <qrcodegen_encodeSegmentsAdvanced+0xa48>  // b.plast
   878f4:	1b004f20 	madd	w0, w25, w0, w19
   878f8:	52800021 	mov	w1, #0x1                   	// #1
   878fc:	11000673 	add	w19, w19, #0x1
   87900:	11000718 	add	w24, w24, #0x1
   87904:	12000802 	and	w2, w0, #0x7
   87908:	7100227f 	cmp	w19, #0x8
   8790c:	13037c00 	asr	w0, w0, #3
   87910:	11000400 	add	w0, w0, #0x1
   87914:	1ac22022 	lsl	w2, w1, w2
   87918:	3860caa3 	ldrb	w3, [x21, w0, sxtw]
   8791c:	0a220062 	bic	w2, w3, w2
   87920:	3820caa2 	strb	w2, [x21, w0, sxtw]
   87924:	54fffb21 	b.ne	87888 <qrcodegen_encodeSegmentsAdvanced+0xa58>  // b.any
   87928:	110006f7 	add	w23, w23, #0x1
   8792c:	11000739 	add	w25, w25, #0x1
   87930:	710022ff 	cmp	w23, #0x8
   87934:	54fff8e1 	b.ne	87850 <qrcodegen_encodeSegmentsAdvanced+0xa20>  // b.any
   87938:	b9406fe0 	ldr	w0, [sp, #108]
   8793c:	aa1603e1 	mov	x1, x22
   87940:	b94087f3 	ldr	w19, [sp, #132]
   87944:	5280000b 	mov	w11, #0x0                   	// #0
   87948:	52800029 	mov	w9, #0x1                   	// #1
   8794c:	97fffaf9 	bl	86530 <getAlignmentPatternPositions>
   87950:	2a0003ee 	mov	w14, w0
   87954:	aa1603f0 	mov	x16, x22
   87958:	7100001f 	cmp	w0, #0x0
   8795c:	5100040f 	sub	w15, w0, #0x1
   87960:	5400084d 	b.le	87a68 <qrcodegen_encodeSegmentsAdvanced+0xc38>
   87964:	52800008 	mov	w8, #0x0                   	// #0
   87968:	aa1603ea 	mov	x10, x22
   8796c:	2a080160 	orr	w0, w11, w8
   87970:	34000680 	cbz	w0, 87a40 <qrcodegen_encodeSegmentsAdvanced+0xc10>
   87974:	3400106b 	cbz	w11, 87b80 <qrcodegen_encodeSegmentsAdvanced+0xd50>
   87978:	7100011f 	cmp	w8, #0x0
   8797c:	7a4f0160 	ccmp	w11, w15, #0x0, eq  // eq = none
   87980:	54000520 	b.eq	87a24 <qrcodegen_encodeSegmentsAdvanced+0xbf4>  // b.none
   87984:	39400207 	ldrb	w7, [x16]
   87988:	12800004 	mov	w4, #0xffffffff            	// #-1
   8798c:	3940014c 	ldrb	w12, [x10]
   87990:	0b0c0086 	add	w6, w4, w12
   87994:	12800002 	mov	w2, #0xffffffff            	// #-1
   87998:	394002a0 	ldrb	w0, [x21]
   8799c:	0b070041 	add	w1, w2, w7
   879a0:	2a040045 	orr	w5, w2, w4
   879a4:	11000442 	add	w2, w2, #0x1
   879a8:	7100085f 	cmp	w2, #0x2
   879ac:	1b060400 	madd	w0, w0, w6, w1
   879b0:	12000801 	and	w1, w0, #0x7
   879b4:	13037c00 	asr	w0, w0, #3
   879b8:	11000400 	add	w0, w0, #0x1
   879bc:	1ac12121 	lsl	w1, w9, w1
   879c0:	13001c21 	sxtb	w1, w1
   879c4:	38e0caa3 	ldrsb	w3, [x21, w0, sxtw]
   879c8:	35000225 	cbnz	w5, 87a0c <qrcodegen_encodeSegmentsAdvanced+0xbdc>
   879cc:	2a010061 	orr	w1, w3, w1
   879d0:	3820caa1 	strb	w1, [x21, w0, sxtw]
   879d4:	17fffff1 	b	87998 <qrcodegen_encodeSegmentsAdvanced+0xb68>
   879d8:	2a1c03e5 	mov	w5, w28
   879dc:	6b18001f 	cmp	w0, w24
   879e0:	54fff4c9 	b.ls	87878 <qrcodegen_encodeSegmentsAdvanced+0xa48>  // b.plast
   879e4:	710000bf 	cmp	w5, #0x0
   879e8:	7a4312e0 	ccmp	w23, w3, #0x0, ne  // ne = any
   879ec:	54000d0b 	b.lt	87b8c <qrcodegen_encodeSegmentsAdvanced+0xd5c>  // b.tstop
   879f0:	6b03027f 	cmp	w19, w3
   879f4:	2a0303e0 	mov	w0, w3
   879f8:	2a0303e4 	mov	w4, w3
   879fc:	1a9fa7e3 	cset	w3, lt  // lt = tstop
   87a00:	0a030042 	and	w2, w2, w3
   87a04:	34fff3a2 	cbz	w2, 87878 <qrcodegen_encodeSegmentsAdvanced+0xa48>
   87a08:	17ffffb9 	b	878ec <qrcodegen_encodeSegmentsAdvanced+0xabc>
   87a0c:	0a210061 	bic	w1, w3, w1
   87a10:	3820caa1 	strb	w1, [x21, w0, sxtw]
   87a14:	54fffc21 	b.ne	87998 <qrcodegen_encodeSegmentsAdvanced+0xb68>  // b.any
   87a18:	11000484 	add	w4, w4, #0x1
   87a1c:	7100089f 	cmp	w4, #0x2
   87a20:	54fffb81 	b.ne	87990 <qrcodegen_encodeSegmentsAdvanced+0xb60>  // b.any
   87a24:	11000500 	add	w0, w8, #0x1
   87a28:	9100054a 	add	x10, x10, #0x1
   87a2c:	6b0001df 	cmp	w14, w0
   87a30:	54000140 	b.eq	87a58 <qrcodegen_encodeSegmentsAdvanced+0xc28>  // b.none
   87a34:	2a0003e8 	mov	w8, w0
   87a38:	2a080160 	orr	w0, w11, w8
   87a3c:	35fff9c0 	cbnz	w0, 87974 <qrcodegen_encodeSegmentsAdvanced+0xb44>
   87a40:	9100054a 	add	x10, x10, #0x1
   87a44:	710005df 	cmp	w14, #0x1
   87a48:	54000100 	b.eq	87a68 <qrcodegen_encodeSegmentsAdvanced+0xc38>  // b.none
   87a4c:	52800020 	mov	w0, #0x1                   	// #1
   87a50:	2a0003e8 	mov	w8, w0
   87a54:	17fffff9 	b	87a38 <qrcodegen_encodeSegmentsAdvanced+0xc08>
   87a58:	6b08017f 	cmp	w11, w8
   87a5c:	91000610 	add	x16, x16, #0x1
   87a60:	1100056b 	add	w11, w11, #0x1
   87a64:	54fff801 	b.ne	87964 <qrcodegen_encodeSegmentsAdvanced+0xb34>  // b.any
   87a68:	b9406fe0 	ldr	w0, [sp, #108]
   87a6c:	7100181f 	cmp	w0, #0x6
   87a70:	540005ad 	b.le	87b24 <qrcodegen_encodeSegmentsAdvanced+0xcf4>
   87a74:	b9406fe0 	ldr	w0, [sp, #108]
   87a78:	52800181 	mov	w1, #0xc                   	// #12
   87a7c:	5283e4a4 	mov	w4, #0x1f25                	// #7973
   87a80:	130b7c02 	asr	w2, w0, #11
   87a84:	71000421 	subs	w1, w1, #0x1
   87a88:	1b047c42 	mul	w2, w2, w4
   87a8c:	4a000440 	eor	w0, w2, w0, lsl #1
   87a90:	54ffff81 	b.ne	87a80 <qrcodegen_encodeSegmentsAdvanced+0xc50>  // b.any
   87a94:	b9406fe1 	ldr	w1, [sp, #108]
   87a98:	93407c00 	sxtw	x0, w0
   87a9c:	51002e73 	sub	w19, w19, #0xb
   87aa0:	52800004 	mov	w4, #0x0                   	// #0
   87aa4:	52800027 	mov	w7, #0x1                   	// #1
   87aa8:	93747c22 	sbfiz	x2, x1, #12, #32
   87aac:	aa000042 	orr	x2, x2, x0
   87ab0:	2a1303e3 	mov	w3, w19
   87ab4:	394002a0 	ldrb	w0, [x21]
   87ab8:	1b040c00 	madd	w0, w0, w4, w3
   87abc:	12000801 	and	w1, w0, #0x7
   87ac0:	13037c00 	asr	w0, w0, #3
   87ac4:	11000400 	add	w0, w0, #0x1
   87ac8:	1ac120e1 	lsl	w1, w7, w1
   87acc:	13001c21 	sxtb	w1, w1
   87ad0:	38e0caa5 	ldrsb	w5, [x21, w0, sxtw]
   87ad4:	36000ac2 	tbz	w2, #0, 87c2c <qrcodegen_encodeSegmentsAdvanced+0xdfc>
   87ad8:	2a0100a1 	orr	w1, w5, w1
   87adc:	3820caa1 	strb	w1, [x21, w0, sxtw]
   87ae0:	394002a0 	ldrb	w0, [x21]
   87ae4:	1b031000 	madd	w0, w0, w3, w4
   87ae8:	12000801 	and	w1, w0, #0x7
   87aec:	13037c00 	asr	w0, w0, #3
   87af0:	11000400 	add	w0, w0, #0x1
   87af4:	1ac120e1 	lsl	w1, w7, w1
   87af8:	3860caa5 	ldrb	w5, [x21, w0, sxtw]
   87afc:	2a050021 	orr	w1, w1, w5
   87b00:	3820caa1 	strb	w1, [x21, w0, sxtw]
   87b04:	b94073e0 	ldr	w0, [sp, #112]
   87b08:	11000463 	add	w3, w3, #0x1
   87b0c:	9341fc42 	asr	x2, x2, #1
   87b10:	6b03001f 	cmp	w0, w3
   87b14:	54fffd01 	b.ne	87ab4 <qrcodegen_encodeSegmentsAdvanced+0xc84>  // b.any
   87b18:	11000484 	add	w4, w4, #0x1
   87b1c:	7100189f 	cmp	w4, #0x6
   87b20:	54fffc81 	b.ne	87ab0 <qrcodegen_encodeSegmentsAdvanced+0xc80>  // b.any
   87b24:	b9406fe0 	ldr	w0, [sp, #108]
   87b28:	f9403fe1 	ldr	x1, [sp, #120]
   87b2c:	97fffae9 	bl	866d0 <initializeFunctionModules>
   87b30:	b940a3e0 	ldr	w0, [sp, #160]
   87b34:	3100041f 	cmn	w0, #0x1
   87b38:	54000b00 	b.eq	87c98 <qrcodegen_encodeSegmentsAdvanced+0xe68>  // b.none
   87b3c:	f9403fe0 	ldr	x0, [sp, #120]
   87b40:	aa1503e1 	mov	x1, x21
   87b44:	b940a3f3 	ldr	w19, [sp, #160]
   87b48:	2a1303e2 	mov	w2, w19
   87b4c:	97fffbbd 	bl	86a40 <applyMask>
   87b50:	b94083e0 	ldr	w0, [sp, #128]
   87b54:	aa1503e2 	mov	x2, x21
   87b58:	2a1303e1 	mov	w1, w19
   87b5c:	97fffc21 	bl	86be0 <drawFormatBits>
   87b60:	3942a3e0 	ldrb	w0, [sp, #168]
   87b64:	a94153f3 	ldp	x19, x20, [sp, #16]
   87b68:	a9425bf5 	ldp	x21, x22, [sp, #32]
   87b6c:	a94363f7 	ldp	x23, x24, [sp, #48]
   87b70:	a9446bf9 	ldp	x25, x26, [sp, #64]
   87b74:	a94573fb 	ldp	x27, x28, [sp, #80]
   87b78:	a8cf7bfd 	ldp	x29, x30, [sp], #240
   87b7c:	d65f03c0 	ret
   87b80:	6b0f011f 	cmp	w8, w15
   87b84:	54ffefa1 	b.ne	87978 <qrcodegen_encodeSegmentsAdvanced+0xb48>  // b.any
   87b88:	17ffffa7 	b	87a24 <qrcodegen_encodeSegmentsAdvanced+0xbf4>
   87b8c:	1b0362e3 	madd	w3, w23, w3, w24
   87b90:	52800021 	mov	w1, #0x1                   	// #1
   87b94:	12000864 	and	w4, w3, #0x7
   87b98:	13037c63 	asr	w3, w3, #3
   87b9c:	11000460 	add	w0, w3, #0x1
   87ba0:	1ac42023 	lsl	w3, w1, w4
   87ba4:	3860caa4 	ldrb	w4, [x21, w0, sxtw]
   87ba8:	0a230083 	bic	w3, w4, w3
   87bac:	3820caa3 	strb	w3, [x21, w0, sxtw]
   87bb0:	394002a0 	ldrb	w0, [x21]
   87bb4:	6b00027f 	cmp	w19, w0
   87bb8:	2a0003e4 	mov	w4, w0
   87bbc:	1a9fa7e3 	cset	w3, lt  // lt = tstop
   87bc0:	0a030042 	and	w2, w2, w3
   87bc4:	34ffe5a2 	cbz	w2, 87878 <qrcodegen_encodeSegmentsAdvanced+0xa48>
   87bc8:	17ffff49 	b	878ec <qrcodegen_encodeSegmentsAdvanced+0xabc>
   87bcc:	1b004ee0 	madd	w0, w23, w0, w19
   87bd0:	52800021 	mov	w1, #0x1                   	// #1
   87bd4:	12000803 	and	w3, w0, #0x7
   87bd8:	13037c00 	asr	w0, w0, #3
   87bdc:	11000400 	add	w0, w0, #0x1
   87be0:	1ac32023 	lsl	w3, w1, w3
   87be4:	3860caa4 	ldrb	w4, [x21, w0, sxtw]
   87be8:	0a230083 	bic	w3, w4, w3
   87bec:	3820caa3 	strb	w3, [x21, w0, sxtw]
   87bf0:	394002a4 	ldrb	w4, [x21]
   87bf4:	6b18009f 	cmp	w4, w24
   87bf8:	2a0403e3 	mov	w3, w4
   87bfc:	2a0403e0 	mov	w0, w4
   87c00:	54ffef28 	b.hi	879e4 <qrcodegen_encodeSegmentsAdvanced+0xbb4>  // b.pmore
   87c04:	6b04027f 	cmp	w19, w4
   87c08:	1a9fa7e2 	cset	w2, lt  // lt = tstop
   87c0c:	34ffe362 	cbz	w2, 87878 <qrcodegen_encodeSegmentsAdvanced+0xa48>
   87c10:	17ffff37 	b	878ec <qrcodegen_encodeSegmentsAdvanced+0xabc>
   87c14:	5280006e 	mov	w14, #0x3                   	// #3
   87c18:	5280004b 	mov	w11, #0x2                   	// #2
   87c1c:	528000ad 	mov	w13, #0x5                   	// #5
   87c20:	35ffd78a 	cbnz	w10, 87710 <qrcodegen_encodeSegmentsAdvanced+0x8e0>
   87c24:	5280002e 	mov	w14, #0x1                   	// #1
   87c28:	17fffeb4 	b	876f8 <qrcodegen_encodeSegmentsAdvanced+0x8c8>
   87c2c:	0a2100a1 	bic	w1, w5, w1
   87c30:	3820caa1 	strb	w1, [x21, w0, sxtw]
   87c34:	394002a0 	ldrb	w0, [x21]
   87c38:	1b031000 	madd	w0, w0, w3, w4
   87c3c:	12000801 	and	w1, w0, #0x7
   87c40:	13037c00 	asr	w0, w0, #3
   87c44:	11000400 	add	w0, w0, #0x1
   87c48:	1ac120e1 	lsl	w1, w7, w1
   87c4c:	3860caa5 	ldrb	w5, [x21, w0, sxtw]
   87c50:	0a2100a1 	bic	w1, w5, w1
   87c54:	3820caa1 	strb	w1, [x21, w0, sxtw]
   87c58:	17ffffab 	b	87b04 <qrcodegen_encodeSegmentsAdvanced+0xcd4>
   87c5c:	390002bf 	strb	wzr, [x21]
   87c60:	b900abff 	str	wzr, [sp, #168]
   87c64:	a94153f3 	ldp	x19, x20, [sp, #16]
   87c68:	3942a3e0 	ldrb	w0, [sp, #168]
   87c6c:	a9425bf5 	ldp	x21, x22, [sp, #32]
   87c70:	a94363f7 	ldp	x23, x24, [sp, #48]
   87c74:	a9446bf9 	ldp	x25, x26, [sp, #64]
   87c78:	a94573fb 	ldp	x27, x28, [sp, #80]
   87c7c:	a8cf7bfd 	ldp	x29, x30, [sp], #240
   87c80:	d65f03c0 	ret
   87c84:	b94087e0 	ldr	w0, [sp, #132]
   87c88:	17fffdb3 	b	87354 <qrcodegen_encodeSegmentsAdvanced+0x524>
   87c8c:	52800006 	mov	w6, #0x0                   	// #0
   87c90:	52800021 	mov	w1, #0x1                   	// #1
   87c94:	17fffcda 	b	86ffc <qrcodegen_encodeSegmentsAdvanced+0x1cc>
   87c98:	92f00000 	mov	x0, #0x7fffffffffffffff    	// #9223372036854775807
   87c9c:	b90087ff 	str	wzr, [sp, #132]
   87ca0:	f90047e0 	str	x0, [sp, #136]
   87ca4:	f9403fe0 	ldr	x0, [sp, #120]
   87ca8:	aa1503e1 	mov	x1, x21
   87cac:	b94087f3 	ldr	w19, [sp, #132]
   87cb0:	2a1303e2 	mov	w2, w19
   87cb4:	97fffb63 	bl	86a40 <applyMask>
   87cb8:	b94083e0 	ldr	w0, [sp, #128]
   87cbc:	aa1503e2 	mov	x2, x21
   87cc0:	2a1303e1 	mov	w1, w19
   87cc4:	97fffbc7 	bl	86be0 <drawFormatBits>
   87cc8:	394002bb 	ldrb	w27, [x21]
   87ccc:	2a1b03e5 	mov	w5, w27
   87cd0:	3400229b 	cbz	w27, 88120 <qrcodegen_encodeSegmentsAdvanced+0x12f0>
   87cd4:	d280001a 	mov	x26, #0x0                   	// #0
   87cd8:	52800013 	mov	w19, #0x0                   	// #0
   87cdc:	d2800019 	mov	x25, #0x0                   	// #0
   87ce0:	52800014 	mov	w20, #0x0                   	// #0
   87ce4:	52800017 	mov	w23, #0x0                   	// #0
   87ce8:	52800018 	mov	w24, #0x0                   	// #0
   87cec:	a90d7fff 	stp	xzr, xzr, [sp, #208]
   87cf0:	f90073ff 	str	xzr, [sp, #224]
   87cf4:	b900ebff 	str	wzr, [sp, #232]
   87cf8:	14000008 	b	87d18 <qrcodegen_encodeSegmentsAdvanced+0xee8>
   87cfc:	110006f7 	add	w23, w23, #0x1
   87d00:	91000739 	add	x25, x25, #0x1
   87d04:	710016ff 	cmp	w23, #0x5
   87d08:	9a9ad75a 	cinc	x26, x26, gt
   87d0c:	9a8a135a 	csel	x26, x26, x10, ne  // ne = any
   87d10:	6b19037f 	cmp	w27, w25
   87d14:	540004cd 	b.le	87dac <qrcodegen_encodeSegmentsAdvanced+0xf7c>
   87d18:	1b1364a3 	madd	w3, w5, w19, w25
   87d1c:	0b17036b 	add	w11, w27, w23
   87d20:	aa1603e1 	mov	x1, x22
   87d24:	910353e0 	add	x0, sp, #0xd4
   87d28:	12000869 	and	w9, w3, #0x7
   87d2c:	91000f4a 	add	x10, x26, #0x3
   87d30:	13037c63 	asr	w3, w3, #3
   87d34:	2a1903fc 	mov	w28, w25
   87d38:	11000463 	add	w3, w3, #0x1
   87d3c:	d2800302 	mov	x2, #0x18                  	// #24
   87d40:	3863caa3 	ldrb	w3, [x21, w3, sxtw]
   87d44:	1ac92863 	asr	w3, w3, w9
   87d48:	12000063 	and	w3, w3, #0x1
   87d4c:	6b18007f 	cmp	w3, w24
   87d50:	54fffd60 	b.eq	87cfc <qrcodegen_encodeSegmentsAdvanced+0xecc>  // b.none
   87d54:	7100029f 	cmp	w20, #0x0
   87d58:	1a970174 	csel	w20, w11, w23, eq  // eq = none
   87d5c:	52800037 	mov	w23, #0x1                   	// #1
   87d60:	940004b4 	bl	89030 <memmove>
   87d64:	b900d3f4 	str	w20, [sp, #208]
   87d68:	aa1603e0 	mov	x0, x22
   87d6c:	350000b8 	cbnz	w24, 87d80 <qrcodegen_encodeSegmentsAdvanced+0xf50>
   87d70:	97fffa10 	bl	865b0 <finderPenaltyCountPatterns.constprop.0>
   87d74:	52800501 	mov	w1, #0x28                  	// #40
   87d78:	1b017c00 	mul	w0, w0, w1
   87d7c:	8b20c35a 	add	x26, x26, w0, sxtw
   87d80:	394002a5 	ldrb	w5, [x21]
   87d84:	91000739 	add	x25, x25, #0x1
   87d88:	6b19037f 	cmp	w27, w25
   87d8c:	1b1370bc 	madd	w28, w5, w19, w28
   87d90:	12000b81 	and	w1, w28, #0x7
   87d94:	13037f9c 	asr	w28, w28, #3
   87d98:	11000780 	add	w0, w28, #0x1
   87d9c:	3860caa8 	ldrb	w8, [x21, w0, sxtw]
   87da0:	1ac12908 	asr	w8, w8, w1
   87da4:	12000118 	and	w24, w8, #0x1
   87da8:	54fffb8c 	b.gt	87d18 <qrcodegen_encodeSegmentsAdvanced+0xee8>
   87dac:	350002b8 	cbnz	w24, 87e00 <qrcodegen_encodeSegmentsAdvanced+0xfd0>
   87db0:	0b17037c 	add	w28, w27, w23
   87db4:	7100029f 	cmp	w20, #0x0
   87db8:	0b1b0380 	add	w0, w28, w27
   87dbc:	1a9c001c 	csel	w28, w0, w28, eq  // eq = none
   87dc0:	aa1603e1 	mov	x1, x22
   87dc4:	d2800302 	mov	x2, #0x18                  	// #24
   87dc8:	910353e0 	add	x0, sp, #0xd4
   87dcc:	94000499 	bl	89030 <memmove>
   87dd0:	aa1603e0 	mov	x0, x22
   87dd4:	b900d3fc 	str	w28, [sp, #208]
   87dd8:	97fff9f6 	bl	865b0 <finderPenaltyCountPatterns.constprop.0>
   87ddc:	11000677 	add	w23, w19, #0x1
   87de0:	52800501 	mov	w1, #0x28                  	// #40
   87de4:	6b17037f 	cmp	w27, w23
   87de8:	1b017c00 	mul	w0, w0, w1
   87dec:	8b20c35a 	add	x26, x26, w0, sxtw
   87df0:	540001c0 	b.eq	87e28 <qrcodegen_encodeSegmentsAdvanced+0xff8>  // b.none
   87df4:	394002a5 	ldrb	w5, [x21]
   87df8:	2a1703f3 	mov	w19, w23
   87dfc:	17ffffb8 	b	87cdc <qrcodegen_encodeSegmentsAdvanced+0xeac>
   87e00:	7100029f 	cmp	w20, #0x0
   87e04:	0b1b02e0 	add	w0, w23, w27
   87e08:	1a970017 	csel	w23, w0, w23, eq  // eq = none
   87e0c:	aa1603e1 	mov	x1, x22
   87e10:	910353e0 	add	x0, sp, #0xd4
   87e14:	d2800302 	mov	x2, #0x18                  	// #24
   87e18:	2a1b03fc 	mov	w28, w27
   87e1c:	94000485 	bl	89030 <memmove>
   87e20:	b900d3f7 	str	w23, [sp, #208]
   87e24:	17ffffe7 	b	87dc0 <qrcodegen_encodeSegmentsAdvanced+0xf90>
   87e28:	52800018 	mov	w24, #0x0                   	// #0
   87e2c:	394002a5 	ldrb	w5, [x21]
   87e30:	d280001c 	mov	x28, #0x0                   	// #0
   87e34:	52800019 	mov	w25, #0x0                   	// #0
   87e38:	52800014 	mov	w20, #0x0                   	// #0
   87e3c:	5280000a 	mov	w10, #0x0                   	// #0
   87e40:	a90d7fff 	stp	xzr, xzr, [sp, #208]
   87e44:	f90073ff 	str	xzr, [sp, #224]
   87e48:	b900ebff 	str	wzr, [sp, #232]
   87e4c:	14000008 	b	87e6c <qrcodegen_encodeSegmentsAdvanced+0x103c>
   87e50:	11000694 	add	w20, w20, #0x1
   87e54:	9100079c 	add	x28, x28, #0x1
   87e58:	7100169f 	cmp	w20, #0x5
   87e5c:	9a9ad75a 	cinc	x26, x26, gt
   87e60:	9a8c135a 	csel	x26, x26, x12, ne  // ne = any
   87e64:	6b1c02ff 	cmp	w23, w28
   87e68:	5400052d 	b.le	87f0c <qrcodegen_encodeSegmentsAdvanced+0x10dc>
   87e6c:	1b1c60a3 	madd	w3, w5, w28, w24
   87e70:	0b17028d 	add	w13, w20, w23
   87e74:	aa1603e1 	mov	x1, x22
   87e78:	910353e0 	add	x0, sp, #0xd4
   87e7c:	1200086b 	and	w11, w3, #0x7
   87e80:	91000f4c 	add	x12, x26, #0x3
   87e84:	13037c63 	asr	w3, w3, #3
   87e88:	d2800302 	mov	x2, #0x18                  	// #24
   87e8c:	11000463 	add	w3, w3, #0x1
   87e90:	3863caa3 	ldrb	w3, [x21, w3, sxtw]
   87e94:	1acb2863 	asr	w3, w3, w11
   87e98:	12000063 	and	w3, w3, #0x1
   87e9c:	6b03015f 	cmp	w10, w3
   87ea0:	54fffd80 	b.eq	87e50 <qrcodegen_encodeSegmentsAdvanced+0x1020>  // b.none
   87ea4:	7100033f 	cmp	w25, #0x0
   87ea8:	290df3ea 	stp	w10, w28, [sp, #108]
   87eac:	1a9401b9 	csel	w25, w13, w20, eq  // eq = none
   87eb0:	52800034 	mov	w20, #0x1                   	// #1
   87eb4:	9400045f 	bl	89030 <memmove>
   87eb8:	b900d3f9 	str	w25, [sp, #208]
   87ebc:	294d93ea 	ldp	w10, w4, [sp, #108]
   87ec0:	aa1603e0 	mov	x0, x22
   87ec4:	350000ea 	cbnz	w10, 87ee0 <qrcodegen_encodeSegmentsAdvanced+0x10b0>
   87ec8:	b9006fe4 	str	w4, [sp, #108]
   87ecc:	97fff9b9 	bl	865b0 <finderPenaltyCountPatterns.constprop.0>
   87ed0:	52800501 	mov	w1, #0x28                  	// #40
   87ed4:	b9406fe4 	ldr	w4, [sp, #108]
   87ed8:	1b017c00 	mul	w0, w0, w1
   87edc:	8b20c35a 	add	x26, x26, w0, sxtw
   87ee0:	394002a5 	ldrb	w5, [x21]
   87ee4:	9100079c 	add	x28, x28, #0x1
   87ee8:	6b1c02ff 	cmp	w23, w28
   87eec:	1b0460a4 	madd	w4, w5, w4, w24
   87ef0:	12000881 	and	w1, w4, #0x7
   87ef4:	13037c84 	asr	w4, w4, #3
   87ef8:	11000480 	add	w0, w4, #0x1
   87efc:	3860caaa 	ldrb	w10, [x21, w0, sxtw]
   87f00:	1ac1294a 	asr	w10, w10, w1
   87f04:	1200014a 	and	w10, w10, #0x1
   87f08:	54fffb2c 	b.gt	87e6c <qrcodegen_encodeSegmentsAdvanced+0x103c>
   87f0c:	3500028a 	cbnz	w10, 87f5c <qrcodegen_encodeSegmentsAdvanced+0x112c>
   87f10:	0b1402fc 	add	w28, w23, w20
   87f14:	7100033f 	cmp	w25, #0x0
   87f18:	0b170380 	add	w0, w28, w23
   87f1c:	1a9c001c 	csel	w28, w0, w28, eq  // eq = none
   87f20:	aa1603e1 	mov	x1, x22
   87f24:	d2800302 	mov	x2, #0x18                  	// #24
   87f28:	910353e0 	add	x0, sp, #0xd4
   87f2c:	94000441 	bl	89030 <memmove>
   87f30:	aa1603e0 	mov	x0, x22
   87f34:	b900d3fc 	str	w28, [sp, #208]
   87f38:	97fff99e 	bl	865b0 <finderPenaltyCountPatterns.constprop.0>
   87f3c:	11000708 	add	w8, w24, #0x1
   87f40:	52800501 	mov	w1, #0x28                  	// #40
   87f44:	6b13031f 	cmp	w24, w19
   87f48:	1b017c00 	mul	w0, w0, w1
   87f4c:	8b20c35a 	add	x26, x26, w0, sxtw
   87f50:	540001a0 	b.eq	87f84 <qrcodegen_encodeSegmentsAdvanced+0x1154>  // b.none
   87f54:	2a0803f8 	mov	w24, w8
   87f58:	17ffffb5 	b	87e2c <qrcodegen_encodeSegmentsAdvanced+0xffc>
   87f5c:	7100033f 	cmp	w25, #0x0
   87f60:	0b170280 	add	w0, w20, w23
   87f64:	1a940014 	csel	w20, w0, w20, eq  // eq = none
   87f68:	aa1603e1 	mov	x1, x22
   87f6c:	910353e0 	add	x0, sp, #0xd4
   87f70:	d2800302 	mov	x2, #0x18                  	// #24
   87f74:	2a1703fc 	mov	w28, w23
   87f78:	9400042e 	bl	89030 <memmove>
   87f7c:	b900d3f4 	str	w20, [sp, #208]
   87f80:	17ffffe8 	b	87f20 <qrcodegen_encodeSegmentsAdvanced+0x10f0>
   87f84:	394002a5 	ldrb	w5, [x21]
   87f88:	52800006 	mov	w6, #0x0                   	// #0
   87f8c:	52800009 	mov	w9, #0x0                   	// #0
   87f90:	2a0503e7 	mov	w7, w5
   87f94:	34000633 	cbz	w19, 88058 <qrcodegen_encodeSegmentsAdvanced+0x1228>
   87f98:	13037cc0 	asr	w0, w6, #3
   87f9c:	2a0603e4 	mov	w4, w6
   87fa0:	11000400 	add	w0, w0, #0x1
   87fa4:	510004e8 	sub	w8, w7, #0x1
   87fa8:	52800003 	mov	w3, #0x0                   	// #0
   87fac:	3860caa2 	ldrb	w2, [x21, w0, sxtw]
   87fb0:	14000003 	b	87fbc <qrcodegen_encodeSegmentsAdvanced+0x118c>
   87fb4:	6b13007f 	cmp	w3, w19
   87fb8:	5400046a 	b.ge	88044 <qrcodegen_encodeSegmentsAdvanced+0x1214>  // b.tcont
   87fbc:	11000463 	add	w3, w3, #0x1
   87fc0:	12000880 	and	w0, w4, #0x7
   87fc4:	0b0300c4 	add	w4, w6, w3
   87fc8:	1ac02840 	asr	w0, w2, w0
   87fcc:	12000881 	and	w1, w4, #0x7
   87fd0:	13037c82 	asr	w2, w4, #3
   87fd4:	12000000 	and	w0, w0, #0x1
   87fd8:	11000442 	add	w2, w2, #0x1
   87fdc:	3862caa2 	ldrb	w2, [x21, w2, sxtw]
   87fe0:	1ac12841 	asr	w1, w2, w1
   87fe4:	12000021 	and	w1, w1, #0x1
   87fe8:	6b01001f 	cmp	w0, w1
   87fec:	54fffe41 	b.ne	87fb4 <qrcodegen_encodeSegmentsAdvanced+0x1184>  // b.any
   87ff0:	0b030101 	add	w1, w8, w3
   87ff4:	1200082a 	and	w10, w1, #0x7
   87ff8:	13037c21 	asr	w1, w1, #3
   87ffc:	11000421 	add	w1, w1, #0x1
   88000:	3861caa1 	ldrb	w1, [x21, w1, sxtw]
   88004:	1aca2821 	asr	w1, w1, w10
   88008:	12000021 	and	w1, w1, #0x1
   8800c:	6b01001f 	cmp	w0, w1
   88010:	54fffd21 	b.ne	87fb4 <qrcodegen_encodeSegmentsAdvanced+0x1184>  // b.any
   88014:	0b0300e1 	add	w1, w7, w3
   88018:	91000f4a 	add	x10, x26, #0x3
   8801c:	1200082b 	and	w11, w1, #0x7
   88020:	13037c21 	asr	w1, w1, #3
   88024:	11000421 	add	w1, w1, #0x1
   88028:	3861caa1 	ldrb	w1, [x21, w1, sxtw]
   8802c:	1acb2821 	asr	w1, w1, w11
   88030:	12000021 	and	w1, w1, #0x1
   88034:	6b01001f 	cmp	w0, w1
   88038:	9a9a015a 	csel	x26, x10, x26, eq  // eq = none
   8803c:	6b13007f 	cmp	w3, w19
   88040:	54fffbeb 	b.lt	87fbc <qrcodegen_encodeSegmentsAdvanced+0x118c>  // b.tstop
   88044:	11000529 	add	w9, w9, #0x1
   88048:	0b0500c6 	add	w6, w6, w5
   8804c:	6b09027f 	cmp	w19, w9
   88050:	0b0500e7 	add	w7, w7, w5
   88054:	54fffa2c 	b.gt	87f98 <qrcodegen_encodeSegmentsAdvanced+0x1168>
   88058:	52800004 	mov	w4, #0x0                   	// #0
   8805c:	52800002 	mov	w2, #0x0                   	// #0
   88060:	52800006 	mov	w6, #0x0                   	// #0
   88064:	52800001 	mov	w1, #0x0                   	// #0
   88068:	0b040020 	add	w0, w1, w4
   8806c:	11000421 	add	w1, w1, #0x1
   88070:	12000803 	and	w3, w0, #0x7
   88074:	6b01037f 	cmp	w27, w1
   88078:	13037c00 	asr	w0, w0, #3
   8807c:	11000400 	add	w0, w0, #0x1
   88080:	3860caa0 	ldrb	w0, [x21, w0, sxtw]
   88084:	1ac32800 	asr	w0, w0, w3
   88088:	12000000 	and	w0, w0, #0x1
   8808c:	0b000042 	add	w2, w2, w0
   88090:	54fffecc 	b.gt	88068 <qrcodegen_encodeSegmentsAdvanced+0x1238>
   88094:	110004c6 	add	w6, w6, #0x1
   88098:	0b050084 	add	w4, w4, w5
   8809c:	6b06037f 	cmp	w27, w6
   880a0:	54fffe2c 	b.gt	88064 <qrcodegen_encodeSegmentsAdvanced+0x1234>
   880a4:	52800280 	mov	w0, #0x14                  	// #20
   880a8:	9b207c42 	smull	x2, w2, w0
   880ac:	1b1b7f7b 	mul	w27, w27, w27
   880b0:	12800120 	mov	w0, #0xfffffff6            	// #-10
   880b4:	93407f73 	sxtw	x19, w27
   880b8:	9b200b60 	smaddl	x0, w27, w0, x2
   880bc:	94000415 	bl	89110 <labs>
   880c0:	8b000263 	add	x3, x19, x0
   880c4:	d1000463 	sub	x3, x3, #0x1
   880c8:	52800144 	mov	w4, #0xa                   	// #10
   880cc:	b94087e2 	ldr	w2, [sp, #132]
   880d0:	aa1503e1 	mov	x1, x21
   880d4:	f9403fe0 	ldr	x0, [sp, #120]
   880d8:	9ad30c63 	sdiv	x3, x3, x19
   880dc:	51000463 	sub	w3, w3, #0x1
   880e0:	1b047c63 	mul	w3, w3, w4
   880e4:	b940a3e4 	ldr	w4, [sp, #160]
   880e8:	8b23c35a 	add	x26, x26, w3, sxtw
   880ec:	f94047e3 	ldr	x3, [sp, #136]
   880f0:	eb03035f 	cmp	x26, x3
   880f4:	9a9aa063 	csel	x3, x3, x26, ge  // ge = tcont
   880f8:	1a82a084 	csel	w4, w4, w2, ge  // ge = tcont
   880fc:	f90047e3 	str	x3, [sp, #136]
   88100:	11000443 	add	w3, w2, #0x1
   88104:	2a0303f3 	mov	w19, w3
   88108:	b90087e3 	str	w3, [sp, #132]
   8810c:	b900a3e4 	str	w4, [sp, #160]
   88110:	97fffa4c 	bl	86a40 <applyMask>
   88114:	7100227f 	cmp	w19, #0x8
   88118:	54ffdc61 	b.ne	87ca4 <qrcodegen_encodeSegmentsAdvanced+0xe74>  // b.any
   8811c:	17fffe88 	b	87b3c <qrcodegen_encodeSegmentsAdvanced+0xd0c>
   88120:	d2800002 	mov	x2, #0x0                   	// #0
   88124:	d280001a 	mov	x26, #0x0                   	// #0
   88128:	17ffffe1 	b	880ac <qrcodegen_encodeSegmentsAdvanced+0x127c>
   8812c:	2a0a03f3 	mov	w19, w10
   88130:	2a0a03f0 	mov	w16, w10
   88134:	17fffda5 	b	877c8 <qrcodegen_encodeSegmentsAdvanced+0x998>
   88138:	b9406fe0 	ldr	w0, [sp, #108]
   8813c:	52800006 	mov	w6, #0x0                   	// #0
   88140:	b94083e1 	ldr	w1, [sp, #128]
   88144:	97fff93b 	bl	86630 <getNumDataCodewords>
   88148:	531d7009 	lsl	w9, w0, #3
   8814c:	7100113f 	cmp	w9, #0x4
   88150:	2a0003f7 	mov	w23, w0
   88154:	1a98d138 	csel	w24, w9, w24, le
   88158:	7100013f 	cmp	w9, #0x0
   8815c:	54ff85cc 	b.gt	87214 <qrcodegen_encodeSegmentsAdvanced+0x3e4>
   88160:	17fffc32 	b	87228 <qrcodegen_encodeSegmentsAdvanced+0x3f8>
   88164:	d280001c 	mov	x28, #0x0                   	// #0
   88168:	12800000 	mov	w0, #0xffffffff            	// #-1
   8816c:	17fffb7b 	b	86f58 <qrcodegen_encodeSegmentsAdvanced+0x128>

0000000000088170 <qrcodegen_encodeBinary>:
   88170:	d10103ff 	sub	sp, sp, #0x40
   88174:	52800088 	mov	w8, #0x4                   	// #4
   88178:	aa0003e9 	mov	x9, x0
   8817c:	d28fffe0 	mov	x0, #0x7fff                	// #32767
   88180:	a9017bfd 	stp	x29, x30, [sp, #16]
   88184:	910043fd 	add	x29, sp, #0x10
   88188:	b9002be8 	str	w8, [sp, #40]
   8818c:	aa0103e8 	mov	x8, x1
   88190:	eb00011f 	cmp	x8, x0
   88194:	aa0203e1 	mov	x1, x2
   88198:	540002a8 	b.hi	881ec <qrcodegen_encodeBinary+0x7c>  // b.pmore
   8819c:	d37df10a 	lsl	x10, x8, #3
   881a0:	eb00015f 	cmp	x10, x0
   881a4:	5400024c 	b.gt	881ec <qrcodegen_encodeBinary+0x7c>
   881a8:	f90003e1 	str	x1, [sp]
   881ac:	2a0303e2 	mov	w2, w3
   881b0:	9100a3e0 	add	x0, sp, #0x28
   881b4:	2a0403e3 	mov	w3, w4
   881b8:	d2800021 	mov	x1, #0x1                   	// #1
   881bc:	2a0503e4 	mov	w4, w5
   881c0:	2a0603e5 	mov	w5, w6
   881c4:	12001ce6 	and	w6, w7, #0xff
   881c8:	aa0903e7 	mov	x7, x9
   881cc:	b9002fe8 	str	w8, [sp, #44]
   881d0:	f9001be9 	str	x9, [sp, #48]
   881d4:	b9003bea 	str	w10, [sp, #56]
   881d8:	97fffb16 	bl	86e30 <qrcodegen_encodeSegmentsAdvanced>
   881dc:	12001c00 	and	w0, w0, #0xff
   881e0:	a9417bfd 	ldp	x29, x30, [sp, #16]
   881e4:	910103ff 	add	sp, sp, #0x40
   881e8:	d65f03c0 	ret
   881ec:	3900003f 	strb	wzr, [x1]
   881f0:	52800000 	mov	w0, #0x0                   	// #0
   881f4:	a9417bfd 	ldp	x29, x30, [sp, #16]
   881f8:	910103ff 	add	sp, sp, #0x40
   881fc:	d65f03c0 	ret

0000000000088200 <qrcodegen_encodeSegments>:
   88200:	d10083ff 	sub	sp, sp, #0x20
   88204:	aa0303e7 	mov	x7, x3
   88208:	52800026 	mov	w6, #0x1                   	// #1
   8820c:	12800005 	mov	w5, #0xffffffff            	// #-1
   88210:	52800023 	mov	w3, #0x1                   	// #1
   88214:	a9017bfd 	stp	x29, x30, [sp, #16]
   88218:	910043fd 	add	x29, sp, #0x10
   8821c:	f90003e4 	str	x4, [sp]
   88220:	52800504 	mov	w4, #0x28                  	// #40
   88224:	97fffb03 	bl	86e30 <qrcodegen_encodeSegmentsAdvanced>
   88228:	a9417bfd 	ldp	x29, x30, [sp, #16]
   8822c:	910083ff 	add	sp, sp, #0x20
   88230:	d65f03c0 	ret
   88234:	d503201f 	nop
   88238:	d503201f 	nop
   8823c:	d503201f 	nop

0000000000088240 <qrcodegen_getSize>:
   88240:	39400000 	ldrb	w0, [x0]
   88244:	d65f03c0 	ret
   88248:	d503201f 	nop
   8824c:	d503201f 	nop

0000000000088250 <qrcodegen_getModule>:
   88250:	39400003 	ldrb	w3, [x0]
   88254:	aa0003e4 	mov	x4, x0
   88258:	52800000 	mov	w0, #0x0                   	// #0
   8825c:	6b01007f 	cmp	w3, w1
   88260:	54000169 	b.ls	8828c <qrcodegen_getModule+0x3c>  // b.plast
   88264:	6b02007f 	cmp	w3, w2
   88268:	52800000 	mov	w0, #0x0                   	// #0
   8826c:	54000109 	b.ls	8828c <qrcodegen_getModule+0x3c>  // b.plast
   88270:	1b020463 	madd	w3, w3, w2, w1
   88274:	12000861 	and	w1, w3, #0x7
   88278:	13037c63 	asr	w3, w3, #3
   8827c:	11000463 	add	w3, w3, #0x1
   88280:	3863c880 	ldrb	w0, [x4, w3, sxtw]
   88284:	1ac12800 	asr	w0, w0, w1
   88288:	12000000 	and	w0, w0, #0x1
   8828c:	d65f03c0 	ret

0000000000088290 <qrcodegen_isNumeric>:
   88290:	39400001 	ldrb	w1, [x0]
   88294:	35000081 	cbnz	w1, 882a4 <qrcodegen_isNumeric+0x14>
   88298:	14000009 	b	882bc <qrcodegen_isNumeric+0x2c>
   8829c:	38401c01 	ldrb	w1, [x0, #1]!
   882a0:	340000e1 	cbz	w1, 882bc <qrcodegen_isNumeric+0x2c>
   882a4:	5100c021 	sub	w1, w1, #0x30
   882a8:	12001c21 	and	w1, w1, #0xff
   882ac:	7100243f 	cmp	w1, #0x9
   882b0:	54ffff69 	b.ls	8829c <qrcodegen_isNumeric+0xc>  // b.plast
   882b4:	52800000 	mov	w0, #0x0                   	// #0
   882b8:	d65f03c0 	ret
   882bc:	52800020 	mov	w0, #0x1                   	// #1
   882c0:	d65f03c0 	ret
   882c4:	d503201f 	nop
   882c8:	d503201f 	nop
   882cc:	d503201f 	nop

00000000000882d0 <qrcodegen_isAlphanumeric>:
   882d0:	39400001 	ldrb	w1, [x0]
   882d4:	340002a1 	cbz	w1, 88328 <qrcodegen_isAlphanumeric+0x58>
   882d8:	a9be7bfd 	stp	x29, x30, [sp, #-32]!
   882dc:	910003fd 	mov	x29, sp
   882e0:	a90153f3 	stp	x19, x20, [sp, #16]
   882e4:	d0000034 	adrp	x20, 8e000 <sc_scope_draw+0x570>
   882e8:	911e2294 	add	x20, x20, #0x788
   882ec:	aa0003f3 	mov	x19, x0
   882f0:	14000003 	b	882fc <qrcodegen_isAlphanumeric+0x2c>
   882f4:	38401e61 	ldrb	w1, [x19, #1]!
   882f8:	34000101 	cbz	w1, 88318 <qrcodegen_isAlphanumeric+0x48>
   882fc:	aa1403e0 	mov	x0, x20
   88300:	94000378 	bl	890e0 <strchr>
   88304:	b5ffff80 	cbnz	x0, 882f4 <qrcodegen_isAlphanumeric+0x24>
   88308:	52800000 	mov	w0, #0x0                   	// #0
   8830c:	a94153f3 	ldp	x19, x20, [sp, #16]
   88310:	a8c27bfd 	ldp	x29, x30, [sp], #32
   88314:	d65f03c0 	ret
   88318:	52800020 	mov	w0, #0x1                   	// #1
   8831c:	a94153f3 	ldp	x19, x20, [sp, #16]
   88320:	a8c27bfd 	ldp	x29, x30, [sp], #32
   88324:	d65f03c0 	ret
   88328:	52800020 	mov	w0, #0x1                   	// #1
   8832c:	d65f03c0 	ret

0000000000088330 <qrcodegen_calcSegmentBufferSize>:
   88330:	d28fffe2 	mov	x2, #0x7fff                	// #32767
   88334:	eb02003f 	cmp	x1, x2
   88338:	540004c8 	b.hi	883d0 <qrcodegen_calcSegmentBufferSize+0xa0>  // b.pmore
   8833c:	7100041f 	cmp	w0, #0x1
   88340:	540002e0 	b.eq	8839c <qrcodegen_calcSegmentBufferSize+0x6c>  // b.none
   88344:	7100081f 	cmp	w0, #0x2
   88348:	54000140 	b.eq	88370 <qrcodegen_calcSegmentBufferSize+0x40>  // b.none
   8834c:	7100101f 	cmp	w0, #0x4
   88350:	540003c0 	b.eq	883c8 <qrcodegen_calcSegmentBufferSize+0x98>  // b.none
   88354:	7100201f 	cmp	w0, #0x8
   88358:	54000320 	b.eq	883bc <qrcodegen_calcSegmentBufferSize+0x8c>  // b.none
   8835c:	f100003f 	cmp	x1, #0x0
   88360:	d2800061 	mov	x1, #0x3                   	// #3
   88364:	7a470800 	ccmp	w0, #0x7, #0x0, eq  // eq = none
   88368:	da9f0020 	csinv	x0, x1, xzr, eq  // eq = none
   8836c:	d65f03c0 	ret
   88370:	d2800160 	mov	x0, #0xb                   	// #11
   88374:	9b007c21 	mul	x1, x1, x0
   88378:	91000421 	add	x1, x1, #0x1
   8837c:	9341fc21 	asr	x1, x1, #1
   88380:	d28fffe0 	mov	x0, #0x7fff                	// #32767
   88384:	eb00003f 	cmp	x1, x0
   88388:	5400024c 	b.gt	883d0 <qrcodegen_calcSegmentBufferSize+0xa0>
   8838c:	11001c21 	add	w1, w1, #0x7
   88390:	93407c20 	sxtw	x0, w1
   88394:	d343fc00 	lsr	x0, x0, #3
   88398:	d65f03c0 	ret
   8839c:	8b010821 	add	x1, x1, x1, lsl #2
   883a0:	b201f3e0 	mov	x0, #0xaaaaaaaaaaaaaaaa    	// #-6148914691236517206
   883a4:	8b010021 	add	x1, x1, x1
   883a8:	f2955560 	movk	x0, #0xaaab
   883ac:	91000821 	add	x1, x1, #0x2
   883b0:	9bc07c21 	umulh	x1, x1, x0
   883b4:	d341fc21 	lsr	x1, x1, #1
   883b8:	17fffff2 	b	88380 <qrcodegen_calcSegmentBufferSize+0x50>
   883bc:	d28001a0 	mov	x0, #0xd                   	// #13
   883c0:	9b007c21 	mul	x1, x1, x0
   883c4:	17ffffef 	b	88380 <qrcodegen_calcSegmentBufferSize+0x50>
   883c8:	d37df021 	lsl	x1, x1, #3
   883cc:	17ffffed 	b	88380 <qrcodegen_calcSegmentBufferSize+0x50>
   883d0:	92800000 	mov	x0, #0xffffffffffffffff    	// #-1
   883d4:	d65f03c0 	ret
   883d8:	d503201f 	nop
   883dc:	d503201f 	nop

00000000000883e0 <qrcodegen_makeBytes>:
   883e0:	a9bd7bfd 	stp	x29, x30, [sp, #-48]!
   883e4:	910003fd 	mov	x29, sp
   883e8:	a90153f3 	stp	x19, x20, [sp, #16]
   883ec:	aa0103f3 	mov	x19, x1
   883f0:	aa0803f4 	mov	x20, x8
   883f4:	a9025bf5 	stp	x21, x22, [sp, #32]
   883f8:	d28fffe1 	mov	x1, #0x7fff                	// #32767
   883fc:	aa0203f6 	mov	x22, x2
   88400:	eb01027f 	cmp	x19, x1
   88404:	540001a8 	b.hi	88438 <qrcodegen_makeBytes+0x58>  // b.pmore
   88408:	d37df263 	lsl	x3, x19, #3
   8840c:	eb01007f 	cmp	x3, x1
   88410:	da9fd075 	csinv	x21, x3, xzr, le
   88414:	b5000153 	cbnz	x19, 8843c <qrcodegen_makeBytes+0x5c>
   88418:	52800080 	mov	w0, #0x4                   	// #4
   8841c:	29004e80 	stp	w0, w19, [x20]
   88420:	f9000696 	str	x22, [x20, #8]
   88424:	b9001295 	str	w21, [x20, #16]
   88428:	a94153f3 	ldp	x19, x20, [sp, #16]
   8842c:	a9425bf5 	ldp	x21, x22, [sp, #32]
   88430:	a8c37bfd 	ldp	x29, x30, [sp], #48
   88434:	d65f03c0 	ret
   88438:	12800015 	mov	w21, #0xffffffff            	// #-1
   8843c:	aa0003e1 	mov	x1, x0
   88440:	aa1303e2 	mov	x2, x19
   88444:	aa1603e0 	mov	x0, x22
   88448:	940003ca 	bl	89370 <memcpy>
   8844c:	52800080 	mov	w0, #0x4                   	// #4
   88450:	29004e80 	stp	w0, w19, [x20]
   88454:	f9000696 	str	x22, [x20, #8]
   88458:	b9001295 	str	w21, [x20, #16]
   8845c:	a94153f3 	ldp	x19, x20, [sp, #16]
   88460:	a9425bf5 	ldp	x21, x22, [sp, #32]
   88464:	a8c37bfd 	ldp	x29, x30, [sp], #48
   88468:	d65f03c0 	ret
   8846c:	d503201f 	nop

0000000000088470 <qrcodegen_makeNumeric>:
   88470:	a9bd7bfd 	stp	x29, x30, [sp, #-48]!
   88474:	910003fd 	mov	x29, sp
   88478:	a90153f3 	stp	x19, x20, [sp, #16]
   8847c:	aa0103f3 	mov	x19, x1
   88480:	aa0003f4 	mov	x20, x0
   88484:	a9025bf5 	stp	x21, x22, [sp, #32]
   88488:	aa0803f6 	mov	x22, x8
   8848c:	94000309 	bl	890b0 <strlen>
   88490:	aa0003f5 	mov	x21, x0
   88494:	d28fffe0 	mov	x0, #0x7fff                	// #32767
   88498:	eb0002bf 	cmp	x21, x0
   8849c:	54000268 	b.hi	884e8 <qrcodegen_makeNumeric+0x78>  // b.pmore
   884a0:	8b150aa1 	add	x1, x21, x21, lsl #2
   884a4:	b201f3e2 	mov	x2, #0xaaaaaaaaaaaaaaaa    	// #-6148914691236517206
   884a8:	8b010021 	add	x1, x1, x1
   884ac:	f2955562 	movk	x2, #0xaaab
   884b0:	91000820 	add	x0, x1, #0x2
   884b4:	d28fffa3 	mov	x3, #0x7ffd                	// #32765
   884b8:	f2a00023 	movk	x3, #0x1, lsl #16
   884bc:	eb03003f 	cmp	x1, x3
   884c0:	9bc27c00 	umulh	x0, x0, x2
   884c4:	d341fc00 	lsr	x0, x0, #1
   884c8:	5400010c 	b.gt	884e8 <qrcodegen_makeNumeric+0x78>
   884cc:	b40000e0 	cbz	x0, 884e8 <qrcodegen_makeNumeric+0x78>
   884d0:	11001c02 	add	w2, w0, #0x7
   884d4:	52800001 	mov	w1, #0x0                   	// #0
   884d8:	aa1303e0 	mov	x0, x19
   884dc:	93407c42 	sxtw	x2, w2
   884e0:	d343fc42 	lsr	x2, x2, #3
   884e4:	940002cb 	bl	89010 <memset>
   884e8:	39400280 	ldrb	w0, [x20]
   884ec:	52800006 	mov	w6, #0x0                   	// #0
   884f0:	52800023 	mov	w3, #0x1                   	// #1
   884f4:	52800148 	mov	w8, #0xa                   	// #10
   884f8:	5100c001 	sub	w1, w0, #0x30
   884fc:	12800129 	mov	w9, #0xfffffff6            	// #-10
   88500:	340003e0 	cbz	w0, 8857c <qrcodegen_makeNumeric+0x10c>
   88504:	d503201f 	nop
   88508:	38401e82 	ldrb	w2, [x20, #1]!
   8850c:	34000362 	cbz	w2, 88578 <qrcodegen_makeNumeric+0x108>
   88510:	1b080822 	madd	w2, w1, w8, w2
   88514:	11000463 	add	w3, w3, #0x1
   88518:	71000c7f 	cmp	w3, #0x3
   8851c:	5100c041 	sub	w1, w2, #0x30
   88520:	54ffff41 	b.ne	88508 <qrcodegen_makeNumeric+0x98>  // b.any
   88524:	110024c7 	add	w7, w6, #0x9
   88528:	4b060120 	sub	w0, w9, w6
   8852c:	52800123 	mov	w3, #0x9                   	// #9
   88530:	4b0300e4 	sub	w4, w7, w3
   88534:	0b030002 	add	w2, w0, w3
   88538:	12000845 	and	w5, w2, #0x7
   8853c:	1ac32422 	lsr	w2, w1, w3
   88540:	13037c84 	asr	w4, w4, #3
   88544:	12000042 	and	w2, w2, #0x1
   88548:	51000463 	sub	w3, w3, #0x1
   8854c:	1ac52042 	lsl	w2, w2, w5
   88550:	3100047f 	cmn	w3, #0x1
   88554:	3864ca65 	ldrb	w5, [x19, w4, sxtw]
   88558:	2a050042 	orr	w2, w2, w5
   8855c:	3824ca62 	strb	w2, [x19, w4, sxtw]
   88560:	54fffe81 	b.ne	88530 <qrcodegen_makeNumeric+0xc0>  // b.any
   88564:	38401e82 	ldrb	w2, [x20, #1]!
   88568:	110028c6 	add	w6, w6, #0xa
   8856c:	52800003 	mov	w3, #0x0                   	// #0
   88570:	52800001 	mov	w1, #0x0                   	// #0
   88574:	35fffce2 	cbnz	w2, 88510 <qrcodegen_makeNumeric+0xa0>
   88578:	35000123 	cbnz	w3, 8859c <qrcodegen_makeNumeric+0x12c>
   8857c:	52800020 	mov	w0, #0x1                   	// #1
   88580:	290056c0 	stp	w0, w21, [x22]
   88584:	f90006d3 	str	x19, [x22, #8]
   88588:	b90012c6 	str	w6, [x22, #16]
   8858c:	a94153f3 	ldp	x19, x20, [sp, #16]
   88590:	a9425bf5 	ldp	x21, x22, [sp, #32]
   88594:	a8c37bfd 	ldp	x29, x30, [sp], #48
   88598:	d65f03c0 	ret
   8859c:	0b030463 	add	w3, w3, w3, lsl #1
   885a0:	2a2603e9 	mvn	w9, w6
   885a4:	2a0303e2 	mov	w2, w3
   885a8:	0b0300c8 	add	w8, w6, w3
   885ac:	d503201f 	nop
   885b0:	4b020105 	sub	w5, w8, w2
   885b4:	4b030044 	sub	w4, w2, w3
   885b8:	0b040124 	add	w4, w9, w4
   885bc:	1ac22420 	lsr	w0, w1, w2
   885c0:	13037ca5 	asr	w5, w5, #3
   885c4:	12000884 	and	w4, w4, #0x7
   885c8:	12000000 	and	w0, w0, #0x1
   885cc:	51000442 	sub	w2, w2, #0x1
   885d0:	3100045f 	cmn	w2, #0x1
   885d4:	3865ca67 	ldrb	w7, [x19, w5, sxtw]
   885d8:	1ac42000 	lsl	w0, w0, w4
   885dc:	2a070000 	orr	w0, w0, w7
   885e0:	3825ca60 	strb	w0, [x19, w5, sxtw]
   885e4:	54fffe61 	b.ne	885b0 <qrcodegen_makeNumeric+0x140>  // b.any
   885e8:	110004c6 	add	w6, w6, #0x1
   885ec:	52800020 	mov	w0, #0x1                   	// #1
   885f0:	0b0300c6 	add	w6, w6, w3
   885f4:	290056c0 	stp	w0, w21, [x22]
   885f8:	f90006d3 	str	x19, [x22, #8]
   885fc:	b90012c6 	str	w6, [x22, #16]
   88600:	a94153f3 	ldp	x19, x20, [sp, #16]
   88604:	a9425bf5 	ldp	x21, x22, [sp, #32]
   88608:	a8c37bfd 	ldp	x29, x30, [sp], #48
   8860c:	d65f03c0 	ret

0000000000088610 <qrcodegen_makeAlphanumeric>:
   88610:	a9ba7bfd 	stp	x29, x30, [sp, #-96]!
   88614:	910003fd 	mov	x29, sp
   88618:	a90153f3 	stp	x19, x20, [sp, #16]
   8861c:	aa0003f3 	mov	x19, x0
   88620:	a9025bf5 	stp	x21, x22, [sp, #32]
   88624:	aa0803f6 	mov	x22, x8
   88628:	a90363f7 	stp	x23, x24, [sp, #48]
   8862c:	a9046bf9 	stp	x25, x26, [sp, #64]
   88630:	aa0103f9 	mov	x25, x1
   88634:	9400029f 	bl	890b0 <strlen>
   88638:	d28fffe1 	mov	x1, #0x7fff                	// #32767
   8863c:	2a0003f8 	mov	w24, w0
   88640:	eb01001f 	cmp	x0, x1
   88644:	540001c8 	b.hi	8867c <qrcodegen_makeAlphanumeric+0x6c>  // b.pmore
   88648:	d2800162 	mov	x2, #0xb                   	// #11
   8864c:	9b027c00 	mul	x0, x0, x2
   88650:	91000400 	add	x0, x0, #0x1
   88654:	9341fc00 	asr	x0, x0, #1
   88658:	eb01001f 	cmp	x0, x1
   8865c:	5400010c 	b.gt	8867c <qrcodegen_makeAlphanumeric+0x6c>
   88660:	b40000e0 	cbz	x0, 8867c <qrcodegen_makeAlphanumeric+0x6c>
   88664:	11001c02 	add	w2, w0, #0x7
   88668:	52800001 	mov	w1, #0x0                   	// #0
   8866c:	aa1903e0 	mov	x0, x25
   88670:	93407c42 	sxtw	x2, w2
   88674:	d343fc42 	lsr	x2, x2, #3
   88678:	94000266 	bl	89010 <memset>
   8867c:	39400261 	ldrb	w1, [x19]
   88680:	52800014 	mov	w20, #0x0                   	// #0
   88684:	340002e1 	cbz	w1, 886e0 <qrcodegen_makeAlphanumeric+0xd0>
   88688:	a90573fb 	stp	x27, x28, [sp, #80]
   8868c:	d000003b 	adrp	x27, 8e000 <sc_scope_draw+0x570>
   88690:	911e237b 	add	x27, x27, #0x788
   88694:	aa1b03e0 	mov	x0, x27
   88698:	94000292 	bl	890e0 <strchr>
   8869c:	4b1b001a 	sub	w26, w0, w27
   886a0:	52800014 	mov	w20, #0x0                   	// #0
   886a4:	5280003c 	mov	w28, #0x1                   	// #1
   886a8:	528005b5 	mov	w21, #0x2d                  	// #45
   886ac:	12800157 	mov	w23, #0xfffffff5            	// #-11
   886b0:	38401e61 	ldrb	w1, [x19, #1]!
   886b4:	34000121 	cbz	w1, 886d8 <qrcodegen_makeAlphanumeric+0xc8>
   886b8:	aa1b03e0 	mov	x0, x27
   886bc:	94000289 	bl	890e0 <strchr>
   886c0:	cb1b0000 	sub	x0, x0, x27
   886c4:	1b15035a 	madd	w26, w26, w21, w0
   886c8:	3500021c 	cbnz	w28, 88708 <qrcodegen_makeAlphanumeric+0xf8>
   886cc:	38401e61 	ldrb	w1, [x19, #1]!
   886d0:	5280003c 	mov	w28, #0x1                   	// #1
   886d4:	35ffff21 	cbnz	w1, 886b8 <qrcodegen_makeAlphanumeric+0xa8>
   886d8:	3500043c 	cbnz	w28, 8875c <qrcodegen_makeAlphanumeric+0x14c>
   886dc:	a94573fb 	ldp	x27, x28, [sp, #80]
   886e0:	52800040 	mov	w0, #0x2                   	// #2
   886e4:	290062c0 	stp	w0, w24, [x22]
   886e8:	f90006d9 	str	x25, [x22, #8]
   886ec:	b90012d4 	str	w20, [x22, #16]
   886f0:	a94153f3 	ldp	x19, x20, [sp, #16]
   886f4:	a9425bf5 	ldp	x21, x22, [sp, #32]
   886f8:	a94363f7 	ldp	x23, x24, [sp, #48]
   886fc:	a9446bf9 	ldp	x25, x26, [sp, #64]
   88700:	a8c67bfd 	ldp	x29, x30, [sp], #96
   88704:	d65f03c0 	ret
   88708:	11002a86 	add	w6, w20, #0xa
   8870c:	4b1402e1 	sub	w1, w23, w20
   88710:	52800143 	mov	w3, #0xa                   	// #10
   88714:	d503201f 	nop
   88718:	4b0300c4 	sub	w4, w6, w3
   8871c:	0b030022 	add	w2, w1, w3
   88720:	12000845 	and	w5, w2, #0x7
   88724:	1ac32742 	lsr	w2, w26, w3
   88728:	13037c84 	asr	w4, w4, #3
   8872c:	12000042 	and	w2, w2, #0x1
   88730:	51000463 	sub	w3, w3, #0x1
   88734:	1ac52042 	lsl	w2, w2, w5
   88738:	3100047f 	cmn	w3, #0x1
   8873c:	3864cb20 	ldrb	w0, [x25, w4, sxtw]
   88740:	2a000042 	orr	w2, w2, w0
   88744:	3824cb22 	strb	w2, [x25, w4, sxtw]
   88748:	54fffe81 	b.ne	88718 <qrcodegen_makeAlphanumeric+0x108>  // b.any
   8874c:	11002e94 	add	w20, w20, #0xb
   88750:	5280001c 	mov	w28, #0x0                   	// #0
   88754:	5280001a 	mov	w26, #0x0                   	// #0
   88758:	17ffffd6 	b	886b0 <qrcodegen_makeAlphanumeric+0xa0>
   8875c:	128000a4 	mov	w4, #0xfffffffa            	// #-6
   88760:	11001685 	add	w5, w20, #0x5
   88764:	4b140084 	sub	w4, w4, w20
   88768:	528000a1 	mov	w1, #0x5                   	// #5
   8876c:	d503201f 	nop
   88770:	4b0100a2 	sub	w2, w5, w1
   88774:	0b010080 	add	w0, w4, w1
   88778:	12000803 	and	w3, w0, #0x7
   8877c:	1ac12740 	lsr	w0, w26, w1
   88780:	13037c42 	asr	w2, w2, #3
   88784:	12000000 	and	w0, w0, #0x1
   88788:	51000421 	sub	w1, w1, #0x1
   8878c:	1ac32000 	lsl	w0, w0, w3
   88790:	3100043f 	cmn	w1, #0x1
   88794:	3862cb23 	ldrb	w3, [x25, w2, sxtw]
   88798:	2a030000 	orr	w0, w0, w3
   8879c:	3822cb20 	strb	w0, [x25, w2, sxtw]
   887a0:	54fffe81 	b.ne	88770 <qrcodegen_makeAlphanumeric+0x160>  // b.any
   887a4:	11001a94 	add	w20, w20, #0x6
   887a8:	a94573fb 	ldp	x27, x28, [sp, #80]
   887ac:	17ffffcd 	b	886e0 <qrcodegen_makeAlphanumeric+0xd0>

00000000000887b0 <qrcodegen_encodeText>:
   887b0:	d10303ff 	sub	sp, sp, #0xc0
   887b4:	a9017bfd 	stp	x29, x30, [sp, #16]
   887b8:	910043fd 	add	x29, sp, #0x10
   887bc:	a9035bf5 	stp	x21, x22, [sp, #48]
   887c0:	aa0103f5 	mov	x21, x1
   887c4:	12001ce1 	and	w1, w7, #0xff
   887c8:	2a0503f6 	mov	w22, w5
   887cc:	a90253f3 	stp	x19, x20, [sp, #32]
   887d0:	aa0003f4 	mov	x20, x0
   887d4:	a90463f7 	stp	x23, x24, [sp, #64]
   887d8:	aa0203f7 	mov	x23, x2
   887dc:	2a0303f8 	mov	w24, w3
   887e0:	a9056bf9 	stp	x25, x26, [sp, #80]
   887e4:	2a0403f9 	mov	w25, w4
   887e8:	2a0603fa 	mov	w26, w6
   887ec:	b90077e1 	str	w1, [sp, #116]
   887f0:	94000230 	bl	890b0 <strlen>
   887f4:	b4000dc0 	cbz	x0, 889ac <qrcodegen_encodeText+0x1fc>
   887f8:	531e76c2 	lsl	w2, w22, #2
   887fc:	a90673fb 	stp	x27, x28, [sp, #96]
   88800:	11004442 	add	w2, w2, #0x11
   88804:	39400281 	ldrb	w1, [x20]
   88808:	aa0003fb 	mov	x27, x0
   8880c:	1b027c53 	mul	w19, w2, w2
   88810:	11001e73 	add	w19, w19, #0x7
   88814:	13037e73 	asr	w19, w19, #3
   88818:	11000673 	add	w19, w19, #0x1
   8881c:	93407e60 	sxtw	x0, w19
   88820:	f9003fe0 	str	x0, [sp, #120]
   88824:	34000501 	cbz	w1, 888c4 <qrcodegen_encodeText+0x114>
   88828:	aa1403e2 	mov	x2, x20
   8882c:	2a0103e8 	mov	w8, w1
   88830:	14000003 	b	8883c <qrcodegen_encodeText+0x8c>
   88834:	38401c48 	ldrb	w8, [x2, #1]!
   88838:	34000468 	cbz	w8, 888c4 <qrcodegen_encodeText+0x114>
   8883c:	5100c108 	sub	w8, w8, #0x30
   88840:	12001d08 	and	w8, w8, #0xff
   88844:	7100251f 	cmp	w8, #0x9
   88848:	54ffff69 	b.ls	88834 <qrcodegen_encodeText+0x84>  // b.plast
   8884c:	d000003c 	adrp	x28, 8e000 <sc_scope_draw+0x570>
   88850:	911e239c 	add	x28, x28, #0x788
   88854:	aa1403f3 	mov	x19, x20
   88858:	14000003 	b	88864 <qrcodegen_encodeText+0xb4>
   8885c:	38401e61 	ldrb	w1, [x19, #1]!
   88860:	34000c81 	cbz	w1, 889f0 <qrcodegen_encodeText+0x240>
   88864:	aa1c03e0 	mov	x0, x28
   88868:	9400021e 	bl	890e0 <strchr>
   8886c:	b5ffff80 	cbnz	x0, 8885c <qrcodegen_encodeText+0xac>
   88870:	f9403fe0 	ldr	x0, [sp, #120]
   88874:	eb00037f 	cmp	x27, x0
   88878:	540004c8 	b.hi	88910 <qrcodegen_encodeText+0x160>  // b.pmore
   8887c:	d2800000 	mov	x0, #0x0                   	// #0
   88880:	38606a81 	ldrb	w1, [x20, x0]
   88884:	38206aa1 	strb	w1, [x21, x0]
   88888:	91000400 	add	x0, x0, #0x1
   8888c:	eb00037f 	cmp	x27, x0
   88890:	54ffff81 	b.ne	88880 <qrcodegen_encodeText+0xd0>  // b.any
   88894:	52800080 	mov	w0, #0x4                   	// #4
   88898:	b900abe0 	str	w0, [sp, #168]
   8889c:	d28fffe1 	mov	x1, #0x7fff                	// #32767
   888a0:	eb01037f 	cmp	x27, x1
   888a4:	54000368 	b.hi	88910 <qrcodegen_encodeText+0x160>  // b.pmore
   888a8:	d37df360 	lsl	x0, x27, #3
   888ac:	eb01001f 	cmp	x0, x1
   888b0:	5400030c 	b.gt	88910 <qrcodegen_encodeText+0x160>
   888b4:	b900affb 	str	w27, [sp, #172]
   888b8:	f9005bf5 	str	x21, [sp, #176]
   888bc:	b900bbe0 	str	w0, [sp, #184]
   888c0:	14000028 	b	88960 <qrcodegen_encodeText+0x1b0>
   888c4:	d28fffe0 	mov	x0, #0x7fff                	// #32767
   888c8:	eb00037f 	cmp	x27, x0
   888cc:	54000228 	b.hi	88910 <qrcodegen_encodeText+0x160>  // b.pmore
   888d0:	8b1b0b63 	add	x3, x27, x27, lsl #2
   888d4:	b201f3e1 	mov	x1, #0xaaaaaaaaaaaaaaaa    	// #-6148914691236517206
   888d8:	8b030063 	add	x3, x3, x3
   888dc:	f2955561 	movk	x1, #0xaaab
   888e0:	91000860 	add	x0, x3, #0x2
   888e4:	d28fffa2 	mov	x2, #0x7ffd                	// #32765
   888e8:	f2a00022 	movk	x2, #0x1, lsl #16
   888ec:	eb02007f 	cmp	x3, x2
   888f0:	9bc17c00 	umulh	x0, x0, x1
   888f4:	d341fc00 	lsr	x0, x0, #1
   888f8:	540000cc 	b.gt	88910 <qrcodegen_encodeText+0x160>
   888fc:	11001c00 	add	w0, w0, #0x7
   88900:	f9403fe1 	ldr	x1, [sp, #120]
   88904:	93407c00 	sxtw	x0, w0
   88908:	eb400c3f 	cmp	x1, x0, lsr #3
   8890c:	54000162 	b.cs	88938 <qrcodegen_encodeText+0x188>  // b.hs, b.nlast
   88910:	390002ff 	strb	wzr, [x23]
   88914:	52800000 	mov	w0, #0x0                   	// #0
   88918:	a9417bfd 	ldp	x29, x30, [sp, #16]
   8891c:	a94253f3 	ldp	x19, x20, [sp, #32]
   88920:	a9435bf5 	ldp	x21, x22, [sp, #48]
   88924:	a94463f7 	ldp	x23, x24, [sp, #64]
   88928:	a9456bf9 	ldp	x25, x26, [sp, #80]
   8892c:	a94673fb 	ldp	x27, x28, [sp, #96]
   88930:	910303ff 	add	sp, sp, #0xc0
   88934:	d65f03c0 	ret
   88938:	aa1403e0 	mov	x0, x20
   8893c:	910203e8 	add	x8, sp, #0x80
   88940:	aa1503e1 	mov	x1, x21
   88944:	97fffecb 	bl	88470 <qrcodegen_makeNumeric>
   88948:	f94043e0 	ldr	x0, [sp, #128]
   8894c:	f90057e0 	str	x0, [sp, #168]
   88950:	f94047e0 	ldr	x0, [sp, #136]
   88954:	f9005be0 	str	x0, [sp, #176]
   88958:	f9404be0 	ldr	x0, [sp, #144]
   8895c:	f9005fe0 	str	x0, [sp, #184]
   88960:	3941d3e6 	ldrb	w6, [sp, #116]
   88964:	aa1503e7 	mov	x7, x21
   88968:	f90003f7 	str	x23, [sp]
   8896c:	2a1a03e5 	mov	w5, w26
   88970:	2a1603e4 	mov	w4, w22
   88974:	2a1903e3 	mov	w3, w25
   88978:	2a1803e2 	mov	w2, w24
   8897c:	9102a3e0 	add	x0, sp, #0xa8
   88980:	d2800021 	mov	x1, #0x1                   	// #1
   88984:	97fff92b 	bl	86e30 <qrcodegen_encodeSegmentsAdvanced>
   88988:	12001c00 	and	w0, w0, #0xff
   8898c:	a9417bfd 	ldp	x29, x30, [sp, #16]
   88990:	a94253f3 	ldp	x19, x20, [sp, #32]
   88994:	a9435bf5 	ldp	x21, x22, [sp, #48]
   88998:	a94463f7 	ldp	x23, x24, [sp, #64]
   8899c:	a9456bf9 	ldp	x25, x26, [sp, #80]
   889a0:	a94673fb 	ldp	x27, x28, [sp, #96]
   889a4:	910303ff 	add	sp, sp, #0xc0
   889a8:	d65f03c0 	ret
   889ac:	3941d3e6 	ldrb	w6, [sp, #116]
   889b0:	aa1503e7 	mov	x7, x21
   889b4:	f90003f7 	str	x23, [sp]
   889b8:	2a1a03e5 	mov	w5, w26
   889bc:	2a1603e4 	mov	w4, w22
   889c0:	2a1903e3 	mov	w3, w25
   889c4:	2a1803e2 	mov	w2, w24
   889c8:	d2800001 	mov	x1, #0x0                   	// #0
   889cc:	97fff919 	bl	86e30 <qrcodegen_encodeSegmentsAdvanced>
   889d0:	12001c00 	and	w0, w0, #0xff
   889d4:	a9417bfd 	ldp	x29, x30, [sp, #16]
   889d8:	a94253f3 	ldp	x19, x20, [sp, #32]
   889dc:	a9435bf5 	ldp	x21, x22, [sp, #48]
   889e0:	a94463f7 	ldp	x23, x24, [sp, #64]
   889e4:	a9456bf9 	ldp	x25, x26, [sp, #80]
   889e8:	910303ff 	add	sp, sp, #0xc0
   889ec:	d65f03c0 	ret
   889f0:	d28fffe1 	mov	x1, #0x7fff                	// #32767
   889f4:	eb01037f 	cmp	x27, x1
   889f8:	54fff8c8 	b.hi	88910 <qrcodegen_encodeText+0x160>  // b.pmore
   889fc:	d2800160 	mov	x0, #0xb                   	// #11
   88a00:	9b007f60 	mul	x0, x27, x0
   88a04:	91000400 	add	x0, x0, #0x1
   88a08:	9341fc00 	asr	x0, x0, #1
   88a0c:	eb01001f 	cmp	x0, x1
   88a10:	54fff80c 	b.gt	88910 <qrcodegen_encodeText+0x160>
   88a14:	11001c00 	add	w0, w0, #0x7
   88a18:	f9403fe1 	ldr	x1, [sp, #120]
   88a1c:	93407c00 	sxtw	x0, w0
   88a20:	eb400c3f 	cmp	x1, x0, lsr #3
   88a24:	54fff763 	b.cc	88910 <qrcodegen_encodeText+0x160>  // b.lo, b.ul, b.last
   88a28:	aa1403e0 	mov	x0, x20
   88a2c:	910203e8 	add	x8, sp, #0x80
   88a30:	aa1503e1 	mov	x1, x21
   88a34:	97fffef7 	bl	88610 <qrcodegen_makeAlphanumeric>
   88a38:	17ffffc4 	b	88948 <qrcodegen_encodeText+0x198>
   88a3c:	d503201f 	nop

0000000000088a40 <qrcodegen_makeEci>:
   88a40:	a9bd7bfd 	stp	x29, x30, [sp, #-48]!
   88a44:	910003fd 	mov	x29, sp
   88a48:	a90153f3 	stp	x19, x20, [sp, #16]
   88a4c:	aa0003f4 	mov	x20, x0
   88a50:	aa0103f3 	mov	x19, x1
   88a54:	f90013f5 	str	x21, [sp, #32]
   88a58:	52800000 	mov	w0, #0x0                   	// #0
   88a5c:	aa0803f5 	mov	x21, x8
   88a60:	b7f80154 	tbnz	x20, #63, 88a88 <qrcodegen_makeEci+0x48>
   88a64:	f101fe9f 	cmp	x20, #0x7f
   88a68:	540001ed 	b.le	88aa4 <qrcodegen_makeEci+0x64>
   88a6c:	d287ffe1 	mov	x1, #0x3fff                	// #16383
   88a70:	eb01029f 	cmp	x20, x1
   88a74:	540009ad 	b.le	88ba8 <qrcodegen_makeEci+0x168>
   88a78:	d28847e1 	mov	x1, #0x423f                	// #16959
   88a7c:	f2a001e1 	movk	x1, #0xf, lsl #16
   88a80:	eb01029f 	cmp	x20, x1
   88a84:	5400042d 	b.le	88b08 <qrcodegen_makeEci+0xc8>
   88a88:	d28000e1 	mov	x1, #0x7                   	// #7
   88a8c:	a9004ea1 	stp	x1, x19, [x21]
   88a90:	b90012a0 	str	w0, [x21, #16]
   88a94:	a94153f3 	ldp	x19, x20, [sp, #16]
   88a98:	f94013f5 	ldr	x21, [sp, #32]
   88a9c:	a8c37bfd 	ldp	x29, x30, [sp], #48
   88aa0:	d65f03c0 	ret
   88aa4:	d2800022 	mov	x2, #0x1                   	// #1
   88aa8:	52800001 	mov	w1, #0x0                   	// #0
   88aac:	aa1303e0 	mov	x0, x19
   88ab0:	94000158 	bl	89010 <memset>
   88ab4:	39400262 	ldrb	w2, [x19]
   88ab8:	528000e1 	mov	w1, #0x7                   	// #7
   88abc:	d503201f 	nop
   88ac0:	12000823 	and	w3, w1, #0x7
   88ac4:	1ac12680 	lsr	w0, w20, w1
   88ac8:	12000000 	and	w0, w0, #0x1
   88acc:	51000421 	sub	w1, w1, #0x1
   88ad0:	3100043f 	cmn	w1, #0x1
   88ad4:	1ac32000 	lsl	w0, w0, w3
   88ad8:	2a020000 	orr	w0, w0, w2
   88adc:	39000260 	strb	w0, [x19]
   88ae0:	2a0003e2 	mov	w2, w0
   88ae4:	54fffee1 	b.ne	88ac0 <qrcodegen_makeEci+0x80>  // b.any
   88ae8:	52800100 	mov	w0, #0x8                   	// #8
   88aec:	d28000e1 	mov	x1, #0x7                   	// #7
   88af0:	a9004ea1 	stp	x1, x19, [x21]
   88af4:	b90012a0 	str	w0, [x21, #16]
   88af8:	a94153f3 	ldp	x19, x20, [sp, #16]
   88afc:	f94013f5 	ldr	x21, [sp, #32]
   88b00:	a8c37bfd 	ldp	x29, x30, [sp], #48
   88b04:	d65f03c0 	ret
   88b08:	52800001 	mov	w1, #0x0                   	// #0
   88b0c:	aa1303e0 	mov	x0, x19
   88b10:	d2800062 	mov	x2, #0x3                   	// #3
   88b14:	9400013f 	bl	89010 <memset>
   88b18:	39400260 	ldrb	w0, [x19]
   88b1c:	d34aa685 	ubfx	x5, x20, #10, #32
   88b20:	52800141 	mov	w1, #0xa                   	// #10
   88b24:	528001a4 	mov	w4, #0xd                   	// #13
   88b28:	321a6400 	orr	w0, w0, #0xffffffc0
   88b2c:	39000260 	strb	w0, [x19]
   88b30:	4b010082 	sub	w2, w4, w1
   88b34:	51003820 	sub	w0, w1, #0xe
   88b38:	12000803 	and	w3, w0, #0x7
   88b3c:	1ac124a0 	lsr	w0, w5, w1
   88b40:	13037c42 	asr	w2, w2, #3
   88b44:	12000000 	and	w0, w0, #0x1
   88b48:	51000421 	sub	w1, w1, #0x1
   88b4c:	1ac32000 	lsl	w0, w0, w3
   88b50:	3100043f 	cmn	w1, #0x1
   88b54:	3862ca63 	ldrb	w3, [x19, w2, sxtw]
   88b58:	2a030000 	orr	w0, w0, w3
   88b5c:	3822ca60 	strb	w0, [x19, w2, sxtw]
   88b60:	54fffe81 	b.ne	88b30 <qrcodegen_makeEci+0xf0>  // b.any
   88b64:	12002694 	and	w20, w20, #0x3ff
   88b68:	52800121 	mov	w1, #0x9                   	// #9
   88b6c:	528002e4 	mov	w4, #0x17                  	// #23
   88b70:	4b010082 	sub	w2, w4, w1
   88b74:	12000823 	and	w3, w1, #0x7
   88b78:	1ac12680 	lsr	w0, w20, w1
   88b7c:	12000000 	and	w0, w0, #0x1
   88b80:	13037c42 	asr	w2, w2, #3
   88b84:	51000421 	sub	w1, w1, #0x1
   88b88:	1ac32000 	lsl	w0, w0, w3
   88b8c:	3100043f 	cmn	w1, #0x1
   88b90:	3862ca63 	ldrb	w3, [x19, w2, sxtw]
   88b94:	2a030000 	orr	w0, w0, w3
   88b98:	3822ca60 	strb	w0, [x19, w2, sxtw]
   88b9c:	54fffea1 	b.ne	88b70 <qrcodegen_makeEci+0x130>  // b.any
   88ba0:	52800300 	mov	w0, #0x18                  	// #24
   88ba4:	17ffffb9 	b	88a88 <qrcodegen_makeEci+0x48>
   88ba8:	d2800042 	mov	x2, #0x2                   	// #2
   88bac:	aa1303e0 	mov	x0, x19
   88bb0:	52800001 	mov	w1, #0x0                   	// #0
   88bb4:	94000117 	bl	89010 <memset>
   88bb8:	39400262 	ldrb	w2, [x19]
   88bbc:	52800040 	mov	w0, #0x2                   	// #2
   88bc0:	52800004 	mov	w4, #0x0                   	// #0
   88bc4:	528001e5 	mov	w5, #0xf                   	// #15
   88bc8:	32190042 	orr	w2, w2, #0x80
   88bcc:	39000262 	strb	w2, [x19]
   88bd0:	14000002 	b	88bd8 <qrcodegen_makeEci+0x198>
   88bd4:	3864ca62 	ldrb	w2, [x19, w4, sxtw]
   88bd8:	4b0000a1 	sub	w1, w5, w0
   88bdc:	2a2003e3 	mvn	w3, w0
   88be0:	12000863 	and	w3, w3, #0x7
   88be4:	11000400 	add	w0, w0, #0x1
   88be8:	1ac12681 	lsr	w1, w20, w1
   88bec:	12000021 	and	w1, w1, #0x1
   88bf0:	7100401f 	cmp	w0, #0x10
   88bf4:	1ac32021 	lsl	w1, w1, w3
   88bf8:	2a010041 	orr	w1, w2, w1
   88bfc:	3824ca61 	strb	w1, [x19, w4, sxtw]
   88c00:	13037c04 	asr	w4, w0, #3
   88c04:	54fffe81 	b.ne	88bd4 <qrcodegen_makeEci+0x194>  // b.any
   88c08:	d28000e1 	mov	x1, #0x7                   	// #7
   88c0c:	a9004ea1 	stp	x1, x19, [x21]
   88c10:	b90012a0 	str	w0, [x21, #16]
   88c14:	a94153f3 	ldp	x19, x20, [sp, #16]
   88c18:	f94013f5 	ldr	x21, [sp, #32]
   88c1c:	a8c37bfd 	ldp	x29, x30, [sp], #48
   88c20:	d65f03c0 	ret
	...

0000000000088c30 <glyph>:
   88c30:	12001c00 	and	w0, w0, #0xff
   88c34:	5100c001 	sub	w1, w0, #0x30
   88c38:	12001c22 	and	w2, w1, #0xff
   88c3c:	7100245f 	cmp	w2, #0x9
   88c40:	540001c9 	b.ls	88c78 <glyph+0x48>  // b.plast
   88c44:	5100e800 	sub	w0, w0, #0x3a
   88c48:	12001c00 	and	w0, w0, #0xff
   88c4c:	7100801f 	cmp	w0, #0x20
   88c50:	54000089 	b.ls	88c60 <glyph+0x30>  // b.plast
   88c54:	d0000020 	adrp	x0, 8e000 <sc_scope_draw+0x570>
   88c58:	91256000 	add	x0, x0, #0x958
   88c5c:	d65f03c0 	ret
   88c60:	d0000021 	adrp	x1, 8e000 <sc_scope_draw+0x570>
   88c64:	91256021 	add	x1, x1, #0x958
   88c68:	91010021 	add	x1, x1, #0x40
   88c6c:	92401c00 	and	x0, x0, #0xff
   88c70:	f8607820 	ldr	x0, [x1, x0, lsl #3]
   88c74:	d65f03c0 	ret
   88c78:	d0000020 	adrp	x0, 8e000 <sc_scope_draw+0x570>
   88c7c:	91256000 	add	x0, x0, #0x958
   88c80:	91002000 	add	x0, x0, #0x8
   88c84:	528000a2 	mov	w2, #0x5                   	// #5
   88c88:	9b220020 	smaddl	x0, w1, w2, x0
   88c8c:	d65f03c0 	ret

0000000000088c90 <fb_put>:
   88c90:	8b21c000 	add	x0, x0, w1, sxtw
   88c94:	d2800003 	mov	x3, #0x0                   	// #0
   88c98:	0b030024 	add	w4, w1, w3
   88c9c:	71007c9f 	cmp	w4, #0x1f
   88ca0:	54000068 	b.hi	88cac <fb_put+0x1c>  // b.pmore
   88ca4:	38636844 	ldrb	w4, [x2, x3]
   88ca8:	38236804 	strb	w4, [x0, x3]
   88cac:	91000463 	add	x3, x3, #0x1
   88cb0:	f100147f 	cmp	x3, #0x5
   88cb4:	54ffff21 	b.ne	88c98 <fb_put+0x8>  // b.any
   88cb8:	d65f03c0 	ret
   88cbc:	00000000 	udf	#0

0000000000088cc0 <kr_irqctrl_init>:
   88cc0:	d2800800 	mov	x0, #0x40                  	// #64
   88cc4:	f2a80000 	movk	x0, #0x4000, lsl #16
   88cc8:	52800101 	mov	w1, #0x8                   	// #8
   88ccc:	b9000001 	str	w1, [x0]
   88cd0:	d65f03c0 	ret
   88cd4:	d503201f 	nop
   88cd8:	d503201f 	nop
   88cdc:	d503201f 	nop

0000000000088ce0 <kr_irq_claim>:
   88ce0:	d2800c00 	mov	x0, #0x60                  	// #96
   88ce4:	f2a80000 	movk	x0, #0x4000, lsl #16
   88ce8:	b9400000 	ldr	w0, [x0]
   88cec:	d65f03c0 	ret

0000000000088cf0 <kr_irq_eoi>:
   88cf0:	d65f03c0 	ret
	...

0000000000088d00 <servo_init>:
   88d00:	a9be7bfd 	stp	x29, x30, [sp, #-32]!
   88d04:	52800081 	mov	w1, #0x4                   	// #4
   88d08:	52800180 	mov	w0, #0xc                   	// #12
   88d0c:	910003fd 	mov	x29, sp
   88d10:	a90153f3 	stp	x19, x20, [sp, #16]
   88d14:	97ffef9b 	bl	84b80 <gpio_set_function>
   88d18:	d2980001 	mov	x1, #0xc000                	// #49152
   88d1c:	f2a7e401 	movk	x1, #0x3f20, lsl #16
   88d20:	d2821414 	mov	x20, #0x10a0                	// #4256
   88d24:	f2a7e214 	movk	x20, #0x3f10, lsl #16
   88d28:	52800140 	mov	w0, #0xa                   	// #10
   88d2c:	b900003f 	str	wzr, [x1]
   88d30:	97ffef70 	bl	84af0 <delay_us>
   88d34:	b9400280 	ldr	w0, [x20]
   88d38:	529ffde2 	mov	w2, #0xffef                	// #65519
   88d3c:	72b4bfe2 	movk	w2, #0xa5ff, lsl #16
   88d40:	52ab4001 	mov	w1, #0x5a000000            	// #1509949440
   88d44:	0a020000 	and	w0, w0, w2
   88d48:	2a010000 	orr	w0, w0, w1
   88d4c:	b9000280 	str	w0, [x20]
   88d50:	b9400280 	ldr	w0, [x20]
   88d54:	36380140 	tbz	w0, #7, 88d7c <servo_init+0x7c>
   88d58:	5290d3f3 	mov	w19, #0x869f                	// #34463
   88d5c:	72a00033 	movk	w19, #0x1, lsl #16
   88d60:	14000003 	b	88d6c <servo_init+0x6c>
   88d64:	71000673 	subs	w19, w19, #0x1
   88d68:	540000a0 	b.eq	88d7c <servo_init+0x7c>  // b.none
   88d6c:	52800020 	mov	w0, #0x1                   	// #1
   88d70:	97ffef60 	bl	84af0 <delay_us>
   88d74:	b9400280 	ldr	w0, [x20]
   88d78:	373fff60 	tbnz	w0, #7, 88d64 <servo_init+0x64>
   88d7c:	d2821481 	mov	x1, #0x10a4                	// #4260
   88d80:	f2a7e201 	movk	x1, #0x3f10, lsl #16
   88d84:	d2821414 	mov	x20, #0x10a0                	// #4256
   88d88:	f2a7e214 	movk	x20, #0x3f10, lsl #16
   88d8c:	52866662 	mov	w2, #0x3333                	// #13107
   88d90:	72ab4022 	movk	w2, #0x5a01, lsl #16
   88d94:	b9000022 	str	w2, [x1]
   88d98:	52800220 	mov	w0, #0x11                  	// #17
   88d9c:	72ab4000 	movk	w0, #0x5a00, lsl #16
   88da0:	b9000280 	str	w0, [x20]
   88da4:	b9400280 	ldr	w0, [x20]
   88da8:	37380140 	tbnz	w0, #7, 88dd0 <servo_init+0xd0>
   88dac:	5290d3f3 	mov	w19, #0x869f                	// #34463
   88db0:	72a00033 	movk	w19, #0x1, lsl #16
   88db4:	14000003 	b	88dc0 <servo_init+0xc0>
   88db8:	71000673 	subs	w19, w19, #0x1
   88dbc:	540000a0 	b.eq	88dd0 <servo_init+0xd0>  // b.none
   88dc0:	52800020 	mov	w0, #0x1                   	// #1
   88dc4:	97ffef4b 	bl	84af0 <delay_us>
   88dc8:	b9400280 	ldr	w0, [x20]
   88dcc:	363fff60 	tbz	w0, #7, 88db8 <servo_init+0xb8>
   88dd0:	52800140 	mov	w0, #0xa                   	// #10
   88dd4:	97ffef47 	bl	84af0 <delay_us>
   88dd8:	d2980201 	mov	x1, #0xc010                	// #49168
   88ddc:	f2a7e401 	movk	x1, #0x3f20, lsl #16
   88de0:	5289c403 	mov	w3, #0x4e20                	// #20000
   88de4:	d2980282 	mov	x2, #0xc014                	// #49172
   88de8:	f2a7e402 	movk	x2, #0x3f20, lsl #16
   88dec:	d2980000 	mov	x0, #0xc000                	// #49152
   88df0:	f2a7e400 	movk	x0, #0x3f20, lsl #16
   88df4:	a94153f3 	ldp	x19, x20, [sp, #16]
   88df8:	b9000023 	str	w3, [x1]
   88dfc:	52801021 	mov	w1, #0x81                  	// #129
   88e00:	f0000023 	adrp	x3, 8f000 <g_msg+0x18>
   88e04:	b9418863 	ldr	w3, [x3, #392]
   88e08:	b9000043 	str	w3, [x2]
   88e0c:	b9000001 	str	w1, [x0]
   88e10:	a8c27bfd 	ldp	x29, x30, [sp], #32
   88e14:	d65f03c0 	ret
   88e18:	d503201f 	nop
   88e1c:	d503201f 	nop

0000000000088e20 <servo_set_us>:
   88e20:	52813883 	mov	w3, #0x9c4                 	// #2500
   88e24:	6b03001f 	cmp	w0, w3
   88e28:	1a83d000 	csel	w0, w0, w3, le
   88e2c:	f0000022 	adrp	x2, 8f000 <g_msg+0x18>
   88e30:	52803e83 	mov	w3, #0x1f4                 	// #500
   88e34:	d2980281 	mov	x1, #0xc014                	// #49172
   88e38:	f2a7e401 	movk	x1, #0x3f20, lsl #16
   88e3c:	6b03001f 	cmp	w0, w3
   88e40:	1a83a000 	csel	w0, w0, w3, ge  // ge = tcont
   88e44:	b9018840 	str	w0, [x2, #392]
   88e48:	b9000020 	str	w0, [x1]
   88e4c:	d65f03c0 	ret

0000000000088e50 <servo_set_angle>:
   88e50:	52801681 	mov	w1, #0xb4                  	// #180
   88e54:	6b01001f 	cmp	w0, w1
   88e58:	1a81d000 	csel	w0, w0, w1, le
   88e5c:	52807d04 	mov	w4, #0x3e8                 	// #1000
   88e60:	7100001f 	cmp	w0, #0x0
   88e64:	528d82e3 	mov	w3, #0x6c17                	// #27671
   88e68:	72a2d823 	movk	w3, #0x16c1, lsl #16
   88e6c:	1a9fa000 	csel	w0, w0, wzr, ge  // ge = tcont
   88e70:	f0000022 	adrp	x2, 8f000 <g_msg+0x18>
   88e74:	d2980281 	mov	x1, #0xc014                	// #49172
   88e78:	f2a7e401 	movk	x1, #0x3f20, lsl #16
   88e7c:	1b047c00 	mul	w0, w0, w4
   88e80:	53027c00 	lsr	w0, w0, #2
   88e84:	9ba37c00 	umull	x0, w0, w3
   88e88:	d362fc00 	lsr	x0, x0, #34
   88e8c:	0b040000 	add	w0, w0, w4
   88e90:	b9018840 	str	w0, [x2, #392]
   88e94:	b9000020 	str	w0, [x1]
   88e98:	d65f03c0 	ret
   88e9c:	d503201f 	nop

0000000000088ea0 <servo_get_angle>:
   88ea0:	f0000020 	adrp	x0, 8f000 <g_msg+0x18>
   88ea4:	b9418801 	ldr	w1, [x0, #392]
   88ea8:	52801682 	mov	w2, #0xb4                  	// #180
   88eac:	5289ba60 	mov	w0, #0x4dd3                	// #19923
   88eb0:	72a20c40 	movk	w0, #0x1062, lsl #16
   88eb4:	510fa021 	sub	w1, w1, #0x3e8
   88eb8:	1b027c21 	mul	w1, w1, w2
   88ebc:	9b207c20 	smull	x0, w1, w0
   88ec0:	9366fc00 	asr	x0, x0, #38
   88ec4:	4b817c00 	sub	w0, w0, w1, asr #31
   88ec8:	d65f03c0 	ret
   88ecc:	00000000 	udf	#0

0000000000088ed0 <stepper_init>:
   88ed0:	a9bd7bfd 	stp	x29, x30, [sp, #-48]!
   88ed4:	52800021 	mov	w1, #0x1                   	// #1
   88ed8:	910003fd 	mov	x29, sp
   88edc:	a90153f3 	stp	x19, x20, [sp, #16]
   88ee0:	528000b4 	mov	w20, #0x5                   	// #5
   88ee4:	d0000033 	adrp	x19, 8e000 <sc_scope_draw+0x570>
   88ee8:	913c2273 	add	x19, x19, #0xf08
   88eec:	2a1403e0 	mov	w0, w20
   88ef0:	a9025bf5 	stp	x21, x22, [sp, #32]
   88ef4:	97ffef23 	bl	84b80 <gpio_set_function>
   88ef8:	52800035 	mov	w21, #0x1                   	// #1
   88efc:	91001276 	add	x22, x19, #0x4
   88f00:	1ad422a0 	lsl	w0, w21, w20
   88f04:	91000673 	add	x19, x19, #0x1
   88f08:	97ffef4e 	bl	84c40 <gpio_clear>
   88f0c:	eb1302df 	cmp	x22, x19
   88f10:	54000140 	b.eq	88f38 <stepper_init+0x68>  // b.none
   88f14:	39400274 	ldrb	w20, [x19]
   88f18:	52800021 	mov	w1, #0x1                   	// #1
   88f1c:	91000673 	add	x19, x19, #0x1
   88f20:	2a1403e0 	mov	w0, w20
   88f24:	97ffef17 	bl	84b80 <gpio_set_function>
   88f28:	1ad422a0 	lsl	w0, w21, w20
   88f2c:	97ffef45 	bl	84c40 <gpio_clear>
   88f30:	eb1302df 	cmp	x22, x19
   88f34:	54ffff01 	b.ne	88f14 <stepper_init+0x44>  // b.any
   88f38:	a94153f3 	ldp	x19, x20, [sp, #16]
   88f3c:	a9425bf5 	ldp	x21, x22, [sp, #32]
   88f40:	a8c37bfd 	ldp	x29, x30, [sp], #48
   88f44:	d65f03c0 	ret
   88f48:	d503201f 	nop
   88f4c:	d503201f 	nop

0000000000088f50 <stepper_phase>:
   88f50:	d0000024 	adrp	x4, 8e000 <sc_scope_draw+0x570>
   88f54:	913c2084 	add	x4, x4, #0xf08
   88f58:	12000803 	and	w3, w0, #0x7
   88f5c:	91002085 	add	x5, x4, #0x8
   88f60:	a9be7bfd 	stp	x29, x30, [sp, #-32]!
   88f64:	d2800001 	mov	x1, #0x0                   	// #0
   88f68:	528000a2 	mov	w2, #0x5                   	// #5
   88f6c:	910003fd 	mov	x29, sp
   88f70:	3863c8a5 	ldrb	w5, [x5, w3, sxtw]
   88f74:	52800026 	mov	w6, #0x1                   	// #1
   88f78:	f9000bf3 	str	x19, [sp, #16]
   88f7c:	52800000 	mov	w0, #0x0                   	// #0
   88f80:	52800013 	mov	w19, #0x0                   	// #0
   88f84:	1ac220c2 	lsl	w2, w6, w2
   88f88:	1ac124a3 	lsr	w3, w5, w1
   88f8c:	36000123 	tbz	w3, #0, 88fb0 <stepper_phase+0x60>
   88f90:	91000421 	add	x1, x1, #0x1
   88f94:	2a020273 	orr	w19, w19, w2
   88f98:	f100103f 	cmp	x1, #0x4
   88f9c:	54000120 	b.eq	88fc0 <stepper_phase+0x70>  // b.none
   88fa0:	38616882 	ldrb	w2, [x4, x1]
   88fa4:	1ac124a3 	lsr	w3, w5, w1
   88fa8:	1ac220c2 	lsl	w2, w6, w2
   88fac:	3707ff23 	tbnz	w3, #0, 88f90 <stepper_phase+0x40>
   88fb0:	91000421 	add	x1, x1, #0x1
   88fb4:	2a020000 	orr	w0, w0, w2
   88fb8:	f100103f 	cmp	x1, #0x4
   88fbc:	54ffff21 	b.ne	88fa0 <stepper_phase+0x50>  // b.any
   88fc0:	97ffef20 	bl	84c40 <gpio_clear>
   88fc4:	2a1303e0 	mov	w0, w19
   88fc8:	f9400bf3 	ldr	x19, [sp, #16]
   88fcc:	a8c27bfd 	ldp	x29, x30, [sp], #32
   88fd0:	17ffef18 	b	84c30 <gpio_set>
   88fd4:	d503201f 	nop
   88fd8:	d503201f 	nop
   88fdc:	d503201f 	nop

0000000000088fe0 <stepper_release>:
   88fe0:	a9bf7bfd 	stp	x29, x30, [sp, #-16]!
   88fe4:	52800400 	mov	w0, #0x20                  	// #32
   88fe8:	910003fd 	mov	x29, sp
   88fec:	97ffef15 	bl	84c40 <gpio_clear>
   88ff0:	52800800 	mov	w0, #0x40                  	// #64
   88ff4:	97ffef13 	bl	84c40 <gpio_clear>
   88ff8:	52a00020 	mov	w0, #0x10000               	// #65536
   88ffc:	97ffef11 	bl	84c40 <gpio_clear>
   89000:	a8c17bfd 	ldp	x29, x30, [sp], #16
   89004:	52a08000 	mov	w0, #0x4000000             	// #67108864
   89008:	17ffef0e 	b	84c40 <gpio_clear>
   8900c:	00000000 	udf	#0

0000000000089010 <memset>:
   89010:	8b020004 	add	x4, x0, x2
   89014:	12001c21 	and	w1, w1, #0xff
   89018:	aa0003e3 	mov	x3, x0
   8901c:	b4000082 	cbz	x2, 8902c <memset+0x1c>
   89020:	38001461 	strb	w1, [x3], #1
   89024:	eb04007f 	cmp	x3, x4
   89028:	54ffffc1 	b.ne	89020 <memset+0x10>  // b.any
   8902c:	d65f03c0 	ret

0000000000089030 <memmove>:
   89030:	f100005f 	cmp	x2, #0x0
   89034:	fa411004 	ccmp	x0, x1, #0x4, ne  // ne = any
   89038:	54000160 	b.eq	89064 <memmove+0x34>  // b.none
   8903c:	eb01001f 	cmp	x0, x1
   89040:	d1000443 	sub	x3, x2, #0x1
   89044:	54000122 	b.cs	89068 <memmove+0x38>  // b.hs, b.nlast
   89048:	d2800003 	mov	x3, #0x0                   	// #0
   8904c:	d503201f 	nop
   89050:	38636824 	ldrb	w4, [x1, x3]
   89054:	38236804 	strb	w4, [x0, x3]
   89058:	91000463 	add	x3, x3, #0x1
   8905c:	eb03005f 	cmp	x2, x3
   89060:	54ffff81 	b.ne	89050 <memmove+0x20>  // b.any
   89064:	d65f03c0 	ret
   89068:	38636822 	ldrb	w2, [x1, x3]
   8906c:	38236802 	strb	w2, [x0, x3]
   89070:	d1000463 	sub	x3, x3, #0x1
   89074:	b100047f 	cmn	x3, #0x1
   89078:	54ffff60 	b.eq	89064 <memmove+0x34>  // b.none
   8907c:	38636822 	ldrb	w2, [x1, x3]
   89080:	38236802 	strb	w2, [x0, x3]
   89084:	d1000463 	sub	x3, x3, #0x1
   89088:	b100047f 	cmn	x3, #0x1
   8908c:	54fffee1 	b.ne	89068 <memmove+0x38>  // b.any
   89090:	17fffff5 	b	89064 <memmove+0x34>
   89094:	d503201f 	nop
   89098:	d503201f 	nop
   8909c:	d503201f 	nop

00000000000890a0 <abs>:
   890a0:	7100001f 	cmp	w0, #0x0
   890a4:	5a80a400 	cneg	w0, w0, lt  // lt = tstop
   890a8:	d65f03c0 	ret
   890ac:	d503201f 	nop

00000000000890b0 <strlen>:
   890b0:	39400001 	ldrb	w1, [x0]
   890b4:	340000e1 	cbz	w1, 890d0 <strlen+0x20>
   890b8:	aa0003e1 	mov	x1, x0
   890bc:	d503201f 	nop
   890c0:	38401c22 	ldrb	w2, [x1, #1]!
   890c4:	35ffffe2 	cbnz	w2, 890c0 <strlen+0x10>
   890c8:	cb000020 	sub	x0, x1, x0
   890cc:	d65f03c0 	ret
   890d0:	d2800000 	mov	x0, #0x0                   	// #0
   890d4:	d65f03c0 	ret
   890d8:	d503201f 	nop
   890dc:	d503201f 	nop

00000000000890e0 <strchr>:
   890e0:	39400002 	ldrb	w2, [x0]
   890e4:	12001c23 	and	w3, w1, #0xff
   890e8:	6b21005f 	cmp	w2, w1, uxtb
   890ec:	540000a0 	b.eq	89100 <strchr+0x20>  // b.none
   890f0:	340000a2 	cbz	w2, 89104 <strchr+0x24>
   890f4:	38401c02 	ldrb	w2, [x0, #1]!
   890f8:	6b03005f 	cmp	w2, w3
   890fc:	54ffffa1 	b.ne	890f0 <strchr+0x10>  // b.any
   89100:	d65f03c0 	ret
   89104:	d2800000 	mov	x0, #0x0                   	// #0
   89108:	d65f03c0 	ret
   8910c:	d503201f 	nop

0000000000089110 <labs>:
   89110:	f100001f 	cmp	x0, #0x0
   89114:	da80a400 	cneg	x0, x0, lt  // lt = tstop
   89118:	d65f03c0 	ret
   8911c:	00000000 	udf	#0

0000000000089120 <pxPortInitialiseStack>:
   89120:	a9be7bfd 	stp	x29, x30, [sp, #-32]!
   89124:	aa0003e3 	mov	x3, x0
   89128:	5282c2c5 	mov	w5, #0x1616                	// #5654
   8912c:	910003fd 	mov	x29, sp
   89130:	33103ca5 	bfi	w5, w5, #16, #16
   89134:	5283232b 	mov	w11, #0x1919                	// #6425
   89138:	f9000bf3 	str	x19, [sp, #16]
   8913c:	33103d6b 	bfi	w11, w11, #16, #16
   89140:	5282626a 	mov	w10, #0x1313                	// #4883
   89144:	52824249 	mov	w9, #0x1212                	// #4626
   89148:	5282a2a8 	mov	w8, #0x1515                	// #5397
   8914c:	52828287 	mov	w7, #0x1414                	// #5140
   89150:	5282e2e6 	mov	w6, #0x1717                	// #5911
   89154:	5284242d 	mov	w13, #0x2121                	// #8481
   89158:	292e1465 	stp	w5, w5, [x3, #-144]
   8915c:	b205c7e5 	mov	x5, #0x1818181818181818    	// #1736164148113840152
   89160:	d1402064 	sub	x4, x3, #0x8, lsl #12
   89164:	33103d4a 	bfi	w10, w10, #16, #16
   89168:	33103d29 	bfi	w9, w9, #16, #16
   8916c:	33103d08 	bfi	w8, w8, #16, #16
   89170:	33103ce7 	bfi	w7, w7, #16, #16
   89174:	33103cc6 	bfi	w6, w6, #16, #16
   89178:	33103dad 	bfi	w13, w13, #16, #16
   8917c:	5280a0ac 	mov	w12, #0x505                 	// #1285
   89180:	52812120 	mov	w0, #0x909                 	// #2313
   89184:	f8160065 	stur	x5, [x3, #-160]
   89188:	b203c3e5 	mov	x5, #0x2020202020202020    	// #2314885530818453536
   8918c:	292d2c6b 	stp	w11, w11, [x3, #-152]
   89190:	b204c3eb 	mov	x11, #0x1010101010101010    	// #1157442765409226768
   89194:	33103d8c 	bfi	w12, w12, #16, #16
   89198:	33103c00 	bfi	w0, w0, #16, #16
   8919c:	b206c3f2 	mov	x18, #0x404040404040404     	// #289360691352306692
   891a0:	b200cbfe 	mov	x30, #0x707070707070707     	// #506381209866536711
   891a4:	b205c3ee 	mov	x14, #0x808080808080808     	// #578721382704613384
   891a8:	b207c7f3 	mov	x19, #0x606060606060606     	// #434041037028460038
   891ac:	f8150065 	stur	x5, [x3, #-176]
   891b0:	52846465 	mov	w5, #0x2323                	// #8995
   891b4:	292b346d 	stp	w13, w13, [x3, #-168]
   891b8:	b200e3ed 	mov	x13, #0x1111111111111111    	// #1229782938247303441
   891bc:	292f1866 	stp	w6, w6, [x3, #-136]
   891c0:	5284a4a6 	mov	w6, #0x2525                	// #9509
   891c4:	29301c67 	stp	w7, w7, [x3, #-128]
   891c8:	52848487 	mov	w7, #0x2424                	// #9252
   891cc:	29312068 	stp	w8, w8, [x3, #-120]
   891d0:	5284e4e8 	mov	w8, #0x2727                	// #10023
   891d4:	29322469 	stp	w9, w9, [x3, #-112]
   891d8:	5284c4c9 	mov	w9, #0x2626                	// #9766
   891dc:	2933286a 	stp	w10, w10, [x3, #-104]
   891e0:	5285252a 	mov	w10, #0x2929                	// #10537
   891e4:	a93a346b 	stp	x11, x13, [x3, #-96]
   891e8:	5285050b 	mov	w11, #0x2828                	// #10280
   891ec:	f81b006e 	stur	x14, [x3, #-80]
   891f0:	33103cc6 	bfi	w6, w6, #16, #16
   891f4:	29370060 	stp	w0, w0, [x3, #-72]
   891f8:	33103ce7 	bfi	w7, w7, #16, #16
   891fc:	a93c7873 	stp	x19, x30, [x3, #-64]
   89200:	33103d08 	bfi	w8, w8, #16, #16
   89204:	33103d29 	bfi	w9, w9, #16, #16
   89208:	f81d0072 	stur	x18, [x3, #-48]
   8920c:	33103d4a 	bfi	w10, w10, #16, #16
   89210:	293b306c 	stp	w12, w12, [x3, #-40]
   89214:	33103d6b 	bfi	w11, w11, #16, #16
   89218:	33103ca5 	bfi	w5, w5, #16, #16
   8921c:	b200c3ef 	mov	x15, #0x101010101010101     	// #72340172838076673
   89220:	b200c7f0 	mov	x16, #0x303030303030303     	// #217020518514230019
   89224:	b207c3f1 	mov	x17, #0x202020202020202     	// #144680345676153346
   89228:	b203e3ee 	mov	x14, #0x2222222222222222    	// #2459565876494606882
   8922c:	a93e4071 	stp	x17, x16, [x3, #-32]
   89230:	d280008d 	mov	x13, #0x4                   	// #4
   89234:	a9307c7f 	stp	xzr, xzr, [x3, #-256]
   89238:	d1048060 	sub	x0, x3, #0x120
   8923c:	29222c6b 	stp	w11, w11, [x3, #-240]
   89240:	2923286a 	stp	w10, w10, [x3, #-232]
   89244:	29242469 	stp	w9, w9, [x3, #-224]
   89248:	29252068 	stp	w8, w8, [x3, #-216]
   8924c:	29261c67 	stp	w7, w7, [x3, #-208]
   89250:	29271866 	stp	w6, w6, [x3, #-200]
   89254:	f814006e 	stur	x14, [x3, #-192]
   89258:	a93f3c62 	stp	x2, x15, [x3, #-16]
   8925c:	f9400bf3 	ldr	x19, [sp, #16]
   89260:	29291465 	stp	w5, w5, [x3, #-184]
   89264:	f93f709f 	str	xzr, [x4, #32480]
   89268:	f93f749f 	str	xzr, [x4, #32488]
   8926c:	f93f7881 	str	x1, [x4, #32496]
   89270:	f93f7c8d 	str	x13, [x4, #32504]
   89274:	a8c27bfd 	ldp	x29, x30, [sp], #32
   89278:	d65f03c0 	ret
   8927c:	d503201f 	nop

0000000000089280 <xPortStartScheduler>:
   89280:	d5384240 	mrs	x0, currentel
   89284:	121e0400 	and	w0, w0, #0xc
   89288:	7100101f 	cmp	w0, #0x4
   8928c:	54000060 	b.eq	89298 <xPortStartScheduler+0x18>  // b.none
   89290:	d2800000 	mov	x0, #0x0                   	// #0
   89294:	d65f03c0 	ret
   89298:	a9bf7bfd 	stp	x29, x30, [sp, #-16]!
   8929c:	910003fd 	mov	x29, sp
   892a0:	d50342df 	msr	daifset, #0x2
   892a4:	d5033f9f 	dsb	sy
   892a8:	d5033fdf 	isb
   892ac:	97ffe155 	bl	81800 <vConfigureTickInterrupt>
   892b0:	940000d4 	bl	89600 <vPortRestoreTaskContext>
   892b4:	d2800000 	mov	x0, #0x0                   	// #0
   892b8:	a8c17bfd 	ldp	x29, x30, [sp], #16
   892bc:	d65f03c0 	ret

00000000000892c0 <vPortEndScheduler>:
   892c0:	d65f03c0 	ret
   892c4:	d503201f 	nop
   892c8:	d503201f 	nop
   892cc:	d503201f 	nop

00000000000892d0 <vPortEnterCritical>:
   892d0:	d50342df 	msr	daifset, #0x2
   892d4:	d5033f9f 	dsb	sy
   892d8:	d5033fdf 	isb
   892dc:	d0000020 	adrp	x0, 8f000 <g_msg+0x18>
   892e0:	f940c801 	ldr	x1, [x0, #400]
   892e4:	91000421 	add	x1, x1, #0x1
   892e8:	f900c801 	str	x1, [x0, #400]
   892ec:	f940c800 	ldr	x0, [x0, #400]
   892f0:	d65f03c0 	ret
   892f4:	d503201f 	nop
   892f8:	d503201f 	nop
   892fc:	d503201f 	nop

0000000000089300 <vPortExitCritical>:
   89300:	d0000020 	adrp	x0, 8f000 <g_msg+0x18>
   89304:	f940c801 	ldr	x1, [x0, #400]
   89308:	b4000121 	cbz	x1, 8932c <vPortExitCritical+0x2c>
   8930c:	f940c801 	ldr	x1, [x0, #400]
   89310:	d1000421 	sub	x1, x1, #0x1
   89314:	f900c801 	str	x1, [x0, #400]
   89318:	f940c800 	ldr	x0, [x0, #400]
   8931c:	b5000080 	cbnz	x0, 8932c <vPortExitCritical+0x2c>
   89320:	d50342ff 	msr	daifclr, #0x2
   89324:	d5033f9f 	dsb	sy
   89328:	d5033fdf 	isb
   8932c:	d65f03c0 	ret

0000000000089330 <FreeRTOS_Tick_Handler>:
   89330:	a9bf7bfd 	stp	x29, x30, [sp, #-16]!
   89334:	910003fd 	mov	x29, sp
   89338:	97ffe14a 	bl	81860 <vClearTickInterrupt>
   8933c:	d50342ff 	msr	daifclr, #0x2
   89340:	d5033f9f 	dsb	sy
   89344:	d5033fdf 	isb
   89348:	9400036a 	bl	8a0f0 <xTaskIncrementTick>
   8934c:	b4000080 	cbz	x0, 8935c <FreeRTOS_Tick_Handler+0x2c>
   89350:	d0000020 	adrp	x0, 8f000 <g_msg+0x18>
   89354:	d2800021 	mov	x1, #0x1                   	// #1
   89358:	f9066c01 	str	x1, [x0, #3288]
   8935c:	a8c17bfd 	ldp	x29, x30, [sp], #16
   89360:	d65f03c0 	ret
   89364:	d503201f 	nop
   89368:	d503201f 	nop
   8936c:	d503201f 	nop

0000000000089370 <memcpy>:
   89370:	b40000e2 	cbz	x2, 8938c <memcpy+0x1c>
   89374:	d2800003 	mov	x3, #0x0                   	// #0
   89378:	38636824 	ldrb	w4, [x1, x3]
   8937c:	38236804 	strb	w4, [x0, x3]
   89380:	91000463 	add	x3, x3, #0x1
   89384:	eb02007f 	cmp	x3, x2
   89388:	54ffff81 	b.ne	89378 <memcpy+0x8>  // b.any
   8938c:	d65f03c0 	ret
	...

0000000000089400 <FreeRTOS_SWI_Handler>:
   89400:	d50040bf 	msr	spsel, #0x0
   89404:	a9bf07e0 	stp	x0, x1, [sp, #-16]!
   89408:	a9bf0fe2 	stp	x2, x3, [sp, #-16]!
   8940c:	a9bf17e4 	stp	x4, x5, [sp, #-16]!
   89410:	a9bf1fe6 	stp	x6, x7, [sp, #-16]!
   89414:	a9bf27e8 	stp	x8, x9, [sp, #-16]!
   89418:	a9bf2fea 	stp	x10, x11, [sp, #-16]!
   8941c:	a9bf37ec 	stp	x12, x13, [sp, #-16]!
   89420:	a9bf3fee 	stp	x14, x15, [sp, #-16]!
   89424:	a9bf47f0 	stp	x16, x17, [sp, #-16]!
   89428:	a9bf4ff2 	stp	x18, x19, [sp, #-16]!
   8942c:	a9bf57f4 	stp	x20, x21, [sp, #-16]!
   89430:	a9bf5ff6 	stp	x22, x23, [sp, #-16]!
   89434:	a9bf67f8 	stp	x24, x25, [sp, #-16]!
   89438:	a9bf6ffa 	stp	x26, x27, [sp, #-16]!
   8943c:	a9bf77fc 	stp	x28, x29, [sp, #-16]!
   89440:	a9bf7ffe 	stp	x30, xzr, [sp, #-16]!
   89444:	d5384003 	mrs	x3, spsr_el1
   89448:	d5384022 	mrs	x2, elr_el1
   8944c:	a9bf0fe2 	stp	x2, x3, [sp, #-16]!
   89450:	58002dc0 	ldr	x0, 89a08 <ullCriticalNestingConst>
   89454:	f9400003 	ldr	x3, [x0]
   89458:	58002dc0 	ldr	x0, 89a10 <ullPortTaskHasFPUContextConst>
   8945c:	f9400002 	ldr	x2, [x0]
   89460:	f100005f 	cmp	x2, #0x0
   89464:	54000220 	b.eq	894a8 <FreeRTOS_SWI_Handler+0xa8>  // b.none
   89468:	adbf07e0 	stp	q0, q1, [sp, #-32]!
   8946c:	adbf0fe2 	stp	q2, q3, [sp, #-32]!
   89470:	adbf17e4 	stp	q4, q5, [sp, #-32]!
   89474:	adbf1fe6 	stp	q6, q7, [sp, #-32]!
   89478:	adbf27e8 	stp	q8, q9, [sp, #-32]!
   8947c:	adbf2fea 	stp	q10, q11, [sp, #-32]!
   89480:	adbf37ec 	stp	q12, q13, [sp, #-32]!
   89484:	adbf3fee 	stp	q14, q15, [sp, #-32]!
   89488:	adbf47f0 	stp	q16, q17, [sp, #-32]!
   8948c:	adbf4ff2 	stp	q18, q19, [sp, #-32]!
   89490:	adbf57f4 	stp	q20, q21, [sp, #-32]!
   89494:	adbf5ff6 	stp	q22, q23, [sp, #-32]!
   89498:	adbf67f8 	stp	q24, q25, [sp, #-32]!
   8949c:	adbf6ffa 	stp	q26, q27, [sp, #-32]!
   894a0:	adbf77fc 	stp	q28, q29, [sp, #-32]!
   894a4:	adbf7ffe 	stp	q30, q31, [sp, #-32]!
   894a8:	a9bf0fe2 	stp	x2, x3, [sp, #-16]!
   894ac:	58002aa0 	ldr	x0, 89a00 <pxCurrentTCBConst>
   894b0:	f9400001 	ldr	x1, [x0]
   894b4:	910003e0 	mov	x0, sp
   894b8:	f9000020 	str	x0, [x1]
   894bc:	d50041bf 	msr	spsel, #0x1
   894c0:	d5385200 	mrs	x0, esr_el1
   894c4:	d35afc01 	lsr	x1, x0, #26
   894c8:	f100543f 	cmp	x1, #0x15
   894cc:	54000661 	b.ne	89598 <FreeRTOS_Abort>  // b.any
   894d0:	9400040c 	bl	8a500 <vTaskSwitchContext>
   894d4:	d50040bf 	msr	spsel, #0x0
   894d8:	58002940 	ldr	x0, 89a00 <pxCurrentTCBConst>
   894dc:	f9400001 	ldr	x1, [x0]
   894e0:	f9400020 	ldr	x0, [x1]
   894e4:	9100001f 	mov	sp, x0
   894e8:	a8c10fe2 	ldp	x2, x3, [sp], #16
   894ec:	580028e0 	ldr	x0, 89a08 <ullCriticalNestingConst>
   894f0:	f9000003 	str	x3, [x0]
   894f4:	580028e0 	ldr	x0, 89a10 <ullPortTaskHasFPUContextConst>
   894f8:	f9000002 	str	x2, [x0]
   894fc:	f100005f 	cmp	x2, #0x0
   89500:	54000220 	b.eq	89544 <FreeRTOS_SWI_Handler+0x144>  // b.none
   89504:	acc17ffe 	ldp	q30, q31, [sp], #32
   89508:	acc177fc 	ldp	q28, q29, [sp], #32
   8950c:	acc16ffa 	ldp	q26, q27, [sp], #32
   89510:	acc167f8 	ldp	q24, q25, [sp], #32
   89514:	acc15ff6 	ldp	q22, q23, [sp], #32
   89518:	acc157f4 	ldp	q20, q21, [sp], #32
   8951c:	acc14ff2 	ldp	q18, q19, [sp], #32
   89520:	acc147f0 	ldp	q16, q17, [sp], #32
   89524:	acc13fee 	ldp	q14, q15, [sp], #32
   89528:	acc137ec 	ldp	q12, q13, [sp], #32
   8952c:	acc12fea 	ldp	q10, q11, [sp], #32
   89530:	acc127e8 	ldp	q8, q9, [sp], #32
   89534:	acc11fe6 	ldp	q6, q7, [sp], #32
   89538:	acc117e4 	ldp	q4, q5, [sp], #32
   8953c:	acc10fe2 	ldp	q2, q3, [sp], #32
   89540:	acc107e0 	ldp	q0, q1, [sp], #32
   89544:	a8c10fe2 	ldp	x2, x3, [sp], #16
   89548:	d5184003 	msr	spsr_el1, x3
   8954c:	d5184022 	msr	elr_el1, x2
   89550:	a8c17ffe 	ldp	x30, xzr, [sp], #16
   89554:	a8c177fc 	ldp	x28, x29, [sp], #16
   89558:	a8c16ffa 	ldp	x26, x27, [sp], #16
   8955c:	a8c167f8 	ldp	x24, x25, [sp], #16
   89560:	a8c15ff6 	ldp	x22, x23, [sp], #16
   89564:	a8c157f4 	ldp	x20, x21, [sp], #16
   89568:	a8c14ff2 	ldp	x18, x19, [sp], #16
   8956c:	a8c147f0 	ldp	x16, x17, [sp], #16
   89570:	a8c13fee 	ldp	x14, x15, [sp], #16
   89574:	a8c137ec 	ldp	x12, x13, [sp], #16
   89578:	a8c12fea 	ldp	x10, x11, [sp], #16
   8957c:	a8c127e8 	ldp	x8, x9, [sp], #16
   89580:	a8c11fe6 	ldp	x6, x7, [sp], #16
   89584:	a8c117e4 	ldp	x4, x5, [sp], #16
   89588:	a8c10fe2 	ldp	x2, x3, [sp], #16
   8958c:	a8c107e0 	ldp	x0, x1, [sp], #16
   89590:	d50041bf 	msr	spsel, #0x1
   89594:	d69f03e0 	eret

0000000000089598 <FreeRTOS_Abort>:
   89598:	14000000 	b	89598 <FreeRTOS_Abort>
   8959c:	d503201f 	nop
   895a0:	d503201f 	nop
   895a4:	d503201f 	nop
   895a8:	d503201f 	nop
   895ac:	d503201f 	nop
   895b0:	d503201f 	nop
   895b4:	d503201f 	nop
   895b8:	d503201f 	nop
   895bc:	d503201f 	nop
   895c0:	d503201f 	nop
   895c4:	d503201f 	nop
   895c8:	d503201f 	nop
   895cc:	d503201f 	nop
   895d0:	d503201f 	nop
   895d4:	d503201f 	nop
   895d8:	d503201f 	nop
   895dc:	d503201f 	nop
   895e0:	d503201f 	nop
   895e4:	d503201f 	nop
   895e8:	d503201f 	nop
   895ec:	d503201f 	nop
   895f0:	d503201f 	nop
   895f4:	d503201f 	nop
   895f8:	d503201f 	nop
   895fc:	d503201f 	nop

0000000000089600 <vPortRestoreTaskContext>:
   89600:	580021c1 	ldr	x1, 89a38 <ulCORE0_INT_SRCConst+0x8>
   89604:	d518c001 	msr	vbar_el1, x1
   89608:	d5033f9f 	dsb	sy
   8960c:	d5033fdf 	isb
   89610:	d50040bf 	msr	spsel, #0x0
   89614:	58001f60 	ldr	x0, 89a00 <pxCurrentTCBConst>
   89618:	f9400001 	ldr	x1, [x0]
   8961c:	f9400020 	ldr	x0, [x1]
   89620:	9100001f 	mov	sp, x0
   89624:	a8c10fe2 	ldp	x2, x3, [sp], #16
   89628:	58001f00 	ldr	x0, 89a08 <ullCriticalNestingConst>
   8962c:	f9000003 	str	x3, [x0]
   89630:	58001f00 	ldr	x0, 89a10 <ullPortTaskHasFPUContextConst>
   89634:	f9000002 	str	x2, [x0]
   89638:	f100005f 	cmp	x2, #0x0
   8963c:	54000220 	b.eq	89680 <vPortRestoreTaskContext+0x80>  // b.none
   89640:	acc17ffe 	ldp	q30, q31, [sp], #32
   89644:	acc177fc 	ldp	q28, q29, [sp], #32
   89648:	acc16ffa 	ldp	q26, q27, [sp], #32
   8964c:	acc167f8 	ldp	q24, q25, [sp], #32
   89650:	acc15ff6 	ldp	q22, q23, [sp], #32
   89654:	acc157f4 	ldp	q20, q21, [sp], #32
   89658:	acc14ff2 	ldp	q18, q19, [sp], #32
   8965c:	acc147f0 	ldp	q16, q17, [sp], #32
   89660:	acc13fee 	ldp	q14, q15, [sp], #32
   89664:	acc137ec 	ldp	q12, q13, [sp], #32
   89668:	acc12fea 	ldp	q10, q11, [sp], #32
   8966c:	acc127e8 	ldp	q8, q9, [sp], #32
   89670:	acc11fe6 	ldp	q6, q7, [sp], #32
   89674:	acc117e4 	ldp	q4, q5, [sp], #32
   89678:	acc10fe2 	ldp	q2, q3, [sp], #32
   8967c:	acc107e0 	ldp	q0, q1, [sp], #32
   89680:	a8c10fe2 	ldp	x2, x3, [sp], #16
   89684:	d5184003 	msr	spsr_el1, x3
   89688:	d5184022 	msr	elr_el1, x2
   8968c:	a8c17ffe 	ldp	x30, xzr, [sp], #16
   89690:	a8c177fc 	ldp	x28, x29, [sp], #16
   89694:	a8c16ffa 	ldp	x26, x27, [sp], #16
   89698:	a8c167f8 	ldp	x24, x25, [sp], #16
   8969c:	a8c15ff6 	ldp	x22, x23, [sp], #16
   896a0:	a8c157f4 	ldp	x20, x21, [sp], #16
   896a4:	a8c14ff2 	ldp	x18, x19, [sp], #16
   896a8:	a8c147f0 	ldp	x16, x17, [sp], #16
   896ac:	a8c13fee 	ldp	x14, x15, [sp], #16
   896b0:	a8c137ec 	ldp	x12, x13, [sp], #16
   896b4:	a8c12fea 	ldp	x10, x11, [sp], #16
   896b8:	a8c127e8 	ldp	x8, x9, [sp], #16
   896bc:	a8c11fe6 	ldp	x6, x7, [sp], #16
   896c0:	a8c117e4 	ldp	x4, x5, [sp], #16
   896c4:	a8c10fe2 	ldp	x2, x3, [sp], #16
   896c8:	a8c107e0 	ldp	x0, x1, [sp], #16
   896cc:	d50041bf 	msr	spsel, #0x1
   896d0:	d69f03e0 	eret
   896d4:	d503201f 	nop
   896d8:	d503201f 	nop
   896dc:	d503201f 	nop
   896e0:	d503201f 	nop
   896e4:	d503201f 	nop
   896e8:	d503201f 	nop
   896ec:	d503201f 	nop
   896f0:	d503201f 	nop
   896f4:	d503201f 	nop
   896f8:	d503201f 	nop
   896fc:	d503201f 	nop

0000000000089700 <FreeRTOS_IRQ_Handler>:
   89700:	a9bf07e0 	stp	x0, x1, [sp, #-16]!
   89704:	a9bf0fe2 	stp	x2, x3, [sp, #-16]!
   89708:	a9bf17e4 	stp	x4, x5, [sp, #-16]!
   8970c:	a9bf1fe6 	stp	x6, x7, [sp, #-16]!
   89710:	a9bf27e8 	stp	x8, x9, [sp, #-16]!
   89714:	a9bf2fea 	stp	x10, x11, [sp, #-16]!
   89718:	a9bf37ec 	stp	x12, x13, [sp, #-16]!
   8971c:	a9bf3fee 	stp	x14, x15, [sp, #-16]!
   89720:	a9bf47f0 	stp	x16, x17, [sp, #-16]!
   89724:	a9bf4ff2 	stp	x18, x19, [sp, #-16]!
   89728:	a9bf7bfd 	stp	x29, x30, [sp, #-16]!
   8972c:	d5384003 	mrs	x3, spsr_el1
   89730:	d5384022 	mrs	x2, elr_el1
   89734:	a9bf0fe2 	stp	x2, x3, [sp, #-16]!
   89738:	58001745 	ldr	x5, 89a20 <ullPortInterruptNestingConst>
   8973c:	f94000a1 	ldr	x1, [x5]
   89740:	91000426 	add	x6, x1, #0x1
   89744:	f90000a6 	str	x6, [x5]
   89748:	a9bf17e1 	stp	x1, x5, [sp, #-16]!
   8974c:	97fffd65 	bl	88ce0 <kr_irq_claim>
   89750:	2a0003f3 	mov	w19, w0
   89754:	97ffe04b 	bl	81880 <vApplicationIRQHandler>
   89758:	2a1303e0 	mov	w0, w19
   8975c:	97fffd65 	bl	88cf0 <kr_irq_eoi>
   89760:	d50342df 	msr	daifset, #0x2
   89764:	d5033f9f 	dsb	sy
   89768:	d5033fdf 	isb
   8976c:	a8c117e1 	ldp	x1, x5, [sp], #16
   89770:	f90000a1 	str	x1, [x5]
   89774:	f100003f 	cmp	x1, #0x0
   89778:	54000f21 	b.ne	8995c <Exit_IRQ_No_Context_Switch>  // b.any
   8977c:	58001560 	ldr	x0, 89a28 <ullPortYieldRequiredConst>
   89780:	f9400001 	ldr	x1, [x0]
   89784:	f100003f 	cmp	x1, #0x0
   89788:	54000ea0 	b.eq	8995c <Exit_IRQ_No_Context_Switch>  // b.none
   8978c:	d2800002 	mov	x2, #0x0                   	// #0
   89790:	f9000002 	str	x2, [x0]
   89794:	a8c117e4 	ldp	x4, x5, [sp], #16
   89798:	d5184005 	msr	spsr_el1, x5
   8979c:	d5184024 	msr	elr_el1, x4
   897a0:	d5033f9f 	dsb	sy
   897a4:	d5033fdf 	isb
   897a8:	a8c17bfd 	ldp	x29, x30, [sp], #16
   897ac:	a8c14ff2 	ldp	x18, x19, [sp], #16
   897b0:	a8c147f0 	ldp	x16, x17, [sp], #16
   897b4:	a8c13fee 	ldp	x14, x15, [sp], #16
   897b8:	a8c137ec 	ldp	x12, x13, [sp], #16
   897bc:	a8c12fea 	ldp	x10, x11, [sp], #16
   897c0:	a8c127e8 	ldp	x8, x9, [sp], #16
   897c4:	a8c11fe6 	ldp	x6, x7, [sp], #16
   897c8:	a8c117e4 	ldp	x4, x5, [sp], #16
   897cc:	a8c10fe2 	ldp	x2, x3, [sp], #16
   897d0:	a8c107e0 	ldp	x0, x1, [sp], #16
   897d4:	d50040bf 	msr	spsel, #0x0
   897d8:	a9bf07e0 	stp	x0, x1, [sp, #-16]!
   897dc:	a9bf0fe2 	stp	x2, x3, [sp, #-16]!
   897e0:	a9bf17e4 	stp	x4, x5, [sp, #-16]!
   897e4:	a9bf1fe6 	stp	x6, x7, [sp, #-16]!
   897e8:	a9bf27e8 	stp	x8, x9, [sp, #-16]!
   897ec:	a9bf2fea 	stp	x10, x11, [sp, #-16]!
   897f0:	a9bf37ec 	stp	x12, x13, [sp, #-16]!
   897f4:	a9bf3fee 	stp	x14, x15, [sp, #-16]!
   897f8:	a9bf47f0 	stp	x16, x17, [sp, #-16]!
   897fc:	a9bf4ff2 	stp	x18, x19, [sp, #-16]!
   89800:	a9bf57f4 	stp	x20, x21, [sp, #-16]!
   89804:	a9bf5ff6 	stp	x22, x23, [sp, #-16]!
   89808:	a9bf67f8 	stp	x24, x25, [sp, #-16]!
   8980c:	a9bf6ffa 	stp	x26, x27, [sp, #-16]!
   89810:	a9bf77fc 	stp	x28, x29, [sp, #-16]!
   89814:	a9bf7ffe 	stp	x30, xzr, [sp, #-16]!
   89818:	d5384003 	mrs	x3, spsr_el1
   8981c:	d5384022 	mrs	x2, elr_el1
   89820:	a9bf0fe2 	stp	x2, x3, [sp, #-16]!
   89824:	58000f20 	ldr	x0, 89a08 <ullCriticalNestingConst>
   89828:	f9400003 	ldr	x3, [x0]
   8982c:	58000f20 	ldr	x0, 89a10 <ullPortTaskHasFPUContextConst>
   89830:	f9400002 	ldr	x2, [x0]
   89834:	f100005f 	cmp	x2, #0x0
   89838:	54000220 	b.eq	8987c <FreeRTOS_IRQ_Handler+0x17c>  // b.none
   8983c:	adbf07e0 	stp	q0, q1, [sp, #-32]!
   89840:	adbf0fe2 	stp	q2, q3, [sp, #-32]!
   89844:	adbf17e4 	stp	q4, q5, [sp, #-32]!
   89848:	adbf1fe6 	stp	q6, q7, [sp, #-32]!
   8984c:	adbf27e8 	stp	q8, q9, [sp, #-32]!
   89850:	adbf2fea 	stp	q10, q11, [sp, #-32]!
   89854:	adbf37ec 	stp	q12, q13, [sp, #-32]!
   89858:	adbf3fee 	stp	q14, q15, [sp, #-32]!
   8985c:	adbf47f0 	stp	q16, q17, [sp, #-32]!
   89860:	adbf4ff2 	stp	q18, q19, [sp, #-32]!
   89864:	adbf57f4 	stp	q20, q21, [sp, #-32]!
   89868:	adbf5ff6 	stp	q22, q23, [sp, #-32]!
   8986c:	adbf67f8 	stp	q24, q25, [sp, #-32]!
   89870:	adbf6ffa 	stp	q26, q27, [sp, #-32]!
   89874:	adbf77fc 	stp	q28, q29, [sp, #-32]!
   89878:	adbf7ffe 	stp	q30, q31, [sp, #-32]!
   8987c:	a9bf0fe2 	stp	x2, x3, [sp, #-16]!
   89880:	58000c00 	ldr	x0, 89a00 <pxCurrentTCBConst>
   89884:	f9400001 	ldr	x1, [x0]
   89888:	910003e0 	mov	x0, sp
   8988c:	f9000020 	str	x0, [x1]
   89890:	d50041bf 	msr	spsel, #0x1
   89894:	9400031b 	bl	8a500 <vTaskSwitchContext>
   89898:	d50040bf 	msr	spsel, #0x0
   8989c:	58000b20 	ldr	x0, 89a00 <pxCurrentTCBConst>
   898a0:	f9400001 	ldr	x1, [x0]
   898a4:	f9400020 	ldr	x0, [x1]
   898a8:	9100001f 	mov	sp, x0
   898ac:	a8c10fe2 	ldp	x2, x3, [sp], #16
   898b0:	58000ac0 	ldr	x0, 89a08 <ullCriticalNestingConst>
   898b4:	f9000003 	str	x3, [x0]
   898b8:	58000ac0 	ldr	x0, 89a10 <ullPortTaskHasFPUContextConst>
   898bc:	f9000002 	str	x2, [x0]
   898c0:	f100005f 	cmp	x2, #0x0
   898c4:	54000220 	b.eq	89908 <FreeRTOS_IRQ_Handler+0x208>  // b.none
   898c8:	acc17ffe 	ldp	q30, q31, [sp], #32
   898cc:	acc177fc 	ldp	q28, q29, [sp], #32
   898d0:	acc16ffa 	ldp	q26, q27, [sp], #32
   898d4:	acc167f8 	ldp	q24, q25, [sp], #32
   898d8:	acc15ff6 	ldp	q22, q23, [sp], #32
   898dc:	acc157f4 	ldp	q20, q21, [sp], #32
   898e0:	acc14ff2 	ldp	q18, q19, [sp], #32
   898e4:	acc147f0 	ldp	q16, q17, [sp], #32
   898e8:	acc13fee 	ldp	q14, q15, [sp], #32
   898ec:	acc137ec 	ldp	q12, q13, [sp], #32
   898f0:	acc12fea 	ldp	q10, q11, [sp], #32
   898f4:	acc127e8 	ldp	q8, q9, [sp], #32
   898f8:	acc11fe6 	ldp	q6, q7, [sp], #32
   898fc:	acc117e4 	ldp	q4, q5, [sp], #32
   89900:	acc10fe2 	ldp	q2, q3, [sp], #32
   89904:	acc107e0 	ldp	q0, q1, [sp], #32
   89908:	a8c10fe2 	ldp	x2, x3, [sp], #16
   8990c:	d5184003 	msr	spsr_el1, x3
   89910:	d5184022 	msr	elr_el1, x2
   89914:	a8c17ffe 	ldp	x30, xzr, [sp], #16
   89918:	a8c177fc 	ldp	x28, x29, [sp], #16
   8991c:	a8c16ffa 	ldp	x26, x27, [sp], #16
   89920:	a8c167f8 	ldp	x24, x25, [sp], #16
   89924:	a8c15ff6 	ldp	x22, x23, [sp], #16
   89928:	a8c157f4 	ldp	x20, x21, [sp], #16
   8992c:	a8c14ff2 	ldp	x18, x19, [sp], #16
   89930:	a8c147f0 	ldp	x16, x17, [sp], #16
   89934:	a8c13fee 	ldp	x14, x15, [sp], #16
   89938:	a8c137ec 	ldp	x12, x13, [sp], #16
   8993c:	a8c12fea 	ldp	x10, x11, [sp], #16
   89940:	a8c127e8 	ldp	x8, x9, [sp], #16
   89944:	a8c11fe6 	ldp	x6, x7, [sp], #16
   89948:	a8c117e4 	ldp	x4, x5, [sp], #16
   8994c:	a8c10fe2 	ldp	x2, x3, [sp], #16
   89950:	a8c107e0 	ldp	x0, x1, [sp], #16
   89954:	d50041bf 	msr	spsel, #0x1
   89958:	d69f03e0 	eret

000000000008995c <Exit_IRQ_No_Context_Switch>:
   8995c:	a8c117e4 	ldp	x4, x5, [sp], #16
   89960:	d5184005 	msr	spsr_el1, x5
   89964:	d5184024 	msr	elr_el1, x4
   89968:	d5033f9f 	dsb	sy
   8996c:	d5033fdf 	isb
   89970:	a8c17bfd 	ldp	x29, x30, [sp], #16
   89974:	a8c14ff2 	ldp	x18, x19, [sp], #16
   89978:	a8c147f0 	ldp	x16, x17, [sp], #16
   8997c:	a8c13fee 	ldp	x14, x15, [sp], #16
   89980:	a8c137ec 	ldp	x12, x13, [sp], #16
   89984:	a8c12fea 	ldp	x10, x11, [sp], #16
   89988:	a8c127e8 	ldp	x8, x9, [sp], #16
   8998c:	a8c11fe6 	ldp	x6, x7, [sp], #16
   89990:	a8c117e4 	ldp	x4, x5, [sp], #16
   89994:	a8c10fe2 	ldp	x2, x3, [sp], #16
   89998:	a8c107e0 	ldp	x0, x1, [sp], #16
   8999c:	d69f03e0 	eret
   899a0:	d503201f 	nop
   899a4:	d503201f 	nop
   899a8:	d503201f 	nop
   899ac:	d503201f 	nop
   899b0:	d503201f 	nop
   899b4:	d503201f 	nop
   899b8:	d503201f 	nop
   899bc:	d503201f 	nop
   899c0:	d503201f 	nop
   899c4:	d503201f 	nop
   899c8:	d503201f 	nop
   899cc:	d503201f 	nop
   899d0:	d503201f 	nop
   899d4:	d503201f 	nop
   899d8:	d503201f 	nop
   899dc:	d503201f 	nop
   899e0:	d503201f 	nop
   899e4:	d503201f 	nop
   899e8:	d503201f 	nop
   899ec:	d503201f 	nop
   899f0:	d503201f 	nop
   899f4:	d503201f 	nop
   899f8:	d503201f 	nop
   899fc:	d503201f 	nop

0000000000089a00 <pxCurrentTCBConst>:
   89a00:	0008fcf8 	.inst	0x0008fcf8 ; undefined
   89a04:	00000000 	udf	#0

0000000000089a08 <ullCriticalNestingConst>:
   89a08:	0008f190 	.inst	0x0008f190 ; undefined
   89a0c:	00000000 	udf	#0

0000000000089a10 <ullPortTaskHasFPUContextConst>:
   89a10:	0008fce8 	.inst	0x0008fce8 ; undefined
   89a14:	00000000 	udf	#0

0000000000089a18 <vApplicationIRQHandlerConst>:
   89a18:	00081880 	.inst	0x00081880 ; undefined
   89a1c:	00000000 	udf	#0

0000000000089a20 <ullPortInterruptNestingConst>:
   89a20:	0008fce0 	.inst	0x0008fce0 ; undefined
   89a24:	00000000 	udf	#0

0000000000089a28 <ullPortYieldRequiredConst>:
   89a28:	0008fcd8 	.inst	0x0008fcd8 ; undefined
   89a2c:	00000000 	udf	#0

0000000000089a30 <ulCORE0_INT_SRCConst>:
   89a30:	0008ef18 	.inst	0x0008ef18 ; undefined
   89a34:	00000000 	udf	#0
   89a38:	00081000 	.inst	0x00081000 ; undefined
   89a3c:	00000000 	udf	#0

0000000000089a40 <vListInitialise>:
   89a40:	91004001 	add	x1, x0, #0x10
   89a44:	92800002 	mov	x2, #0xffffffffffffffff    	// #-1
   89a48:	f900001f 	str	xzr, [x0]
   89a4c:	a9008801 	stp	x1, x2, [x0, #8]
   89a50:	a9018401 	stp	x1, x1, [x0, #24]
   89a54:	d65f03c0 	ret
   89a58:	d503201f 	nop
   89a5c:	d503201f 	nop

0000000000089a60 <vListInitialiseItem>:
   89a60:	f900101f 	str	xzr, [x0, #32]
   89a64:	d65f03c0 	ret
   89a68:	d503201f 	nop
   89a6c:	d503201f 	nop

0000000000089a70 <vListInsertEnd>:
   89a70:	f9400402 	ldr	x2, [x0, #8]
   89a74:	f9400003 	ldr	x3, [x0]
   89a78:	f9400844 	ldr	x4, [x2, #16]
   89a7c:	a9009022 	stp	x2, x4, [x1, #8]
   89a80:	91000463 	add	x3, x3, #0x1
   89a84:	f9400844 	ldr	x4, [x2, #16]
   89a88:	f9000481 	str	x1, [x4, #8]
   89a8c:	f9000841 	str	x1, [x2, #16]
   89a90:	f9001020 	str	x0, [x1, #32]
   89a94:	f9000003 	str	x3, [x0]
   89a98:	d65f03c0 	ret
   89a9c:	d503201f 	nop

0000000000089aa0 <vListInsert>:
   89aa0:	f9400025 	ldr	x5, [x1]
   89aa4:	91004002 	add	x2, x0, #0x10
   89aa8:	b10004bf 	cmn	x5, #0x1
   89aac:	540001e0 	b.eq	89ae8 <vListInsert+0x48>  // b.none
   89ab0:	aa0203e4 	mov	x4, x2
   89ab4:	f9400442 	ldr	x2, [x2, #8]
   89ab8:	f9400043 	ldr	x3, [x2]
   89abc:	eb05007f 	cmp	x3, x5
   89ac0:	54ffff89 	b.ls	89ab0 <vListInsert+0x10>  // b.plast
   89ac4:	f9000422 	str	x2, [x1, #8]
   89ac8:	f9000841 	str	x1, [x2, #16]
   89acc:	f9400002 	ldr	x2, [x0]
   89ad0:	f9000824 	str	x4, [x1, #16]
   89ad4:	f9000481 	str	x1, [x4, #8]
   89ad8:	f9001020 	str	x0, [x1, #32]
   89adc:	91000441 	add	x1, x2, #0x1
   89ae0:	f9000001 	str	x1, [x0]
   89ae4:	d65f03c0 	ret
   89ae8:	f9401004 	ldr	x4, [x0, #32]
   89aec:	f9400482 	ldr	x2, [x4, #8]
   89af0:	17fffff5 	b	89ac4 <vListInsert+0x24>
   89af4:	d503201f 	nop
   89af8:	d503201f 	nop
   89afc:	d503201f 	nop

0000000000089b00 <uxListRemove>:
   89b00:	a9408803 	ldp	x3, x2, [x0, #8]
   89b04:	f9401001 	ldr	x1, [x0, #32]
   89b08:	f9400424 	ldr	x4, [x1, #8]
   89b0c:	f9000862 	str	x2, [x3, #16]
   89b10:	f9000443 	str	x3, [x2, #8]
   89b14:	eb00009f 	cmp	x4, x0
   89b18:	540000e0 	b.eq	89b34 <uxListRemove+0x34>  // b.none
   89b1c:	f9400022 	ldr	x2, [x1]
   89b20:	f900101f 	str	xzr, [x0, #32]
   89b24:	d1000440 	sub	x0, x2, #0x1
   89b28:	f9000020 	str	x0, [x1]
   89b2c:	f9400020 	ldr	x0, [x1]
   89b30:	d65f03c0 	ret
   89b34:	f9000422 	str	x2, [x1, #8]
   89b38:	f9400022 	ldr	x2, [x1]
   89b3c:	f900101f 	str	xzr, [x0, #32]
   89b40:	d1000440 	sub	x0, x2, #0x1
   89b44:	f9000020 	str	x0, [x1]
   89b48:	f9400020 	ldr	x0, [x1]
   89b4c:	d65f03c0 	ret

0000000000089b50 <prvAddCurrentTaskToDelayedList.constprop.0>:
   89b50:	a9bd7bfd 	stp	x29, x30, [sp, #-48]!
   89b54:	910003fd 	mov	x29, sp
   89b58:	a90153f3 	stp	x19, x20, [sp, #16]
   89b5c:	d0000021 	adrp	x1, 8f000 <g_msg+0x18>
   89b60:	9133c034 	add	x20, x1, #0xcf0
   89b64:	f9467833 	ldr	x19, [x1, #3312]
   89b68:	f90013f5 	str	x21, [sp, #32]
   89b6c:	aa0003f5 	mov	x21, x0
   89b70:	f9400680 	ldr	x0, [x20, #8]
   89b74:	91002000 	add	x0, x0, #0x8
   89b78:	97ffffe2 	bl	89b00 <uxListRemove>
   89b7c:	f9400680 	ldr	x0, [x20, #8]
   89b80:	ab150273 	adds	x19, x19, x21
   89b84:	f9000413 	str	x19, [x0, #8]
   89b88:	54000103 	b.cc	89ba8 <prvAddCurrentTaskToDelayedList.constprop.0+0x58>  // b.lo, b.ul, b.last
   89b8c:	f9400a80 	ldr	x0, [x20, #16]
   89b90:	f9400681 	ldr	x1, [x20, #8]
   89b94:	a94153f3 	ldp	x19, x20, [sp, #16]
   89b98:	91002021 	add	x1, x1, #0x8
   89b9c:	f94013f5 	ldr	x21, [sp, #32]
   89ba0:	a8c37bfd 	ldp	x29, x30, [sp], #48
   89ba4:	17ffffbf 	b	89aa0 <vListInsert>
   89ba8:	f9400e80 	ldr	x0, [x20, #24]
   89bac:	f9400681 	ldr	x1, [x20, #8]
   89bb0:	91002021 	add	x1, x1, #0x8
   89bb4:	97ffffbb 	bl	89aa0 <vListInsert>
   89bb8:	f9401280 	ldr	x0, [x20, #32]
   89bbc:	eb00027f 	cmp	x19, x0
   89bc0:	54000042 	b.cs	89bc8 <prvAddCurrentTaskToDelayedList.constprop.0+0x78>  // b.hs, b.nlast
   89bc4:	f9001293 	str	x19, [x20, #32]
   89bc8:	a94153f3 	ldp	x19, x20, [sp, #16]
   89bcc:	f94013f5 	ldr	x21, [sp, #32]
   89bd0:	a8c37bfd 	ldp	x29, x30, [sp], #48
   89bd4:	d65f03c0 	ret
   89bd8:	d503201f 	nop
   89bdc:	d503201f 	nop

0000000000089be0 <prvIdleTask>:
   89be0:	a9be7bfd 	stp	x29, x30, [sp, #-32]!
   89be4:	910003fd 	mov	x29, sp
   89be8:	a90153f3 	stp	x19, x20, [sp, #16]
   89bec:	d0000033 	adrp	x19, 8f000 <g_msg+0x18>
   89bf0:	9133c273 	add	x19, x19, #0xcf0
   89bf4:	14000011 	b	89c38 <prvIdleTask+0x58>
   89bf8:	97fffdb6 	bl	892d0 <vPortEnterCritical>
   89bfc:	f9402660 	ldr	x0, [x19, #72]
   89c00:	f9400c14 	ldr	x20, [x0, #24]
   89c04:	91002280 	add	x0, x20, #0x8
   89c08:	97ffffbe 	bl	89b00 <uxListRemove>
   89c0c:	f9402e60 	ldr	x0, [x19, #88]
   89c10:	d1000400 	sub	x0, x0, #0x1
   89c14:	f9002e60 	str	x0, [x19, #88]
   89c18:	f9401660 	ldr	x0, [x19, #40]
   89c1c:	d1000400 	sub	x0, x0, #0x1
   89c20:	f9001660 	str	x0, [x19, #40]
   89c24:	97fffdb7 	bl	89300 <vPortExitCritical>
   89c28:	f9403280 	ldr	x0, [x20, #96]
   89c2c:	94000b49 	bl	8c950 <vPortFree>
   89c30:	aa1403e0 	mov	x0, x20
   89c34:	94000b47 	bl	8c950 <vPortFree>
   89c38:	f9401660 	ldr	x0, [x19, #40]
   89c3c:	b5fffde0 	cbnz	x0, 89bf8 <prvIdleTask+0x18>
   89c40:	f9403260 	ldr	x0, [x19, #96]
   89c44:	f100041f 	cmp	x0, #0x1
   89c48:	54000049 	b.ls	89c50 <prvIdleTask+0x70>  // b.plast
   89c4c:	d4000001 	svc	#0x0
   89c50:	97ffeb04 	bl	84860 <vApplicationIdleHook>
   89c54:	17fffff9 	b	89c38 <prvIdleTask+0x58>
   89c58:	d503201f 	nop
   89c5c:	d503201f 	nop

0000000000089c60 <xTaskCreate>:
   89c60:	a9ba7bfd 	stp	x29, x30, [sp, #-96]!
   89c64:	910003fd 	mov	x29, sp
   89c68:	f9002bfb 	str	x27, [sp, #80]
   89c6c:	d37d3c5b 	ubfiz	x27, x2, #3, #16
   89c70:	a90153f3 	stp	x19, x20, [sp, #16]
   89c74:	aa0103f4 	mov	x20, x1
   89c78:	a9025bf5 	stp	x21, x22, [sp, #32]
   89c7c:	aa0403f6 	mov	x22, x4
   89c80:	a90363f7 	stp	x23, x24, [sp, #48]
   89c84:	aa0003f8 	mov	x24, x0
   89c88:	aa0503f7 	mov	x23, x5
   89c8c:	aa1b03e0 	mov	x0, x27
   89c90:	a9046bf9 	stp	x25, x26, [sp, #64]
   89c94:	aa0303f9 	mov	x25, x3
   89c98:	12003c5a 	and	w26, w2, #0xffff
   89c9c:	94000acd 	bl	8c7d0 <pvPortMalloc>
   89ca0:	b4000ba0 	cbz	x0, 89e14 <xTaskCreate+0x1b4>
   89ca4:	aa0003f5 	mov	x21, x0
   89ca8:	d2801200 	mov	x0, #0x90                  	// #144
   89cac:	94000ac9 	bl	8c7d0 <pvPortMalloc>
   89cb0:	aa0003f3 	mov	x19, x0
   89cb4:	b4000c00 	cbz	x0, 89e34 <xTaskCreate+0x1d4>
   89cb8:	f9003275 	str	x21, [x19, #96]
   89cbc:	aa1b03e2 	mov	x2, x27
   89cc0:	aa1503e0 	mov	x0, x21
   89cc4:	528014a1 	mov	w1, #0xa5                  	// #165
   89cc8:	97fffcd2 	bl	89010 <memset>
   89ccc:	f940327b 	ldr	x27, [x19, #96]
   89cd0:	9101a260 	add	x0, x19, #0x68
   89cd4:	d2800006 	mov	x6, #0x0                   	// #0
   89cd8:	38666a87 	ldrb	w7, [x20, x6]
   89cdc:	38266807 	strb	w7, [x0, x6]
   89ce0:	910004c6 	add	x6, x6, #0x1
   89ce4:	f10040df 	cmp	x6, #0x10
   89ce8:	34000047 	cbz	w7, 89cf0 <xTaskCreate+0x90>
   89cec:	54ffff61 	b.ne	89cd8 <xTaskCreate+0x78>  // b.any
   89cf0:	f1001edf 	cmp	x22, #0x7
   89cf4:	d28000e0 	mov	x0, #0x7                   	// #7
   89cf8:	9a8092d6 	csel	x22, x22, x0, ls  // ls = plast
   89cfc:	f9002e76 	str	x22, [x19, #88]
   89d00:	3901de7f 	strb	wzr, [x19, #119]
   89d04:	91002275 	add	x21, x19, #0x8
   89d08:	a907fe76 	stp	x22, xzr, [x19, #120]
   89d0c:	aa1503e0 	mov	x0, x21
   89d10:	97ffff54 	bl	89a60 <vListInitialiseItem>
   89d14:	9100c260 	add	x0, x19, #0x30
   89d18:	97ffff52 	bl	89a60 <vListInitialiseItem>
   89d1c:	51000740 	sub	w0, w26, #0x1
   89d20:	b9008a7f 	str	wzr, [x19, #136]
   89d24:	d2800101 	mov	x1, #0x8                   	// #8
   89d28:	cb160036 	sub	x22, x1, x22
   89d2c:	f9001273 	str	x19, [x19, #32]
   89d30:	8b000f60 	add	x0, x27, x0, lsl #3
   89d34:	f9001a76 	str	x22, [x19, #48]
   89d38:	927cec00 	and	x0, x0, #0xfffffffffffffff0
   89d3c:	f9002673 	str	x19, [x19, #72]
   89d40:	aa1903e2 	mov	x2, x25
   89d44:	3902327f 	strb	wzr, [x19, #140]
   89d48:	aa1803e1 	mov	x1, x24
   89d4c:	97fffcf5 	bl	89120 <pxPortInitialiseStack>
   89d50:	f9000260 	str	x0, [x19]
   89d54:	b4000057 	cbz	x23, 89d5c <xTaskCreate+0xfc>
   89d58:	f90002f3 	str	x19, [x23]
   89d5c:	d0000034 	adrp	x20, 8f000 <g_msg+0x18>
   89d60:	9133c294 	add	x20, x20, #0xcf0
   89d64:	97fffd5b 	bl	892d0 <vPortEnterCritical>
   89d68:	f9402e80 	ldr	x0, [x20, #88]
   89d6c:	91000400 	add	x0, x0, #0x1
   89d70:	f9002e80 	str	x0, [x20, #88]
   89d74:	f9400680 	ldr	x0, [x20, #8]
   89d78:	b4000660 	cbz	x0, 89e44 <xTaskCreate+0x1e4>
   89d7c:	f9410e81 	ldr	x1, [x20, #536]
   89d80:	f9402e60 	ldr	x0, [x19, #88]
   89d84:	b50000e1 	cbnz	x1, 89da0 <xTaskCreate+0x140>
   89d88:	f9400681 	ldr	x1, [x20, #8]
   89d8c:	f9402c21 	ldr	x1, [x1, #88]
   89d90:	eb01001f 	cmp	x0, x1
   89d94:	54000063 	b.cc	89da0 <xTaskCreate+0x140>  // b.lo, b.ul, b.last
   89d98:	f9000693 	str	x19, [x20, #8]
   89d9c:	d503201f 	nop
   89da0:	f9411281 	ldr	x1, [x20, #544]
   89da4:	f9411682 	ldr	x2, [x20, #552]
   89da8:	91000421 	add	x1, x1, #0x1
   89dac:	f9011281 	str	x1, [x20, #544]
   89db0:	eb00005f 	cmp	x2, x0
   89db4:	54000042 	b.cs	89dbc <xTaskCreate+0x15c>  // b.hs, b.nlast
   89db8:	f9011680 	str	x0, [x20, #552]
   89dbc:	91018282 	add	x2, x20, #0x60
   89dc0:	d2800503 	mov	x3, #0x28                  	// #40
   89dc4:	aa1503e1 	mov	x1, x21
   89dc8:	9b030800 	madd	x0, x0, x3, x2
   89dcc:	97ffff29 	bl	89a70 <vListInsertEnd>
   89dd0:	97fffd4c 	bl	89300 <vPortExitCritical>
   89dd4:	f9410e81 	ldr	x1, [x20, #536]
   89dd8:	d2800020 	mov	x0, #0x1                   	// #1
   89ddc:	b40000e1 	cbz	x1, 89df8 <xTaskCreate+0x198>
   89de0:	f9400682 	ldr	x2, [x20, #8]
   89de4:	f9402e61 	ldr	x1, [x19, #88]
   89de8:	f9402c42 	ldr	x2, [x2, #88]
   89dec:	eb01005f 	cmp	x2, x1
   89df0:	54000042 	b.cs	89df8 <xTaskCreate+0x198>  // b.hs, b.nlast
   89df4:	d4000001 	svc	#0x0
   89df8:	a94153f3 	ldp	x19, x20, [sp, #16]
   89dfc:	a9425bf5 	ldp	x21, x22, [sp, #32]
   89e00:	a94363f7 	ldp	x23, x24, [sp, #48]
   89e04:	a9446bf9 	ldp	x25, x26, [sp, #64]
   89e08:	f9402bfb 	ldr	x27, [sp, #80]
   89e0c:	a8c67bfd 	ldp	x29, x30, [sp], #96
   89e10:	d65f03c0 	ret
   89e14:	92800000 	mov	x0, #0xffffffffffffffff    	// #-1
   89e18:	a94153f3 	ldp	x19, x20, [sp, #16]
   89e1c:	a9425bf5 	ldp	x21, x22, [sp, #32]
   89e20:	a94363f7 	ldp	x23, x24, [sp, #48]
   89e24:	a9446bf9 	ldp	x25, x26, [sp, #64]
   89e28:	f9402bfb 	ldr	x27, [sp, #80]
   89e2c:	a8c67bfd 	ldp	x29, x30, [sp], #96
   89e30:	d65f03c0 	ret
   89e34:	aa1503e0 	mov	x0, x21
   89e38:	94000ac6 	bl	8c950 <vPortFree>
   89e3c:	92800000 	mov	x0, #0xffffffffffffffff    	// #-1
   89e40:	17ffffee 	b	89df8 <xTaskCreate+0x198>
   89e44:	f9000693 	str	x19, [x20, #8]
   89e48:	f9402e80 	ldr	x0, [x20, #88]
   89e4c:	f100041f 	cmp	x0, #0x1
   89e50:	54000060 	b.eq	89e5c <xTaskCreate+0x1fc>  // b.none
   89e54:	f9402e60 	ldr	x0, [x19, #88]
   89e58:	17ffffd2 	b	89da0 <xTaskCreate+0x140>
   89e5c:	91018296 	add	x22, x20, #0x60
   89e60:	91068297 	add	x23, x20, #0x1a0
   89e64:	d503201f 	nop
   89e68:	aa1603e0 	mov	x0, x22
   89e6c:	9100a2d6 	add	x22, x22, #0x28
   89e70:	97fffef4 	bl	89a40 <vListInitialise>
   89e74:	eb1702df 	cmp	x22, x23
   89e78:	54ffff81 	b.ne	89e68 <xTaskCreate+0x208>  // b.any
   89e7c:	91068297 	add	x23, x20, #0x1a0
   89e80:	91072296 	add	x22, x20, #0x1c8
   89e84:	aa1703e0 	mov	x0, x23
   89e88:	97fffeee 	bl	89a40 <vListInitialise>
   89e8c:	aa1603e0 	mov	x0, x22
   89e90:	97fffeec 	bl	89a40 <vListInitialise>
   89e94:	9107c280 	add	x0, x20, #0x1f0
   89e98:	97fffeea 	bl	89a40 <vListInitialise>
   89e9c:	9100c280 	add	x0, x20, #0x30
   89ea0:	97fffee8 	bl	89a40 <vListInitialise>
   89ea4:	f9000e97 	str	x23, [x20, #24]
   89ea8:	f9000a96 	str	x22, [x20, #16]
   89eac:	f9402e60 	ldr	x0, [x19, #88]
   89eb0:	17ffffbc 	b	89da0 <xTaskCreate+0x140>
   89eb4:	d503201f 	nop
   89eb8:	d503201f 	nop
   89ebc:	d503201f 	nop

0000000000089ec0 <vTaskDelete>:
   89ec0:	a9bd7bfd 	stp	x29, x30, [sp, #-48]!
   89ec4:	910003fd 	mov	x29, sp
   89ec8:	a90153f3 	stp	x19, x20, [sp, #16]
   89ecc:	aa0003f4 	mov	x20, x0
   89ed0:	d0000033 	adrp	x19, 8f000 <g_msg+0x18>
   89ed4:	9133c273 	add	x19, x19, #0xcf0
   89ed8:	f90013f5 	str	x21, [sp, #32]
   89edc:	97fffcfd 	bl	892d0 <vPortEnterCritical>
   89ee0:	b4000634 	cbz	x20, 89fa4 <vTaskDelete+0xe4>
   89ee4:	91002295 	add	x21, x20, #0x8
   89ee8:	aa1503e0 	mov	x0, x21
   89eec:	97ffff05 	bl	89b00 <uxListRemove>
   89ef0:	f9402a80 	ldr	x0, [x20, #80]
   89ef4:	b4000060 	cbz	x0, 89f00 <vTaskDelete+0x40>
   89ef8:	9100c280 	add	x0, x20, #0x30
   89efc:	97ffff01 	bl	89b00 <uxListRemove>
   89f00:	f9411260 	ldr	x0, [x19, #544]
   89f04:	f9400661 	ldr	x1, [x19, #8]
   89f08:	91000400 	add	x0, x0, #0x1
   89f0c:	f9011260 	str	x0, [x19, #544]
   89f10:	eb14003f 	cmp	x1, x20
   89f14:	540003a0 	b.eq	89f88 <vTaskDelete+0xc8>  // b.none
   89f18:	f9402e61 	ldr	x1, [x19, #88]
   89f1c:	f9403280 	ldr	x0, [x20, #96]
   89f20:	d1000421 	sub	x1, x1, #0x1
   89f24:	f9002e61 	str	x1, [x19, #88]
   89f28:	94000a8a 	bl	8c950 <vPortFree>
   89f2c:	aa1403e0 	mov	x0, x20
   89f30:	94000a88 	bl	8c950 <vPortFree>
   89f34:	f9400e60 	ldr	x0, [x19, #24]
   89f38:	f9400000 	ldr	x0, [x0]
   89f3c:	b4000200 	cbz	x0, 89f7c <vTaskDelete+0xbc>
   89f40:	f9400e60 	ldr	x0, [x19, #24]
   89f44:	f9400c00 	ldr	x0, [x0, #24]
   89f48:	f9400c00 	ldr	x0, [x0, #24]
   89f4c:	f9400400 	ldr	x0, [x0, #8]
   89f50:	f9001260 	str	x0, [x19, #32]
   89f54:	97fffceb 	bl	89300 <vPortExitCritical>
   89f58:	f9410e60 	ldr	x0, [x19, #536]
   89f5c:	b4000080 	cbz	x0, 89f6c <vTaskDelete+0xac>
   89f60:	f9400660 	ldr	x0, [x19, #8]
   89f64:	eb14001f 	cmp	x0, x20
   89f68:	54000220 	b.eq	89fac <vTaskDelete+0xec>  // b.none
   89f6c:	a94153f3 	ldp	x19, x20, [sp, #16]
   89f70:	f94013f5 	ldr	x21, [sp, #32]
   89f74:	a8c37bfd 	ldp	x29, x30, [sp], #48
   89f78:	d65f03c0 	ret
   89f7c:	92800000 	mov	x0, #0xffffffffffffffff    	// #-1
   89f80:	f9001260 	str	x0, [x19, #32]
   89f84:	17fffff4 	b	89f54 <vTaskDelete+0x94>
   89f88:	9100c260 	add	x0, x19, #0x30
   89f8c:	aa1503e1 	mov	x1, x21
   89f90:	97fffeb8 	bl	89a70 <vListInsertEnd>
   89f94:	f9401660 	ldr	x0, [x19, #40]
   89f98:	91000400 	add	x0, x0, #0x1
   89f9c:	f9001660 	str	x0, [x19, #40]
   89fa0:	17ffffed 	b	89f54 <vTaskDelete+0x94>
   89fa4:	f9400674 	ldr	x20, [x19, #8]
   89fa8:	17ffffcf 	b	89ee4 <vTaskDelete+0x24>
   89fac:	d4000001 	svc	#0x0
   89fb0:	a94153f3 	ldp	x19, x20, [sp, #16]
   89fb4:	f94013f5 	ldr	x21, [sp, #32]
   89fb8:	a8c37bfd 	ldp	x29, x30, [sp], #48
   89fbc:	d65f03c0 	ret

0000000000089fc0 <vTaskStartScheduler>:
   89fc0:	a9be7bfd 	stp	x29, x30, [sp, #-32]!
   89fc4:	b0000021 	adrp	x1, 8e000 <sc_scope_draw+0x570>
   89fc8:	90000000 	adrp	x0, 89000 <stepper_release+0x20>
   89fcc:	910003fd 	mov	x29, sp
   89fd0:	a90153f3 	stp	x19, x20, [sp, #16]
   89fd4:	d0000034 	adrp	x20, 8f000 <g_msg+0x18>
   89fd8:	9133c293 	add	x19, x20, #0xcf0
   89fdc:	9108c265 	add	x5, x19, #0x230
   89fe0:	913c8021 	add	x1, x1, #0xf20
   89fe4:	912f8000 	add	x0, x0, #0xbe0
   89fe8:	d2800004 	mov	x4, #0x0                   	// #0
   89fec:	d2800003 	mov	x3, #0x0                   	// #0
   89ff0:	52801902 	mov	w2, #0xc8                  	// #200
   89ff4:	97ffff1b 	bl	89c60 <xTaskCreate>
   89ff8:	f100041f 	cmp	x0, #0x1
   89ffc:	54000080 	b.eq	8a00c <vTaskStartScheduler+0x4c>  // b.none
   8a000:	a94153f3 	ldp	x19, x20, [sp, #16]
   8a004:	a8c27bfd 	ldp	x29, x30, [sp], #32
   8a008:	d65f03c0 	ret
   8a00c:	94000855 	bl	8c160 <xTimerCreateTimerTask>
   8a010:	f100041f 	cmp	x0, #0x1
   8a014:	54ffff61 	b.ne	8a000 <vTaskStartScheduler+0x40>  // b.any
   8a018:	d50342df 	msr	daifset, #0x2
   8a01c:	d5033f9f 	dsb	sy
   8a020:	d5033fdf 	isb
   8a024:	92800001 	mov	x1, #0xffffffffffffffff    	// #-1
   8a028:	f9001261 	str	x1, [x19, #32]
   8a02c:	f9010e60 	str	x0, [x19, #536]
   8a030:	f9067a9f 	str	xzr, [x20, #3312]
   8a034:	a94153f3 	ldp	x19, x20, [sp, #16]
   8a038:	a8c27bfd 	ldp	x29, x30, [sp], #32
   8a03c:	17fffc91 	b	89280 <xPortStartScheduler>

000000000008a040 <vTaskEndScheduler>:
   8a040:	d50342df 	msr	daifset, #0x2
   8a044:	d5033f9f 	dsb	sy
   8a048:	d5033fdf 	isb
   8a04c:	b0000020 	adrp	x0, 8f000 <g_msg+0x18>
   8a050:	9133c000 	add	x0, x0, #0xcf0
   8a054:	f9010c1f 	str	xzr, [x0, #536]
   8a058:	17fffc9a 	b	892c0 <vPortEndScheduler>
   8a05c:	d503201f 	nop

000000000008a060 <vTaskSuspendAll>:
   8a060:	b0000020 	adrp	x0, 8f000 <g_msg+0x18>
   8a064:	9133c000 	add	x0, x0, #0xcf0
   8a068:	f9411c01 	ldr	x1, [x0, #568]
   8a06c:	91000421 	add	x1, x1, #0x1
   8a070:	f9011c01 	str	x1, [x0, #568]
   8a074:	d65f03c0 	ret
   8a078:	d503201f 	nop
   8a07c:	d503201f 	nop

000000000008a080 <xTaskGetTickCount>:
   8a080:	a9be7bfd 	stp	x29, x30, [sp, #-32]!
   8a084:	910003fd 	mov	x29, sp
   8a088:	f9000bf3 	str	x19, [sp, #16]
   8a08c:	97fffc91 	bl	892d0 <vPortEnterCritical>
   8a090:	b0000020 	adrp	x0, 8f000 <g_msg+0x18>
   8a094:	f9467813 	ldr	x19, [x0, #3312]
   8a098:	97fffc9a 	bl	89300 <vPortExitCritical>
   8a09c:	aa1303e0 	mov	x0, x19
   8a0a0:	f9400bf3 	ldr	x19, [sp, #16]
   8a0a4:	a8c27bfd 	ldp	x29, x30, [sp], #32
   8a0a8:	d65f03c0 	ret
   8a0ac:	d503201f 	nop

000000000008a0b0 <xTaskGetTickCountFromISR>:
   8a0b0:	b0000020 	adrp	x0, 8f000 <g_msg+0x18>
   8a0b4:	f9467800 	ldr	x0, [x0, #3312]
   8a0b8:	d65f03c0 	ret
   8a0bc:	d503201f 	nop

000000000008a0c0 <uxTaskGetNumberOfTasks>:
   8a0c0:	b0000020 	adrp	x0, 8f000 <g_msg+0x18>
   8a0c4:	9133c000 	add	x0, x0, #0xcf0
   8a0c8:	f9402c00 	ldr	x0, [x0, #88]
   8a0cc:	d65f03c0 	ret

000000000008a0d0 <pcTaskGetName>:
   8a0d0:	b4000060 	cbz	x0, 8a0dc <pcTaskGetName+0xc>
   8a0d4:	9101a000 	add	x0, x0, #0x68
   8a0d8:	d65f03c0 	ret
   8a0dc:	b0000020 	adrp	x0, 8f000 <g_msg+0x18>
   8a0e0:	9133c000 	add	x0, x0, #0xcf0
   8a0e4:	f9400400 	ldr	x0, [x0, #8]
   8a0e8:	9101a000 	add	x0, x0, #0x68
   8a0ec:	d65f03c0 	ret

000000000008a0f0 <xTaskIncrementTick>:
   8a0f0:	a9bb7bfd 	stp	x29, x30, [sp, #-80]!
   8a0f4:	910003fd 	mov	x29, sp
   8a0f8:	a90153f3 	stp	x19, x20, [sp, #16]
   8a0fc:	b0000020 	adrp	x0, 8f000 <g_msg+0x18>
   8a100:	9133c013 	add	x19, x0, #0xcf0
   8a104:	a9025bf5 	stp	x21, x22, [sp, #32]
   8a108:	f9411e61 	ldr	x1, [x19, #568]
   8a10c:	b5000ba1 	cbnz	x1, 8a280 <xTaskIncrementTick+0x190>
   8a110:	a90363f7 	stp	x23, x24, [sp, #48]
   8a114:	f9467817 	ldr	x23, [x0, #3312]
   8a118:	910006f7 	add	x23, x23, #0x1
   8a11c:	f9067817 	str	x23, [x0, #3312]
   8a120:	b40008f7 	cbz	x23, 8a23c <xTaskIncrementTick+0x14c>
   8a124:	f9401260 	ldr	x0, [x19, #32]
   8a128:	d2800015 	mov	x21, #0x0                   	// #0
   8a12c:	eb17001f 	cmp	x0, x23
   8a130:	54000508 	b.hi	8a1d0 <xTaskIncrementTick+0xe0>  // b.pmore
   8a134:	f9400e60 	ldr	x0, [x19, #24]
   8a138:	f9400000 	ldr	x0, [x0]
   8a13c:	b4000d00 	cbz	x0, 8a2dc <xTaskIncrementTick+0x1ec>
   8a140:	d2800038 	mov	x24, #0x1                   	// #1
   8a144:	a9046bf9 	stp	x25, x26, [sp, #64]
   8a148:	9101827a 	add	x26, x19, #0x60
   8a14c:	d2800519 	mov	x25, #0x28                  	// #40
   8a150:	14000016 	b	8a1a8 <xTaskIncrementTick+0xb8>
   8a154:	97fffe6b 	bl	89b00 <uxListRemove>
   8a158:	f9402a81 	ldr	x1, [x20, #80]
   8a15c:	9100c280 	add	x0, x20, #0x30
   8a160:	b4000041 	cbz	x1, 8a168 <xTaskIncrementTick+0x78>
   8a164:	97fffe67 	bl	89b00 <uxListRemove>
   8a168:	f9411662 	ldr	x2, [x19, #552]
   8a16c:	aa1603e1 	mov	x1, x22
   8a170:	f9402e80 	ldr	x0, [x20, #88]
   8a174:	eb02001f 	cmp	x0, x2
   8a178:	54000049 	b.ls	8a180 <xTaskIncrementTick+0x90>  // b.plast
   8a17c:	f9011660 	str	x0, [x19, #552]
   8a180:	9b196800 	madd	x0, x0, x25, x26
   8a184:	97fffe3b 	bl	89a70 <vListInsertEnd>
   8a188:	f9400661 	ldr	x1, [x19, #8]
   8a18c:	f9400e60 	ldr	x0, [x19, #24]
   8a190:	f9402c21 	ldr	x1, [x1, #88]
   8a194:	f9400000 	ldr	x0, [x0]
   8a198:	f9402e82 	ldr	x2, [x20, #88]
   8a19c:	eb01005f 	cmp	x2, x1
   8a1a0:	9a9832b5 	csel	x21, x21, x24, cc  // cc = lo, ul, last
   8a1a4:	b40009a0 	cbz	x0, 8a2d8 <xTaskIncrementTick+0x1e8>
   8a1a8:	f9400e60 	ldr	x0, [x19, #24]
   8a1ac:	f9400c00 	ldr	x0, [x0, #24]
   8a1b0:	f9400c14 	ldr	x20, [x0, #24]
   8a1b4:	91002296 	add	x22, x20, #0x8
   8a1b8:	f9400681 	ldr	x1, [x20, #8]
   8a1bc:	aa1603e0 	mov	x0, x22
   8a1c0:	eb0102ff 	cmp	x23, x1
   8a1c4:	54fffc82 	b.cs	8a154 <xTaskIncrementTick+0x64>  // b.hs, b.nlast
   8a1c8:	a9446bf9 	ldp	x25, x26, [sp, #64]
   8a1cc:	f9001261 	str	x1, [x19, #32]
   8a1d0:	f9400660 	ldr	x0, [x19, #8]
   8a1d4:	d2800502 	mov	x2, #0x28                  	// #40
   8a1d8:	91018261 	add	x1, x19, #0x60
   8a1dc:	f9402c00 	ldr	x0, [x0, #88]
   8a1e0:	9b027c00 	mul	x0, x0, x2
   8a1e4:	f8606821 	ldr	x1, [x1, x0]
   8a1e8:	f9412660 	ldr	x0, [x19, #584]
   8a1ec:	f100083f 	cmp	x1, #0x2
   8a1f0:	9a9f36b5 	csinc	x21, x21, xzr, cc  // cc = lo, ul, last
   8a1f4:	b4000120 	cbz	x0, 8a218 <xTaskIncrementTick+0x128>
   8a1f8:	f9412a60 	ldr	x0, [x19, #592]
   8a1fc:	a94153f3 	ldp	x19, x20, [sp, #16]
   8a200:	f100001f 	cmp	x0, #0x0
   8a204:	9a9f06a0 	csinc	x0, x21, xzr, eq  // eq = none
   8a208:	a9425bf5 	ldp	x21, x22, [sp, #32]
   8a20c:	a94363f7 	ldp	x23, x24, [sp, #48]
   8a210:	a8c57bfd 	ldp	x29, x30, [sp], #80
   8a214:	d65f03c0 	ret
   8a218:	97ffe996 	bl	84870 <vApplicationTickHook>
   8a21c:	f9412a60 	ldr	x0, [x19, #592]
   8a220:	a94153f3 	ldp	x19, x20, [sp, #16]
   8a224:	f100001f 	cmp	x0, #0x0
   8a228:	9a9f06a0 	csinc	x0, x21, xzr, eq  // eq = none
   8a22c:	a9425bf5 	ldp	x21, x22, [sp, #32]
   8a230:	a94363f7 	ldp	x23, x24, [sp, #48]
   8a234:	a8c57bfd 	ldp	x29, x30, [sp], #80
   8a238:	d65f03c0 	ret
   8a23c:	f9400e60 	ldr	x0, [x19, #24]
   8a240:	f9400a61 	ldr	x1, [x19, #16]
   8a244:	f9000e61 	str	x1, [x19, #24]
   8a248:	f9000a60 	str	x0, [x19, #16]
   8a24c:	f9412260 	ldr	x0, [x19, #576]
   8a250:	91000400 	add	x0, x0, #0x1
   8a254:	f9012260 	str	x0, [x19, #576]
   8a258:	f9400e60 	ldr	x0, [x19, #24]
   8a25c:	f9400000 	ldr	x0, [x0]
   8a260:	b5000280 	cbnz	x0, 8a2b0 <xTaskIncrementTick+0x1c0>
   8a264:	92800000 	mov	x0, #0xffffffffffffffff    	// #-1
   8a268:	f9001260 	str	x0, [x19, #32]
   8a26c:	d2800015 	mov	x21, #0x0                   	// #0
   8a270:	f9401260 	ldr	x0, [x19, #32]
   8a274:	eb17001f 	cmp	x0, x23
   8a278:	54fffac8 	b.hi	8a1d0 <xTaskIncrementTick+0xe0>  // b.pmore
   8a27c:	17ffffae 	b	8a134 <xTaskIncrementTick+0x44>
   8a280:	f9412660 	ldr	x0, [x19, #584]
   8a284:	d2800015 	mov	x21, #0x0                   	// #0
   8a288:	91000400 	add	x0, x0, #0x1
   8a28c:	f9012660 	str	x0, [x19, #584]
   8a290:	97ffe978 	bl	84870 <vApplicationTickHook>
   8a294:	f9412a60 	ldr	x0, [x19, #592]
   8a298:	a94153f3 	ldp	x19, x20, [sp, #16]
   8a29c:	f100001f 	cmp	x0, #0x0
   8a2a0:	9a9f06a0 	csinc	x0, x21, xzr, eq  // eq = none
   8a2a4:	a9425bf5 	ldp	x21, x22, [sp, #32]
   8a2a8:	a8c57bfd 	ldp	x29, x30, [sp], #80
   8a2ac:	d65f03c0 	ret
   8a2b0:	f9400e60 	ldr	x0, [x19, #24]
   8a2b4:	d2800015 	mov	x21, #0x0                   	// #0
   8a2b8:	f9400c00 	ldr	x0, [x0, #24]
   8a2bc:	f9400c00 	ldr	x0, [x0, #24]
   8a2c0:	f9400400 	ldr	x0, [x0, #8]
   8a2c4:	f9001260 	str	x0, [x19, #32]
   8a2c8:	f9401260 	ldr	x0, [x19, #32]
   8a2cc:	eb17001f 	cmp	x0, x23
   8a2d0:	54fff808 	b.hi	8a1d0 <xTaskIncrementTick+0xe0>  // b.pmore
   8a2d4:	17ffff98 	b	8a134 <xTaskIncrementTick+0x44>
   8a2d8:	a9446bf9 	ldp	x25, x26, [sp, #64]
   8a2dc:	92800000 	mov	x0, #0xffffffffffffffff    	// #-1
   8a2e0:	f9001260 	str	x0, [x19, #32]
   8a2e4:	17ffffbb 	b	8a1d0 <xTaskIncrementTick+0xe0>
   8a2e8:	d503201f 	nop
   8a2ec:	d503201f 	nop

000000000008a2f0 <xTaskResumeAll>:
   8a2f0:	a9bc7bfd 	stp	x29, x30, [sp, #-64]!
   8a2f4:	910003fd 	mov	x29, sp
   8a2f8:	a90153f3 	stp	x19, x20, [sp, #16]
   8a2fc:	b0000033 	adrp	x19, 8f000 <g_msg+0x18>
   8a300:	9133c273 	add	x19, x19, #0xcf0
   8a304:	97fffbf3 	bl	892d0 <vPortEnterCritical>
   8a308:	f9411e60 	ldr	x0, [x19, #568]
   8a30c:	d1000400 	sub	x0, x0, #0x1
   8a310:	f9011e60 	str	x0, [x19, #568]
   8a314:	f9411e60 	ldr	x0, [x19, #568]
   8a318:	b5000760 	cbnz	x0, 8a404 <xTaskResumeAll+0x114>
   8a31c:	f9402e60 	ldr	x0, [x19, #88]
   8a320:	b4000720 	cbz	x0, 8a404 <xTaskResumeAll+0x114>
   8a324:	f940fa60 	ldr	x0, [x19, #496]
   8a328:	a9025bf5 	stp	x21, x22, [sp, #32]
   8a32c:	b4000440 	cbz	x0, 8a3b4 <xTaskResumeAll+0xc4>
   8a330:	a90363f7 	stp	x23, x24, [sp, #48]
   8a334:	91018277 	add	x23, x19, #0x60
   8a338:	d2800516 	mov	x22, #0x28                  	// #40
   8a33c:	d2800038 	mov	x24, #0x1                   	// #1
   8a340:	f9410660 	ldr	x0, [x19, #520]
   8a344:	f9400c14 	ldr	x20, [x0, #24]
   8a348:	91002295 	add	x21, x20, #0x8
   8a34c:	9100c280 	add	x0, x20, #0x30
   8a350:	97fffdec 	bl	89b00 <uxListRemove>
   8a354:	aa1503e0 	mov	x0, x21
   8a358:	97fffdea 	bl	89b00 <uxListRemove>
   8a35c:	f9411662 	ldr	x2, [x19, #552]
   8a360:	aa1503e1 	mov	x1, x21
   8a364:	f9402e80 	ldr	x0, [x20, #88]
   8a368:	eb02001f 	cmp	x0, x2
   8a36c:	54000049 	b.ls	8a374 <xTaskResumeAll+0x84>  // b.plast
   8a370:	f9011660 	str	x0, [x19, #552]
   8a374:	9b165c00 	madd	x0, x0, x22, x23
   8a378:	97fffdbe 	bl	89a70 <vListInsertEnd>
   8a37c:	f9400660 	ldr	x0, [x19, #8]
   8a380:	f9402e81 	ldr	x1, [x20, #88]
   8a384:	f9402c00 	ldr	x0, [x0, #88]
   8a388:	eb00003f 	cmp	x1, x0
   8a38c:	54000043 	b.cc	8a394 <xTaskResumeAll+0xa4>  // b.lo, b.ul, b.last
   8a390:	f9012a78 	str	x24, [x19, #592]
   8a394:	f940fa60 	ldr	x0, [x19, #496]
   8a398:	b5fffd40 	cbnz	x0, 8a340 <xTaskResumeAll+0x50>
   8a39c:	f9400e60 	ldr	x0, [x19, #24]
   8a3a0:	f9400000 	ldr	x0, [x0]
   8a3a4:	b50003c0 	cbnz	x0, 8a41c <xTaskResumeAll+0x12c>
   8a3a8:	92800000 	mov	x0, #0xffffffffffffffff    	// #-1
   8a3ac:	a94363f7 	ldp	x23, x24, [sp, #48]
   8a3b0:	f9001260 	str	x0, [x19, #32]
   8a3b4:	f9412674 	ldr	x20, [x19, #584]
   8a3b8:	b4000114 	cbz	x20, 8a3d8 <xTaskResumeAll+0xe8>
   8a3bc:	d2800035 	mov	x21, #0x1                   	// #1
   8a3c0:	97ffff4c 	bl	8a0f0 <xTaskIncrementTick>
   8a3c4:	b4000040 	cbz	x0, 8a3cc <xTaskResumeAll+0xdc>
   8a3c8:	f9012a75 	str	x21, [x19, #592]
   8a3cc:	f1000694 	subs	x20, x20, #0x1
   8a3d0:	54ffff81 	b.ne	8a3c0 <xTaskResumeAll+0xd0>  // b.any
   8a3d4:	f901267f 	str	xzr, [x19, #584]
   8a3d8:	f9412a60 	ldr	x0, [x19, #592]
   8a3dc:	b4000120 	cbz	x0, 8a400 <xTaskResumeAll+0x110>
   8a3e0:	d4000001 	svc	#0x0
   8a3e4:	d2800033 	mov	x19, #0x1                   	// #1
   8a3e8:	a9425bf5 	ldp	x21, x22, [sp, #32]
   8a3ec:	97fffbc5 	bl	89300 <vPortExitCritical>
   8a3f0:	aa1303e0 	mov	x0, x19
   8a3f4:	a94153f3 	ldp	x19, x20, [sp, #16]
   8a3f8:	a8c47bfd 	ldp	x29, x30, [sp], #64
   8a3fc:	d65f03c0 	ret
   8a400:	a9425bf5 	ldp	x21, x22, [sp, #32]
   8a404:	97fffbbf 	bl	89300 <vPortExitCritical>
   8a408:	d2800013 	mov	x19, #0x0                   	// #0
   8a40c:	aa1303e0 	mov	x0, x19
   8a410:	a94153f3 	ldp	x19, x20, [sp, #16]
   8a414:	a8c47bfd 	ldp	x29, x30, [sp], #64
   8a418:	d65f03c0 	ret
   8a41c:	f9400e60 	ldr	x0, [x19, #24]
   8a420:	a94363f7 	ldp	x23, x24, [sp, #48]
   8a424:	f9400c00 	ldr	x0, [x0, #24]
   8a428:	f9400c00 	ldr	x0, [x0, #24]
   8a42c:	f9400400 	ldr	x0, [x0, #8]
   8a430:	f9001260 	str	x0, [x19, #32]
   8a434:	17ffffe0 	b	8a3b4 <xTaskResumeAll+0xc4>
   8a438:	d503201f 	nop
   8a43c:	d503201f 	nop

000000000008a440 <vTaskDelayUntil>:
   8a440:	b0000024 	adrp	x4, 8f000 <g_msg+0x18>
   8a444:	9133c085 	add	x5, x4, #0xcf0
   8a448:	a9bf7bfd 	stp	x29, x30, [sp, #-16]!
   8a44c:	910003fd 	mov	x29, sp
   8a450:	f9411ca3 	ldr	x3, [x5, #568]
   8a454:	f9400002 	ldr	x2, [x0]
   8a458:	91000463 	add	x3, x3, #0x1
   8a45c:	f9011ca3 	str	x3, [x5, #568]
   8a460:	ab010041 	adds	x1, x2, x1
   8a464:	f9467883 	ldr	x3, [x4, #3312]
   8a468:	9a9f37e4 	cset	x4, cs  // cs = hs, nlast
   8a46c:	eb03005f 	cmp	x2, x3
   8a470:	54000109 	b.ls	8a490 <vTaskDelayUntil+0x50>  // b.plast
   8a474:	f9000001 	str	x1, [x0]
   8a478:	b50001a4 	cbnz	x4, 8a4ac <vTaskDelayUntil+0x6c>
   8a47c:	97ffff9d 	bl	8a2f0 <xTaskResumeAll>
   8a480:	b5000040 	cbnz	x0, 8a488 <vTaskDelayUntil+0x48>
   8a484:	d4000001 	svc	#0x0
   8a488:	a8c17bfd 	ldp	x29, x30, [sp], #16
   8a48c:	d65f03c0 	ret
   8a490:	f9000001 	str	x1, [x0]
   8a494:	f100009f 	cmp	x4, #0x0
   8a498:	fa410060 	ccmp	x3, x1, #0x0, eq  // eq = none
   8a49c:	54ffff02 	b.cs	8a47c <vTaskDelayUntil+0x3c>  // b.hs, b.nlast
   8a4a0:	cb030020 	sub	x0, x1, x3
   8a4a4:	97fffdab 	bl	89b50 <prvAddCurrentTaskToDelayedList.constprop.0>
   8a4a8:	17fffff5 	b	8a47c <vTaskDelayUntil+0x3c>
   8a4ac:	eb01007f 	cmp	x3, x1
   8a4b0:	54fffe62 	b.cs	8a47c <vTaskDelayUntil+0x3c>  // b.hs, b.nlast
   8a4b4:	cb030020 	sub	x0, x1, x3
   8a4b8:	97fffda6 	bl	89b50 <prvAddCurrentTaskToDelayedList.constprop.0>
   8a4bc:	17fffff0 	b	8a47c <vTaskDelayUntil+0x3c>

000000000008a4c0 <vTaskDelay>:
   8a4c0:	b5000060 	cbnz	x0, 8a4cc <vTaskDelay+0xc>
   8a4c4:	d4000001 	svc	#0x0
   8a4c8:	d65f03c0 	ret
   8a4cc:	b0000021 	adrp	x1, 8f000 <g_msg+0x18>
   8a4d0:	9133c021 	add	x1, x1, #0xcf0
   8a4d4:	a9bf7bfd 	stp	x29, x30, [sp, #-16]!
   8a4d8:	910003fd 	mov	x29, sp
   8a4dc:	f9411c22 	ldr	x2, [x1, #568]
   8a4e0:	91000442 	add	x2, x2, #0x1
   8a4e4:	f9011c22 	str	x2, [x1, #568]
   8a4e8:	97fffd9a 	bl	89b50 <prvAddCurrentTaskToDelayedList.constprop.0>
   8a4ec:	97ffff81 	bl	8a2f0 <xTaskResumeAll>
   8a4f0:	b5000040 	cbnz	x0, 8a4f8 <vTaskDelay+0x38>
   8a4f4:	d4000001 	svc	#0x0
   8a4f8:	a8c17bfd 	ldp	x29, x30, [sp], #16
   8a4fc:	d65f03c0 	ret

000000000008a500 <vTaskSwitchContext>:
   8a500:	a9be7bfd 	stp	x29, x30, [sp, #-32]!
   8a504:	910003fd 	mov	x29, sp
   8a508:	f9000bf3 	str	x19, [sp, #16]
   8a50c:	b0000033 	adrp	x19, 8f000 <g_msg+0x18>
   8a510:	9133c273 	add	x19, x19, #0xcf0
   8a514:	f9411e60 	ldr	x0, [x19, #568]
   8a518:	b40000c0 	cbz	x0, 8a530 <vTaskSwitchContext+0x30>
   8a51c:	d2800020 	mov	x0, #0x1                   	// #1
   8a520:	f9012a60 	str	x0, [x19, #592]
   8a524:	f9400bf3 	ldr	x19, [sp, #16]
   8a528:	a8c27bfd 	ldp	x29, x30, [sp], #32
   8a52c:	d65f03c0 	ret
   8a530:	f9012a7f 	str	xzr, [x19, #592]
   8a534:	5294b4a2 	mov	w2, #0xa5a5                	// #42405
   8a538:	72b4b4a2 	movk	w2, #0xa5a5, lsl #16
   8a53c:	f9400660 	ldr	x0, [x19, #8]
   8a540:	f9403000 	ldr	x0, [x0, #96]
   8a544:	b9400001 	ldr	w1, [x0]
   8a548:	6b02003f 	cmp	w1, w2
   8a54c:	54000081 	b.ne	8a55c <vTaskSwitchContext+0x5c>  // b.any
   8a550:	b9400402 	ldr	w2, [x0, #4]
   8a554:	6b01005f 	cmp	w2, w1
   8a558:	54000420 	b.eq	8a5dc <vTaskSwitchContext+0xdc>  // b.none
   8a55c:	f9400660 	ldr	x0, [x19, #8]
   8a560:	f9400661 	ldr	x1, [x19, #8]
   8a564:	9101a021 	add	x1, x1, #0x68
   8a568:	97ffe8c6 	bl	84880 <vApplicationStackOverflowHook>
   8a56c:	f9411660 	ldr	x0, [x19, #552]
   8a570:	d2800503 	mov	x3, #0x28                  	// #40
   8a574:	91018262 	add	x2, x19, #0x60
   8a578:	9b037c01 	mul	x1, x0, x3
   8a57c:	f8616841 	ldr	x1, [x2, x1]
   8a580:	b50000c1 	cbnz	x1, 8a598 <vTaskSwitchContext+0x98>
   8a584:	d503201f 	nop
   8a588:	d1000400 	sub	x0, x0, #0x1
   8a58c:	9b037c01 	mul	x1, x0, x3
   8a590:	f8616841 	ldr	x1, [x2, x1]
   8a594:	b4ffffa1 	cbz	x1, 8a588 <vTaskSwitchContext+0x88>
   8a598:	d2800502 	mov	x2, #0x28                  	// #40
   8a59c:	91018261 	add	x1, x19, #0x60
   8a5a0:	9b027c02 	mul	x2, x0, x2
   8a5a4:	8b020023 	add	x3, x1, x2
   8a5a8:	91004042 	add	x2, x2, #0x10
   8a5ac:	8b020021 	add	x1, x1, x2
   8a5b0:	f9400462 	ldr	x2, [x3, #8]
   8a5b4:	f9400442 	ldr	x2, [x2, #8]
   8a5b8:	f9000462 	str	x2, [x3, #8]
   8a5bc:	eb01005f 	cmp	x2, x1
   8a5c0:	540001c0 	b.eq	8a5f8 <vTaskSwitchContext+0xf8>  // b.none
   8a5c4:	f9400c41 	ldr	x1, [x2, #24]
   8a5c8:	f9000661 	str	x1, [x19, #8]
   8a5cc:	f9011660 	str	x0, [x19, #552]
   8a5d0:	f9400bf3 	ldr	x19, [sp, #16]
   8a5d4:	a8c27bfd 	ldp	x29, x30, [sp], #32
   8a5d8:	d65f03c0 	ret
   8a5dc:	b9400801 	ldr	w1, [x0, #8]
   8a5e0:	6b02003f 	cmp	w1, w2
   8a5e4:	54fffbc1 	b.ne	8a55c <vTaskSwitchContext+0x5c>  // b.any
   8a5e8:	b9400c00 	ldr	w0, [x0, #12]
   8a5ec:	6b01001f 	cmp	w0, w1
   8a5f0:	54fffb61 	b.ne	8a55c <vTaskSwitchContext+0x5c>  // b.any
   8a5f4:	17ffffde 	b	8a56c <vTaskSwitchContext+0x6c>
   8a5f8:	f9400442 	ldr	x2, [x2, #8]
   8a5fc:	f9000462 	str	x2, [x3, #8]
   8a600:	17fffff1 	b	8a5c4 <vTaskSwitchContext+0xc4>
   8a604:	d503201f 	nop
   8a608:	d503201f 	nop
   8a60c:	d503201f 	nop

000000000008a610 <vTaskPlaceOnEventList>:
   8a610:	a9be7bfd 	stp	x29, x30, [sp, #-32]!
   8a614:	b0000022 	adrp	x2, 8f000 <g_msg+0x18>
   8a618:	9133c042 	add	x2, x2, #0xcf0
   8a61c:	910003fd 	mov	x29, sp
   8a620:	f9000bf3 	str	x19, [sp, #16]
   8a624:	aa0103f3 	mov	x19, x1
   8a628:	f9400441 	ldr	x1, [x2, #8]
   8a62c:	9100c021 	add	x1, x1, #0x30
   8a630:	97fffd1c 	bl	89aa0 <vListInsert>
   8a634:	aa1303e0 	mov	x0, x19
   8a638:	f9400bf3 	ldr	x19, [sp, #16]
   8a63c:	a8c27bfd 	ldp	x29, x30, [sp], #32
   8a640:	17fffd44 	b	89b50 <prvAddCurrentTaskToDelayedList.constprop.0>
   8a644:	d503201f 	nop
   8a648:	d503201f 	nop
   8a64c:	d503201f 	nop

000000000008a650 <vTaskPlaceOnUnorderedEventList>:
   8a650:	b0000023 	adrp	x3, 8f000 <g_msg+0x18>
   8a654:	9133c063 	add	x3, x3, #0xcf0
   8a658:	a9be7bfd 	stp	x29, x30, [sp, #-32]!
   8a65c:	b2610021 	orr	x1, x1, #0x80000000
   8a660:	910003fd 	mov	x29, sp
   8a664:	f9400464 	ldr	x4, [x3, #8]
   8a668:	f9000bf3 	str	x19, [sp, #16]
   8a66c:	aa0203f3 	mov	x19, x2
   8a670:	f9400462 	ldr	x2, [x3, #8]
   8a674:	f9001881 	str	x1, [x4, #48]
   8a678:	9100c041 	add	x1, x2, #0x30
   8a67c:	97fffcfd 	bl	89a70 <vListInsertEnd>
   8a680:	aa1303e0 	mov	x0, x19
   8a684:	f9400bf3 	ldr	x19, [sp, #16]
   8a688:	a8c27bfd 	ldp	x29, x30, [sp], #32
   8a68c:	17fffd31 	b	89b50 <prvAddCurrentTaskToDelayedList.constprop.0>

000000000008a690 <vTaskPlaceOnEventListRestricted>:
   8a690:	a9be7bfd 	stp	x29, x30, [sp, #-32]!
   8a694:	b0000023 	adrp	x3, 8f000 <g_msg+0x18>
   8a698:	9133c063 	add	x3, x3, #0xcf0
   8a69c:	910003fd 	mov	x29, sp
   8a6a0:	a90153f3 	stp	x19, x20, [sp, #16]
   8a6a4:	aa0103f3 	mov	x19, x1
   8a6a8:	aa0203f4 	mov	x20, x2
   8a6ac:	f9400461 	ldr	x1, [x3, #8]
   8a6b0:	9100c021 	add	x1, x1, #0x30
   8a6b4:	97fffcef 	bl	89a70 <vListInsertEnd>
   8a6b8:	f100029f 	cmp	x20, #0x0
   8a6bc:	da9f0260 	csinv	x0, x19, xzr, eq  // eq = none
   8a6c0:	a94153f3 	ldp	x19, x20, [sp, #16]
   8a6c4:	a8c27bfd 	ldp	x29, x30, [sp], #32
   8a6c8:	17fffd22 	b	89b50 <prvAddCurrentTaskToDelayedList.constprop.0>
   8a6cc:	d503201f 	nop

000000000008a6d0 <xTaskRemoveFromEventList>:
   8a6d0:	a9bd7bfd 	stp	x29, x30, [sp, #-48]!
   8a6d4:	910003fd 	mov	x29, sp
   8a6d8:	f9400c00 	ldr	x0, [x0, #24]
   8a6dc:	a90153f3 	stp	x19, x20, [sp, #16]
   8a6e0:	b0000033 	adrp	x19, 8f000 <g_msg+0x18>
   8a6e4:	9133c273 	add	x19, x19, #0xcf0
   8a6e8:	f9400c14 	ldr	x20, [x0, #24]
   8a6ec:	f90013f5 	str	x21, [sp, #32]
   8a6f0:	9100c295 	add	x21, x20, #0x30
   8a6f4:	aa1503e0 	mov	x0, x21
   8a6f8:	97fffd02 	bl	89b00 <uxListRemove>
   8a6fc:	f9411e60 	ldr	x0, [x19, #568]
   8a700:	b5000340 	cbnz	x0, 8a768 <xTaskRemoveFromEventList+0x98>
   8a704:	91002295 	add	x21, x20, #0x8
   8a708:	aa1503e0 	mov	x0, x21
   8a70c:	97fffcfd 	bl	89b00 <uxListRemove>
   8a710:	f9411660 	ldr	x0, [x19, #552]
   8a714:	f9402e82 	ldr	x2, [x20, #88]
   8a718:	eb00005f 	cmp	x2, x0
   8a71c:	540002e8 	b.hi	8a778 <xTaskRemoveFromEventList+0xa8>  // b.pmore
   8a720:	91018260 	add	x0, x19, #0x60
   8a724:	d2800503 	mov	x3, #0x28                  	// #40
   8a728:	aa1503e1 	mov	x1, x21
   8a72c:	9b030040 	madd	x0, x2, x3, x0
   8a730:	97fffcd0 	bl	89a70 <vListInsertEnd>
   8a734:	f9400661 	ldr	x1, [x19, #8]
   8a738:	d2800000 	mov	x0, #0x0                   	// #0
   8a73c:	f9402e82 	ldr	x2, [x20, #88]
   8a740:	f9402c21 	ldr	x1, [x1, #88]
   8a744:	eb01005f 	cmp	x2, x1
   8a748:	54000089 	b.ls	8a758 <xTaskRemoveFromEventList+0x88>  // b.plast
   8a74c:	d2800021 	mov	x1, #0x1                   	// #1
   8a750:	aa0103e0 	mov	x0, x1
   8a754:	f9012a61 	str	x1, [x19, #592]
   8a758:	a94153f3 	ldp	x19, x20, [sp, #16]
   8a75c:	f94013f5 	ldr	x21, [sp, #32]
   8a760:	a8c37bfd 	ldp	x29, x30, [sp], #48
   8a764:	d65f03c0 	ret
   8a768:	aa1503e1 	mov	x1, x21
   8a76c:	9107c260 	add	x0, x19, #0x1f0
   8a770:	97fffcc0 	bl	89a70 <vListInsertEnd>
   8a774:	17fffff0 	b	8a734 <xTaskRemoveFromEventList+0x64>
   8a778:	f9011662 	str	x2, [x19, #552]
   8a77c:	17ffffe9 	b	8a720 <xTaskRemoveFromEventList+0x50>

000000000008a780 <vTaskRemoveFromUnorderedEventList>:
   8a780:	a9bd7bfd 	stp	x29, x30, [sp, #-48]!
   8a784:	b2610021 	orr	x1, x1, #0x80000000
   8a788:	910003fd 	mov	x29, sp
   8a78c:	a90153f3 	stp	x19, x20, [sp, #16]
   8a790:	b0000033 	adrp	x19, 8f000 <g_msg+0x18>
   8a794:	9133c273 	add	x19, x19, #0xcf0
   8a798:	f9400c14 	ldr	x20, [x0, #24]
   8a79c:	f90013f5 	str	x21, [sp, #32]
   8a7a0:	f9000001 	str	x1, [x0]
   8a7a4:	91002295 	add	x21, x20, #0x8
   8a7a8:	97fffcd6 	bl	89b00 <uxListRemove>
   8a7ac:	aa1503e0 	mov	x0, x21
   8a7b0:	97fffcd4 	bl	89b00 <uxListRemove>
   8a7b4:	f9411660 	ldr	x0, [x19, #552]
   8a7b8:	f9402e82 	ldr	x2, [x20, #88]
   8a7bc:	eb00005f 	cmp	x2, x0
   8a7c0:	54000049 	b.ls	8a7c8 <vTaskRemoveFromUnorderedEventList+0x48>  // b.plast
   8a7c4:	f9011662 	str	x2, [x19, #552]
   8a7c8:	91018260 	add	x0, x19, #0x60
   8a7cc:	d2800503 	mov	x3, #0x28                  	// #40
   8a7d0:	aa1503e1 	mov	x1, x21
   8a7d4:	9b030040 	madd	x0, x2, x3, x0
   8a7d8:	97fffca6 	bl	89a70 <vListInsertEnd>
   8a7dc:	f9400660 	ldr	x0, [x19, #8]
   8a7e0:	f9402e81 	ldr	x1, [x20, #88]
   8a7e4:	f9402c00 	ldr	x0, [x0, #88]
   8a7e8:	eb00003f 	cmp	x1, x0
   8a7ec:	54000069 	b.ls	8a7f8 <vTaskRemoveFromUnorderedEventList+0x78>  // b.plast
   8a7f0:	d2800020 	mov	x0, #0x1                   	// #1
   8a7f4:	f9012a60 	str	x0, [x19, #592]
   8a7f8:	a94153f3 	ldp	x19, x20, [sp, #16]
   8a7fc:	f94013f5 	ldr	x21, [sp, #32]
   8a800:	a8c37bfd 	ldp	x29, x30, [sp], #48
   8a804:	d65f03c0 	ret
   8a808:	d503201f 	nop
   8a80c:	d503201f 	nop

000000000008a810 <vTaskSetTimeOutState>:
   8a810:	a9be7bfd 	stp	x29, x30, [sp, #-32]!
   8a814:	910003fd 	mov	x29, sp
   8a818:	f9000bf3 	str	x19, [sp, #16]
   8a81c:	aa0003f3 	mov	x19, x0
   8a820:	97fffaac 	bl	892d0 <vPortEnterCritical>
   8a824:	b0000020 	adrp	x0, 8f000 <g_msg+0x18>
   8a828:	9133c001 	add	x1, x0, #0xcf0
   8a82c:	f9412021 	ldr	x1, [x1, #576]
   8a830:	f9467800 	ldr	x0, [x0, #3312]
   8a834:	a9000261 	stp	x1, x0, [x19]
   8a838:	f9400bf3 	ldr	x19, [sp, #16]
   8a83c:	a8c27bfd 	ldp	x29, x30, [sp], #32
   8a840:	17fffab0 	b	89300 <vPortExitCritical>
   8a844:	d503201f 	nop
   8a848:	d503201f 	nop
   8a84c:	d503201f 	nop

000000000008a850 <vTaskInternalSetTimeOutState>:
   8a850:	b0000021 	adrp	x1, 8f000 <g_msg+0x18>
   8a854:	9133c022 	add	x2, x1, #0xcf0
   8a858:	f9412042 	ldr	x2, [x2, #576]
   8a85c:	f9467821 	ldr	x1, [x1, #3312]
   8a860:	a9000402 	stp	x2, x1, [x0]
   8a864:	d65f03c0 	ret
   8a868:	d503201f 	nop
   8a86c:	d503201f 	nop

000000000008a870 <xTaskCheckForTimeOut>:
   8a870:	a9bd7bfd 	stp	x29, x30, [sp, #-48]!
   8a874:	910003fd 	mov	x29, sp
   8a878:	a90153f3 	stp	x19, x20, [sp, #16]
   8a87c:	aa0003f3 	mov	x19, x0
   8a880:	aa0103f4 	mov	x20, x1
   8a884:	f90013f5 	str	x21, [sp, #32]
   8a888:	97fffa92 	bl	892d0 <vPortEnterCritical>
   8a88c:	b0000021 	adrp	x1, 8f000 <g_msg+0x18>
   8a890:	9133c024 	add	x4, x1, #0xcf0
   8a894:	a9400e65 	ldp	x5, x3, [x19]
   8a898:	d2800035 	mov	x21, #0x1                   	// #1
   8a89c:	f9467822 	ldr	x2, [x1, #3312]
   8a8a0:	f9412080 	ldr	x0, [x4, #576]
   8a8a4:	eb0000bf 	cmp	x5, x0
   8a8a8:	fa421062 	ccmp	x3, x2, #0x2, ne  // ne = any
   8a8ac:	540001a9 	b.ls	8a8e0 <xTaskCheckForTimeOut+0x70>  // b.plast
   8a8b0:	f9400280 	ldr	x0, [x20]
   8a8b4:	cb030045 	sub	x5, x2, x3
   8a8b8:	eb05001f 	cmp	x0, x5
   8a8bc:	540001e9 	b.ls	8a8f8 <xTaskCheckForTimeOut+0x88>  // b.plast
   8a8c0:	cb020002 	sub	x2, x0, x2
   8a8c4:	d2800015 	mov	x21, #0x0                   	// #0
   8a8c8:	8b030042 	add	x2, x2, x3
   8a8cc:	f9000282 	str	x2, [x20]
   8a8d0:	f9412080 	ldr	x0, [x4, #576]
   8a8d4:	f9000260 	str	x0, [x19]
   8a8d8:	f9467820 	ldr	x0, [x1, #3312]
   8a8dc:	f9000660 	str	x0, [x19, #8]
   8a8e0:	97fffa88 	bl	89300 <vPortExitCritical>
   8a8e4:	aa1503e0 	mov	x0, x21
   8a8e8:	a94153f3 	ldp	x19, x20, [sp, #16]
   8a8ec:	f94013f5 	ldr	x21, [sp, #32]
   8a8f0:	a8c37bfd 	ldp	x29, x30, [sp], #48
   8a8f4:	d65f03c0 	ret
   8a8f8:	f900029f 	str	xzr, [x20]
   8a8fc:	d2800035 	mov	x21, #0x1                   	// #1
   8a900:	97fffa80 	bl	89300 <vPortExitCritical>
   8a904:	aa1503e0 	mov	x0, x21
   8a908:	a94153f3 	ldp	x19, x20, [sp, #16]
   8a90c:	f94013f5 	ldr	x21, [sp, #32]
   8a910:	a8c37bfd 	ldp	x29, x30, [sp], #48
   8a914:	d65f03c0 	ret
   8a918:	d503201f 	nop
   8a91c:	d503201f 	nop

000000000008a920 <vTaskMissedYield>:
   8a920:	b0000020 	adrp	x0, 8f000 <g_msg+0x18>
   8a924:	9133c000 	add	x0, x0, #0xcf0
   8a928:	d2800021 	mov	x1, #0x1                   	// #1
   8a92c:	f9012801 	str	x1, [x0, #592]
   8a930:	d65f03c0 	ret
   8a934:	d503201f 	nop
   8a938:	d503201f 	nop
   8a93c:	d503201f 	nop

000000000008a940 <xTaskGetCurrentTaskHandle>:
   8a940:	b0000020 	adrp	x0, 8f000 <g_msg+0x18>
   8a944:	9133c000 	add	x0, x0, #0xcf0
   8a948:	f9400400 	ldr	x0, [x0, #8]
   8a94c:	d65f03c0 	ret

000000000008a950 <xTaskGetSchedulerState>:
   8a950:	b0000021 	adrp	x1, 8f000 <g_msg+0x18>
   8a954:	9133c021 	add	x1, x1, #0xcf0
   8a958:	d2800020 	mov	x0, #0x1                   	// #1
   8a95c:	f9410c22 	ldr	x2, [x1, #536]
   8a960:	b40000a2 	cbz	x2, 8a974 <xTaskGetSchedulerState+0x24>
   8a964:	f9411c20 	ldr	x0, [x1, #568]
   8a968:	f100001f 	cmp	x0, #0x0
   8a96c:	9a9f17e0 	cset	x0, eq  // eq = none
   8a970:	d37ff800 	lsl	x0, x0, #1
   8a974:	d65f03c0 	ret
   8a978:	d503201f 	nop
   8a97c:	d503201f 	nop

000000000008a980 <xTaskPriorityInherit>:
   8a980:	b4000460 	cbz	x0, 8aa0c <xTaskPriorityInherit+0x8c>
   8a984:	a9bd7bfd 	stp	x29, x30, [sp, #-48]!
   8a988:	910003fd 	mov	x29, sp
   8a98c:	a90153f3 	stp	x19, x20, [sp, #16]
   8a990:	b0000034 	adrp	x20, 8f000 <g_msg+0x18>
   8a994:	9133c294 	add	x20, x20, #0xcf0
   8a998:	aa0003f3 	mov	x19, x0
   8a99c:	f9402c00 	ldr	x0, [x0, #88]
   8a9a0:	f9400681 	ldr	x1, [x20, #8]
   8a9a4:	f9402c21 	ldr	x1, [x1, #88]
   8a9a8:	eb01001f 	cmp	x0, x1
   8a9ac:	54000123 	b.cc	8a9d0 <xTaskPriorityInherit+0x50>  // b.lo, b.ul, b.last
   8a9b0:	f9400680 	ldr	x0, [x20, #8]
   8a9b4:	f9403e61 	ldr	x1, [x19, #120]
   8a9b8:	f9402c00 	ldr	x0, [x0, #88]
   8a9bc:	eb00003f 	cmp	x1, x0
   8a9c0:	9a9f27e0 	cset	x0, cc  // cc = lo, ul, last
   8a9c4:	a94153f3 	ldp	x19, x20, [sp, #16]
   8a9c8:	a8c37bfd 	ldp	x29, x30, [sp], #48
   8a9cc:	d65f03c0 	ret
   8a9d0:	f9401a61 	ldr	x1, [x19, #48]
   8a9d4:	36f80201 	tbz	w1, #31, 8aa14 <xTaskPriorityInherit+0x94>
   8a9d8:	91018281 	add	x1, x20, #0x60
   8a9dc:	d2800503 	mov	x3, #0x28                  	// #40
   8a9e0:	f9401662 	ldr	x2, [x19, #40]
   8a9e4:	9b030400 	madd	x0, x0, x3, x1
   8a9e8:	eb00005f 	cmp	x2, x0
   8a9ec:	54000200 	b.eq	8aa2c <xTaskPriorityInherit+0xac>  // b.none
   8a9f0:	f9400681 	ldr	x1, [x20, #8]
   8a9f4:	d2800020 	mov	x0, #0x1                   	// #1
   8a9f8:	f9402c21 	ldr	x1, [x1, #88]
   8a9fc:	f9002e61 	str	x1, [x19, #88]
   8aa00:	a94153f3 	ldp	x19, x20, [sp, #16]
   8aa04:	a8c37bfd 	ldp	x29, x30, [sp], #48
   8aa08:	d65f03c0 	ret
   8aa0c:	d2800000 	mov	x0, #0x0                   	// #0
   8aa10:	d65f03c0 	ret
   8aa14:	f9400682 	ldr	x2, [x20, #8]
   8aa18:	d2800101 	mov	x1, #0x8                   	// #8
   8aa1c:	f9402c42 	ldr	x2, [x2, #88]
   8aa20:	cb020021 	sub	x1, x1, x2
   8aa24:	f9001a61 	str	x1, [x19, #48]
   8aa28:	17ffffec 	b	8a9d8 <xTaskPriorityInherit+0x58>
   8aa2c:	f90013f5 	str	x21, [sp, #32]
   8aa30:	91002275 	add	x21, x19, #0x8
   8aa34:	aa1503e0 	mov	x0, x21
   8aa38:	97fffc32 	bl	89b00 <uxListRemove>
   8aa3c:	f9400680 	ldr	x0, [x20, #8]
   8aa40:	f9411681 	ldr	x1, [x20, #552]
   8aa44:	f9402c00 	ldr	x0, [x0, #88]
   8aa48:	f9002e60 	str	x0, [x19, #88]
   8aa4c:	eb01001f 	cmp	x0, x1
   8aa50:	54000049 	b.ls	8aa58 <xTaskPriorityInherit+0xd8>  // b.plast
   8aa54:	f9011680 	str	x0, [x20, #552]
   8aa58:	91018294 	add	x20, x20, #0x60
   8aa5c:	d2800502 	mov	x2, #0x28                  	// #40
   8aa60:	aa1503e1 	mov	x1, x21
   8aa64:	9b025000 	madd	x0, x0, x2, x20
   8aa68:	97fffc02 	bl	89a70 <vListInsertEnd>
   8aa6c:	d2800020 	mov	x0, #0x1                   	// #1
   8aa70:	f94013f5 	ldr	x21, [sp, #32]
   8aa74:	17ffffd4 	b	8a9c4 <xTaskPriorityInherit+0x44>
   8aa78:	d503201f 	nop
   8aa7c:	d503201f 	nop

000000000008aa80 <xTaskPriorityDisinherit>:
   8aa80:	b40001e0 	cbz	x0, 8aabc <xTaskPriorityDisinherit+0x3c>
   8aa84:	a9be7bfd 	stp	x29, x30, [sp, #-32]!
   8aa88:	910003fd 	mov	x29, sp
   8aa8c:	a90153f3 	stp	x19, x20, [sp, #16]
   8aa90:	aa0003f3 	mov	x19, x0
   8aa94:	f9402c02 	ldr	x2, [x0, #88]
   8aa98:	a9478001 	ldp	x1, x0, [x0, #120]
   8aa9c:	f1000400 	subs	x0, x0, #0x1
   8aaa0:	f9004260 	str	x0, [x19, #128]
   8aaa4:	fa410044 	ccmp	x2, x1, #0x4, eq  // eq = none
   8aaa8:	d2800000 	mov	x0, #0x0                   	// #0
   8aaac:	540000c1 	b.ne	8aac4 <xTaskPriorityDisinherit+0x44>  // b.any
   8aab0:	a94153f3 	ldp	x19, x20, [sp, #16]
   8aab4:	a8c27bfd 	ldp	x29, x30, [sp], #32
   8aab8:	d65f03c0 	ret
   8aabc:	d2800000 	mov	x0, #0x0                   	// #0
   8aac0:	d65f03c0 	ret
   8aac4:	91002274 	add	x20, x19, #0x8
   8aac8:	aa1403e0 	mov	x0, x20
   8aacc:	97fffc0d 	bl	89b00 <uxListRemove>
   8aad0:	b0000022 	adrp	x2, 8f000 <g_msg+0x18>
   8aad4:	9133c042 	add	x2, x2, #0xcf0
   8aad8:	f9403e60 	ldr	x0, [x19, #120]
   8aadc:	d2800103 	mov	x3, #0x8                   	// #8
   8aae0:	f9411441 	ldr	x1, [x2, #552]
   8aae4:	cb000063 	sub	x3, x3, x0
   8aae8:	f9001a63 	str	x3, [x19, #48]
   8aaec:	f9002e60 	str	x0, [x19, #88]
   8aaf0:	eb01001f 	cmp	x0, x1
   8aaf4:	54000049 	b.ls	8aafc <xTaskPriorityDisinherit+0x7c>  // b.plast
   8aaf8:	f9011440 	str	x0, [x2, #552]
   8aafc:	91018042 	add	x2, x2, #0x60
   8ab00:	d2800503 	mov	x3, #0x28                  	// #40
   8ab04:	aa1403e1 	mov	x1, x20
   8ab08:	9b030800 	madd	x0, x0, x3, x2
   8ab0c:	97fffbd9 	bl	89a70 <vListInsertEnd>
   8ab10:	d2800020 	mov	x0, #0x1                   	// #1
   8ab14:	a94153f3 	ldp	x19, x20, [sp, #16]
   8ab18:	a8c27bfd 	ldp	x29, x30, [sp], #32
   8ab1c:	d65f03c0 	ret

000000000008ab20 <vTaskPriorityDisinheritAfterTimeout>:
   8ab20:	b4000220 	cbz	x0, 8ab64 <vTaskPriorityDisinheritAfterTimeout+0x44>
   8ab24:	a9bd7bfd 	stp	x29, x30, [sp, #-48]!
   8ab28:	910003fd 	mov	x29, sp
   8ab2c:	a90153f3 	stp	x19, x20, [sp, #16]
   8ab30:	aa0003f3 	mov	x19, x0
   8ab34:	f9402c02 	ldr	x2, [x0, #88]
   8ab38:	f9403c00 	ldr	x0, [x0, #120]
   8ab3c:	eb01001f 	cmp	x0, x1
   8ab40:	9a812001 	csel	x1, x0, x1, cs  // cs = hs, nlast
   8ab44:	eb01005f 	cmp	x2, x1
   8ab48:	54000080 	b.eq	8ab58 <vTaskPriorityDisinheritAfterTimeout+0x38>  // b.none
   8ab4c:	f9404260 	ldr	x0, [x19, #128]
   8ab50:	f100041f 	cmp	x0, #0x1
   8ab54:	540000a0 	b.eq	8ab68 <vTaskPriorityDisinheritAfterTimeout+0x48>  // b.none
   8ab58:	a94153f3 	ldp	x19, x20, [sp, #16]
   8ab5c:	a8c37bfd 	ldp	x29, x30, [sp], #48
   8ab60:	d65f03c0 	ret
   8ab64:	d65f03c0 	ret
   8ab68:	f9401a60 	ldr	x0, [x19, #48]
   8ab6c:	f9002e61 	str	x1, [x19, #88]
   8ab70:	37f80080 	tbnz	w0, #31, 8ab80 <vTaskPriorityDisinheritAfterTimeout+0x60>
   8ab74:	d2800100 	mov	x0, #0x8                   	// #8
   8ab78:	cb010001 	sub	x1, x0, x1
   8ab7c:	f9001a61 	str	x1, [x19, #48]
   8ab80:	b0000034 	adrp	x20, 8f000 <g_msg+0x18>
   8ab84:	9133c294 	add	x20, x20, #0xcf0
   8ab88:	91018281 	add	x1, x20, #0x60
   8ab8c:	d2800503 	mov	x3, #0x28                  	// #40
   8ab90:	f9401660 	ldr	x0, [x19, #40]
   8ab94:	9b030442 	madd	x2, x2, x3, x1
   8ab98:	eb02001f 	cmp	x0, x2
   8ab9c:	54fffde1 	b.ne	8ab58 <vTaskPriorityDisinheritAfterTimeout+0x38>  // b.any
   8aba0:	f90013f5 	str	x21, [sp, #32]
   8aba4:	91002275 	add	x21, x19, #0x8
   8aba8:	aa1503e0 	mov	x0, x21
   8abac:	97fffbd5 	bl	89b00 <uxListRemove>
   8abb0:	f9411681 	ldr	x1, [x20, #552]
   8abb4:	f9402e60 	ldr	x0, [x19, #88]
   8abb8:	eb01001f 	cmp	x0, x1
   8abbc:	54000049 	b.ls	8abc4 <vTaskPriorityDisinheritAfterTimeout+0xa4>  // b.plast
   8abc0:	f9011680 	str	x0, [x20, #552]
   8abc4:	91018294 	add	x20, x20, #0x60
   8abc8:	d2800502 	mov	x2, #0x28                  	// #40
   8abcc:	aa1503e1 	mov	x1, x21
   8abd0:	f94013f5 	ldr	x21, [sp, #32]
   8abd4:	9b025000 	madd	x0, x0, x2, x20
   8abd8:	a94153f3 	ldp	x19, x20, [sp, #16]
   8abdc:	a8c37bfd 	ldp	x29, x30, [sp], #48
   8abe0:	17fffba4 	b	89a70 <vListInsertEnd>
   8abe4:	d503201f 	nop
   8abe8:	d503201f 	nop
   8abec:	d503201f 	nop

000000000008abf0 <uxTaskResetEventItemValue>:
   8abf0:	b0000020 	adrp	x0, 8f000 <g_msg+0x18>
   8abf4:	9133c000 	add	x0, x0, #0xcf0
   8abf8:	d2800101 	mov	x1, #0x8                   	// #8
   8abfc:	f9400404 	ldr	x4, [x0, #8]
   8ac00:	f9400403 	ldr	x3, [x0, #8]
   8ac04:	f9400402 	ldr	x2, [x0, #8]
   8ac08:	f9402c63 	ldr	x3, [x3, #88]
   8ac0c:	f9401880 	ldr	x0, [x4, #48]
   8ac10:	cb030021 	sub	x1, x1, x3
   8ac14:	f9001841 	str	x1, [x2, #48]
   8ac18:	d65f03c0 	ret
   8ac1c:	d503201f 	nop

000000000008ac20 <pvTaskIncrementMutexHeldCount>:
   8ac20:	b0000020 	adrp	x0, 8f000 <g_msg+0x18>
   8ac24:	9133c000 	add	x0, x0, #0xcf0
   8ac28:	f9400401 	ldr	x1, [x0, #8]
   8ac2c:	b40000a1 	cbz	x1, 8ac40 <pvTaskIncrementMutexHeldCount+0x20>
   8ac30:	f9400402 	ldr	x2, [x0, #8]
   8ac34:	f9404041 	ldr	x1, [x2, #128]
   8ac38:	91000421 	add	x1, x1, #0x1
   8ac3c:	f9004041 	str	x1, [x2, #128]
   8ac40:	f9400400 	ldr	x0, [x0, #8]
   8ac44:	d65f03c0 	ret
   8ac48:	d503201f 	nop
   8ac4c:	d503201f 	nop

000000000008ac50 <ulTaskNotifyTake>:
   8ac50:	a9bd7bfd 	stp	x29, x30, [sp, #-48]!
   8ac54:	910003fd 	mov	x29, sp
   8ac58:	a90153f3 	stp	x19, x20, [sp, #16]
   8ac5c:	b0000033 	adrp	x19, 8f000 <g_msg+0x18>
   8ac60:	9133c273 	add	x19, x19, #0xcf0
   8ac64:	aa0103f4 	mov	x20, x1
   8ac68:	f90013f5 	str	x21, [sp, #32]
   8ac6c:	aa0003f5 	mov	x21, x0
   8ac70:	97fff998 	bl	892d0 <vPortEnterCritical>
   8ac74:	f9400661 	ldr	x1, [x19, #8]
   8ac78:	b9408821 	ldr	w1, [x1, #136]
   8ac7c:	350000a1 	cbnz	w1, 8ac90 <ulTaskNotifyTake+0x40>
   8ac80:	f9400660 	ldr	x0, [x19, #8]
   8ac84:	52800021 	mov	w1, #0x1                   	// #1
   8ac88:	39023001 	strb	w1, [x0, #140]
   8ac8c:	b5000374 	cbnz	x20, 8acf8 <ulTaskNotifyTake+0xa8>
   8ac90:	97fff99c 	bl	89300 <vPortExitCritical>
   8ac94:	97fff98f 	bl	892d0 <vPortEnterCritical>
   8ac98:	f9400661 	ldr	x1, [x19, #8]
   8ac9c:	b9408834 	ldr	w20, [x1, #136]
   8aca0:	34000094 	cbz	w20, 8acb0 <ulTaskNotifyTake+0x60>
   8aca4:	f9400660 	ldr	x0, [x19, #8]
   8aca8:	b4000155 	cbz	x21, 8acd0 <ulTaskNotifyTake+0x80>
   8acac:	b900881f 	str	wzr, [x0, #136]
   8acb0:	f9400660 	ldr	x0, [x19, #8]
   8acb4:	3902301f 	strb	wzr, [x0, #140]
   8acb8:	97fff992 	bl	89300 <vPortExitCritical>
   8acbc:	2a1403e0 	mov	w0, w20
   8acc0:	a94153f3 	ldp	x19, x20, [sp, #16]
   8acc4:	f94013f5 	ldr	x21, [sp, #32]
   8acc8:	a8c37bfd 	ldp	x29, x30, [sp], #48
   8accc:	d65f03c0 	ret
   8acd0:	51000681 	sub	w1, w20, #0x1
   8acd4:	b9008801 	str	w1, [x0, #136]
   8acd8:	f9400660 	ldr	x0, [x19, #8]
   8acdc:	3902301f 	strb	wzr, [x0, #140]
   8ace0:	97fff988 	bl	89300 <vPortExitCritical>
   8ace4:	2a1403e0 	mov	w0, w20
   8ace8:	a94153f3 	ldp	x19, x20, [sp, #16]
   8acec:	f94013f5 	ldr	x21, [sp, #32]
   8acf0:	a8c37bfd 	ldp	x29, x30, [sp], #48
   8acf4:	d65f03c0 	ret
   8acf8:	aa1403e0 	mov	x0, x20
   8acfc:	97fffb95 	bl	89b50 <prvAddCurrentTaskToDelayedList.constprop.0>
   8ad00:	d4000001 	svc	#0x0
   8ad04:	17ffffe3 	b	8ac90 <ulTaskNotifyTake+0x40>
   8ad08:	d503201f 	nop
   8ad0c:	d503201f 	nop

000000000008ad10 <xTaskNotifyWait>:
   8ad10:	a9bc7bfd 	stp	x29, x30, [sp, #-64]!
   8ad14:	910003fd 	mov	x29, sp
   8ad18:	a90153f3 	stp	x19, x20, [sp, #16]
   8ad1c:	b0000033 	adrp	x19, 8f000 <g_msg+0x18>
   8ad20:	9133c273 	add	x19, x19, #0xcf0
   8ad24:	2a0003f4 	mov	w20, w0
   8ad28:	a9025bf5 	stp	x21, x22, [sp, #32]
   8ad2c:	2a0103f5 	mov	w21, w1
   8ad30:	aa0303f6 	mov	x22, x3
   8ad34:	f9001bf7 	str	x23, [sp, #48]
   8ad38:	aa0203f7 	mov	x23, x2
   8ad3c:	97fff965 	bl	892d0 <vPortEnterCritical>
   8ad40:	f9400660 	ldr	x0, [x19, #8]
   8ad44:	39423001 	ldrb	w1, [x0, #140]
   8ad48:	12001c21 	and	w1, w1, #0xff
   8ad4c:	7100083f 	cmp	w1, #0x2
   8ad50:	54000120 	b.eq	8ad74 <xTaskNotifyWait+0x64>  // b.none
   8ad54:	f9400661 	ldr	x1, [x19, #8]
   8ad58:	52800022 	mov	w2, #0x1                   	// #1
   8ad5c:	b9408820 	ldr	w0, [x1, #136]
   8ad60:	0a340014 	bic	w20, w0, w20
   8ad64:	b9008834 	str	w20, [x1, #136]
   8ad68:	f9400660 	ldr	x0, [x19, #8]
   8ad6c:	39023002 	strb	w2, [x0, #140]
   8ad70:	b5000376 	cbnz	x22, 8addc <xTaskNotifyWait+0xcc>
   8ad74:	97fff963 	bl	89300 <vPortExitCritical>
   8ad78:	97fff956 	bl	892d0 <vPortEnterCritical>
   8ad7c:	b4000097 	cbz	x23, 8ad8c <xTaskNotifyWait+0x7c>
   8ad80:	f9400660 	ldr	x0, [x19, #8]
   8ad84:	b9408800 	ldr	w0, [x0, #136]
   8ad88:	b90002e0 	str	w0, [x23]
   8ad8c:	f9400660 	ldr	x0, [x19, #8]
   8ad90:	d2800014 	mov	x20, #0x0                   	// #0
   8ad94:	39423001 	ldrb	w1, [x0, #140]
   8ad98:	12001c21 	and	w1, w1, #0xff
   8ad9c:	7100083f 	cmp	w1, #0x2
   8ada0:	540000c1 	b.ne	8adb8 <xTaskNotifyWait+0xa8>  // b.any
   8ada4:	f9400660 	ldr	x0, [x19, #8]
   8ada8:	d2800034 	mov	x20, #0x1                   	// #1
   8adac:	b9408801 	ldr	w1, [x0, #136]
   8adb0:	0a350035 	bic	w21, w1, w21
   8adb4:	b9008815 	str	w21, [x0, #136]
   8adb8:	f9400660 	ldr	x0, [x19, #8]
   8adbc:	3902301f 	strb	wzr, [x0, #140]
   8adc0:	97fff950 	bl	89300 <vPortExitCritical>
   8adc4:	aa1403e0 	mov	x0, x20
   8adc8:	a94153f3 	ldp	x19, x20, [sp, #16]
   8adcc:	a9425bf5 	ldp	x21, x22, [sp, #32]
   8add0:	f9401bf7 	ldr	x23, [sp, #48]
   8add4:	a8c47bfd 	ldp	x29, x30, [sp], #64
   8add8:	d65f03c0 	ret
   8addc:	aa1603e0 	mov	x0, x22
   8ade0:	97fffb5c 	bl	89b50 <prvAddCurrentTaskToDelayedList.constprop.0>
   8ade4:	d4000001 	svc	#0x0
   8ade8:	17ffffe3 	b	8ad74 <xTaskNotifyWait+0x64>
   8adec:	d503201f 	nop

000000000008adf0 <xTaskGenericNotify>:
   8adf0:	a9bd7bfd 	stp	x29, x30, [sp, #-48]!
   8adf4:	910003fd 	mov	x29, sp
   8adf8:	a90153f3 	stp	x19, x20, [sp, #16]
   8adfc:	aa0003f3 	mov	x19, x0
   8ae00:	2a0203f4 	mov	w20, w2
   8ae04:	a9025bf5 	stp	x21, x22, [sp, #32]
   8ae08:	aa0303f5 	mov	x21, x3
   8ae0c:	2a0103f6 	mov	w22, w1
   8ae10:	97fff930 	bl	892d0 <vPortEnterCritical>
   8ae14:	b4000075 	cbz	x21, 8ae20 <xTaskGenericNotify+0x30>
   8ae18:	b9408a60 	ldr	w0, [x19, #136]
   8ae1c:	b90002a0 	str	w0, [x21]
   8ae20:	39423262 	ldrb	w2, [x19, #140]
   8ae24:	52800040 	mov	w0, #0x2                   	// #2
   8ae28:	39023260 	strb	w0, [x19, #140]
   8ae2c:	71000e9f 	cmp	w20, #0x3
   8ae30:	12001c42 	and	w2, w2, #0xff
   8ae34:	540002e0 	b.eq	8ae90 <xTaskGenericNotify+0xa0>  // b.none
   8ae38:	54000228 	b.hi	8ae7c <xTaskGenericNotify+0x8c>  // b.pmore
   8ae3c:	7100069f 	cmp	w20, #0x1
   8ae40:	540005a0 	b.eq	8aef4 <xTaskGenericNotify+0x104>  // b.none
   8ae44:	71000a9f 	cmp	w20, #0x2
   8ae48:	54000081 	b.ne	8ae58 <xTaskGenericNotify+0x68>  // b.any
   8ae4c:	b9408a60 	ldr	w0, [x19, #136]
   8ae50:	11000400 	add	w0, w0, #0x1
   8ae54:	b9008a60 	str	w0, [x19, #136]
   8ae58:	7100045f 	cmp	w2, #0x1
   8ae5c:	54000200 	b.eq	8ae9c <xTaskGenericNotify+0xac>  // b.none
   8ae60:	d2800034 	mov	x20, #0x1                   	// #1
   8ae64:	97fff927 	bl	89300 <vPortExitCritical>
   8ae68:	aa1403e0 	mov	x0, x20
   8ae6c:	a94153f3 	ldp	x19, x20, [sp, #16]
   8ae70:	a9425bf5 	ldp	x21, x22, [sp, #32]
   8ae74:	a8c37bfd 	ldp	x29, x30, [sp], #48
   8ae78:	d65f03c0 	ret
   8ae7c:	7100129f 	cmp	w20, #0x4
   8ae80:	54fffec1 	b.ne	8ae58 <xTaskGenericNotify+0x68>  // b.any
   8ae84:	7100085f 	cmp	w2, #0x2
   8ae88:	d2800014 	mov	x20, #0x0                   	// #0
   8ae8c:	54fffec0 	b.eq	8ae64 <xTaskGenericNotify+0x74>  // b.none
   8ae90:	b9008a76 	str	w22, [x19, #136]
   8ae94:	7100045f 	cmp	w2, #0x1
   8ae98:	54fffe41 	b.ne	8ae60 <xTaskGenericNotify+0x70>  // b.any
   8ae9c:	b0000034 	adrp	x20, 8f000 <g_msg+0x18>
   8aea0:	9133c294 	add	x20, x20, #0xcf0
   8aea4:	91002275 	add	x21, x19, #0x8
   8aea8:	aa1503e0 	mov	x0, x21
   8aeac:	97fffb15 	bl	89b00 <uxListRemove>
   8aeb0:	f9411680 	ldr	x0, [x20, #552]
   8aeb4:	f9402e62 	ldr	x2, [x19, #88]
   8aeb8:	eb00005f 	cmp	x2, x0
   8aebc:	54000049 	b.ls	8aec4 <xTaskGenericNotify+0xd4>  // b.plast
   8aec0:	f9011682 	str	x2, [x20, #552]
   8aec4:	91018280 	add	x0, x20, #0x60
   8aec8:	d2800503 	mov	x3, #0x28                  	// #40
   8aecc:	aa1503e1 	mov	x1, x21
   8aed0:	9b030040 	madd	x0, x2, x3, x0
   8aed4:	97fffae7 	bl	89a70 <vListInsertEnd>
   8aed8:	f9400680 	ldr	x0, [x20, #8]
   8aedc:	f9402e61 	ldr	x1, [x19, #88]
   8aee0:	f9402c00 	ldr	x0, [x0, #88]
   8aee4:	eb00003f 	cmp	x1, x0
   8aee8:	54fffbc9 	b.ls	8ae60 <xTaskGenericNotify+0x70>  // b.plast
   8aeec:	d4000001 	svc	#0x0
   8aef0:	17ffffdc 	b	8ae60 <xTaskGenericNotify+0x70>
   8aef4:	b9408a61 	ldr	w1, [x19, #136]
   8aef8:	7100045f 	cmp	w2, #0x1
   8aefc:	2a160021 	orr	w1, w1, w22
   8af00:	b9008a61 	str	w1, [x19, #136]
   8af04:	54fffae1 	b.ne	8ae60 <xTaskGenericNotify+0x70>  // b.any
   8af08:	17ffffe5 	b	8ae9c <xTaskGenericNotify+0xac>
   8af0c:	d503201f 	nop

000000000008af10 <xTaskGenericNotifyFromISR>:
   8af10:	a9bd7bfd 	stp	x29, x30, [sp, #-48]!
   8af14:	910003fd 	mov	x29, sp
   8af18:	a90153f3 	stp	x19, x20, [sp, #16]
   8af1c:	aa0003f3 	mov	x19, x0
   8af20:	a9025bf5 	stp	x21, x22, [sp, #32]
   8af24:	aa0403f5 	mov	x21, x4
   8af28:	b4000063 	cbz	x3, 8af34 <xTaskGenericNotifyFromISR+0x24>
   8af2c:	b9408800 	ldr	w0, [x0, #136]
   8af30:	b9000060 	str	w0, [x3]
   8af34:	39423263 	ldrb	w3, [x19, #140]
   8af38:	52800040 	mov	w0, #0x2                   	// #2
   8af3c:	39023260 	strb	w0, [x19, #140]
   8af40:	71000c5f 	cmp	w2, #0x3
   8af44:	12001c63 	and	w3, w3, #0xff
   8af48:	540002a0 	b.eq	8af9c <xTaskGenericNotifyFromISR+0x8c>  // b.none
   8af4c:	540001e8 	b.hi	8af88 <xTaskGenericNotifyFromISR+0x78>  // b.pmore
   8af50:	7100045f 	cmp	w2, #0x1
   8af54:	54000520 	b.eq	8aff8 <xTaskGenericNotifyFromISR+0xe8>  // b.none
   8af58:	7100085f 	cmp	w2, #0x2
   8af5c:	54000081 	b.ne	8af6c <xTaskGenericNotifyFromISR+0x5c>  // b.any
   8af60:	b9408a60 	ldr	w0, [x19, #136]
   8af64:	11000400 	add	w0, w0, #0x1
   8af68:	b9008a60 	str	w0, [x19, #136]
   8af6c:	7100047f 	cmp	w3, #0x1
   8af70:	540001c0 	b.eq	8afa8 <xTaskGenericNotifyFromISR+0x98>  // b.none
   8af74:	d2800020 	mov	x0, #0x1                   	// #1
   8af78:	a94153f3 	ldp	x19, x20, [sp, #16]
   8af7c:	a9425bf5 	ldp	x21, x22, [sp, #32]
   8af80:	a8c37bfd 	ldp	x29, x30, [sp], #48
   8af84:	d65f03c0 	ret
   8af88:	7100105f 	cmp	w2, #0x4
   8af8c:	54ffff01 	b.ne	8af6c <xTaskGenericNotifyFromISR+0x5c>  // b.any
   8af90:	7100087f 	cmp	w3, #0x2
   8af94:	d2800000 	mov	x0, #0x0                   	// #0
   8af98:	54ffff00 	b.eq	8af78 <xTaskGenericNotifyFromISR+0x68>  // b.none
   8af9c:	b9008a61 	str	w1, [x19, #136]
   8afa0:	7100047f 	cmp	w3, #0x1
   8afa4:	54fffe81 	b.ne	8af74 <xTaskGenericNotifyFromISR+0x64>  // b.any
   8afa8:	b0000034 	adrp	x20, 8f000 <g_msg+0x18>
   8afac:	9133c294 	add	x20, x20, #0xcf0
   8afb0:	f9411e80 	ldr	x0, [x20, #568]
   8afb4:	b40002e0 	cbz	x0, 8b010 <xTaskGenericNotifyFromISR+0x100>
   8afb8:	9100c261 	add	x1, x19, #0x30
   8afbc:	9107c280 	add	x0, x20, #0x1f0
   8afc0:	97fffaac 	bl	89a70 <vListInsertEnd>
   8afc4:	f9400680 	ldr	x0, [x20, #8]
   8afc8:	f9402e61 	ldr	x1, [x19, #88]
   8afcc:	f9402c00 	ldr	x0, [x0, #88]
   8afd0:	eb00003f 	cmp	x1, x0
   8afd4:	54fffd09 	b.ls	8af74 <xTaskGenericNotifyFromISR+0x64>  // b.plast
   8afd8:	d2800021 	mov	x1, #0x1                   	// #1
   8afdc:	aa0103e0 	mov	x0, x1
   8afe0:	b4000355 	cbz	x21, 8b048 <xTaskGenericNotifyFromISR+0x138>
   8afe4:	f90002a1 	str	x1, [x21]
   8afe8:	a94153f3 	ldp	x19, x20, [sp, #16]
   8afec:	a9425bf5 	ldp	x21, x22, [sp, #32]
   8aff0:	a8c37bfd 	ldp	x29, x30, [sp], #48
   8aff4:	d65f03c0 	ret
   8aff8:	b9408a60 	ldr	w0, [x19, #136]
   8affc:	7100047f 	cmp	w3, #0x1
   8b000:	2a010001 	orr	w1, w0, w1
   8b004:	b9008a61 	str	w1, [x19, #136]
   8b008:	54fffb61 	b.ne	8af74 <xTaskGenericNotifyFromISR+0x64>  // b.any
   8b00c:	17ffffe7 	b	8afa8 <xTaskGenericNotifyFromISR+0x98>
   8b010:	91002276 	add	x22, x19, #0x8
   8b014:	aa1603e0 	mov	x0, x22
   8b018:	97fffaba 	bl	89b00 <uxListRemove>
   8b01c:	f9411680 	ldr	x0, [x20, #552]
   8b020:	f9402e62 	ldr	x2, [x19, #88]
   8b024:	eb00005f 	cmp	x2, x0
   8b028:	54000049 	b.ls	8b030 <xTaskGenericNotifyFromISR+0x120>  // b.plast
   8b02c:	f9011682 	str	x2, [x20, #552]
   8b030:	91018280 	add	x0, x20, #0x60
   8b034:	d2800503 	mov	x3, #0x28                  	// #40
   8b038:	aa1603e1 	mov	x1, x22
   8b03c:	9b030040 	madd	x0, x2, x3, x0
   8b040:	97fffa8c 	bl	89a70 <vListInsertEnd>
   8b044:	17ffffe0 	b	8afc4 <xTaskGenericNotifyFromISR+0xb4>
   8b048:	f9012a81 	str	x1, [x20, #592]
   8b04c:	17ffffcb 	b	8af78 <xTaskGenericNotifyFromISR+0x68>

000000000008b050 <vTaskNotifyGiveFromISR>:
   8b050:	a9bd7bfd 	stp	x29, x30, [sp, #-48]!
   8b054:	52800043 	mov	w3, #0x2                   	// #2
   8b058:	910003fd 	mov	x29, sp
   8b05c:	a90153f3 	stp	x19, x20, [sp, #16]
   8b060:	aa0003f3 	mov	x19, x0
   8b064:	39423002 	ldrb	w2, [x0, #140]
   8b068:	39023003 	strb	w3, [x0, #140]
   8b06c:	12001c42 	and	w2, w2, #0xff
   8b070:	b9408800 	ldr	w0, [x0, #136]
   8b074:	7100045f 	cmp	w2, #0x1
   8b078:	11000400 	add	w0, w0, #0x1
   8b07c:	b9008a60 	str	w0, [x19, #136]
   8b080:	54000080 	b.eq	8b090 <vTaskNotifyGiveFromISR+0x40>  // b.none
   8b084:	a94153f3 	ldp	x19, x20, [sp, #16]
   8b088:	a8c37bfd 	ldp	x29, x30, [sp], #48
   8b08c:	d65f03c0 	ret
   8b090:	a9025bf5 	stp	x21, x22, [sp, #32]
   8b094:	90000035 	adrp	x21, 8f000 <g_msg+0x18>
   8b098:	9133c2b5 	add	x21, x21, #0xcf0
   8b09c:	aa0103f4 	mov	x20, x1
   8b0a0:	f9411ea0 	ldr	x0, [x21, #568]
   8b0a4:	b4000200 	cbz	x0, 8b0e4 <vTaskNotifyGiveFromISR+0x94>
   8b0a8:	9100c261 	add	x1, x19, #0x30
   8b0ac:	9107c2a0 	add	x0, x21, #0x1f0
   8b0b0:	97fffa70 	bl	89a70 <vListInsertEnd>
   8b0b4:	f94006a0 	ldr	x0, [x21, #8]
   8b0b8:	f9402e61 	ldr	x1, [x19, #88]
   8b0bc:	f9402c00 	ldr	x0, [x0, #88]
   8b0c0:	eb00003f 	cmp	x1, x0
   8b0c4:	54000349 	b.ls	8b12c <vTaskNotifyGiveFromISR+0xdc>  // b.plast
   8b0c8:	d2800020 	mov	x0, #0x1                   	// #1
   8b0cc:	b4000394 	cbz	x20, 8b13c <vTaskNotifyGiveFromISR+0xec>
   8b0d0:	a9425bf5 	ldp	x21, x22, [sp, #32]
   8b0d4:	f9000280 	str	x0, [x20]
   8b0d8:	a94153f3 	ldp	x19, x20, [sp, #16]
   8b0dc:	a8c37bfd 	ldp	x29, x30, [sp], #48
   8b0e0:	d65f03c0 	ret
   8b0e4:	91002276 	add	x22, x19, #0x8
   8b0e8:	aa1603e0 	mov	x0, x22
   8b0ec:	97fffa85 	bl	89b00 <uxListRemove>
   8b0f0:	f94116a0 	ldr	x0, [x21, #552]
   8b0f4:	f9402e62 	ldr	x2, [x19, #88]
   8b0f8:	eb00005f 	cmp	x2, x0
   8b0fc:	54000049 	b.ls	8b104 <vTaskNotifyGiveFromISR+0xb4>  // b.plast
   8b100:	f90116a2 	str	x2, [x21, #552]
   8b104:	910182a0 	add	x0, x21, #0x60
   8b108:	d2800503 	mov	x3, #0x28                  	// #40
   8b10c:	aa1603e1 	mov	x1, x22
   8b110:	9b030040 	madd	x0, x2, x3, x0
   8b114:	97fffa57 	bl	89a70 <vListInsertEnd>
   8b118:	f94006a0 	ldr	x0, [x21, #8]
   8b11c:	f9402e61 	ldr	x1, [x19, #88]
   8b120:	f9402c00 	ldr	x0, [x0, #88]
   8b124:	eb00003f 	cmp	x1, x0
   8b128:	54fffd08 	b.hi	8b0c8 <vTaskNotifyGiveFromISR+0x78>  // b.pmore
   8b12c:	a94153f3 	ldp	x19, x20, [sp, #16]
   8b130:	a9425bf5 	ldp	x21, x22, [sp, #32]
   8b134:	a8c37bfd 	ldp	x29, x30, [sp], #48
   8b138:	d65f03c0 	ret
   8b13c:	f9012aa0 	str	x0, [x21, #592]
   8b140:	a9425bf5 	ldp	x21, x22, [sp, #32]
   8b144:	17ffffd0 	b	8b084 <vTaskNotifyGiveFromISR+0x34>
   8b148:	d503201f 	nop
   8b14c:	d503201f 	nop

000000000008b150 <xTaskNotifyStateClear>:
   8b150:	a9be7bfd 	stp	x29, x30, [sp, #-32]!
   8b154:	910003fd 	mov	x29, sp
   8b158:	a90153f3 	stp	x19, x20, [sp, #16]
   8b15c:	aa0003f3 	mov	x19, x0
   8b160:	b40001c0 	cbz	x0, 8b198 <xTaskNotifyStateClear+0x48>
   8b164:	97fff85b 	bl	892d0 <vPortEnterCritical>
   8b168:	d2800014 	mov	x20, #0x0                   	// #0
   8b16c:	39423261 	ldrb	w1, [x19, #140]
   8b170:	12001c21 	and	w1, w1, #0xff
   8b174:	7100083f 	cmp	w1, #0x2
   8b178:	54000061 	b.ne	8b184 <xTaskNotifyStateClear+0x34>  // b.any
   8b17c:	d2800034 	mov	x20, #0x1                   	// #1
   8b180:	3902327f 	strb	wzr, [x19, #140]
   8b184:	97fff85f 	bl	89300 <vPortExitCritical>
   8b188:	aa1403e0 	mov	x0, x20
   8b18c:	a94153f3 	ldp	x19, x20, [sp, #16]
   8b190:	a8c27bfd 	ldp	x29, x30, [sp], #32
   8b194:	d65f03c0 	ret
   8b198:	90000020 	adrp	x0, 8f000 <g_msg+0x18>
   8b19c:	9133c000 	add	x0, x0, #0xcf0
   8b1a0:	f9400413 	ldr	x19, [x0, #8]
   8b1a4:	17fffff0 	b	8b164 <xTaskNotifyStateClear+0x14>
	...

000000000008b1b0 <prvCopyDataToQueue>:
   8b1b0:	a9bd7bfd 	stp	x29, x30, [sp, #-48]!
   8b1b4:	910003fd 	mov	x29, sp
   8b1b8:	a90153f3 	stp	x19, x20, [sp, #16]
   8b1bc:	aa0003f3 	mov	x19, x0
   8b1c0:	f9403814 	ldr	x20, [x0, #112]
   8b1c4:	f90013f5 	str	x21, [sp, #32]
   8b1c8:	aa0203f5 	mov	x21, x2
   8b1cc:	f9404002 	ldr	x2, [x0, #128]
   8b1d0:	b5000142 	cbnz	x2, 8b1f8 <prvCopyDataToQueue+0x48>
   8b1d4:	f9400261 	ldr	x1, [x19]
   8b1d8:	91000694 	add	x20, x20, #0x1
   8b1dc:	d2800000 	mov	x0, #0x0                   	// #0
   8b1e0:	b40005c1 	cbz	x1, 8b298 <prvCopyDataToQueue+0xe8>
   8b1e4:	f94013f5 	ldr	x21, [sp, #32]
   8b1e8:	f9003a74 	str	x20, [x19, #112]
   8b1ec:	a94153f3 	ldp	x19, x20, [sp, #16]
   8b1f0:	a8c37bfd 	ldp	x29, x30, [sp], #48
   8b1f4:	d65f03c0 	ret
   8b1f8:	b5000255 	cbnz	x21, 8b240 <prvCopyDataToQueue+0x90>
   8b1fc:	f9400800 	ldr	x0, [x0, #16]
   8b200:	91000694 	add	x20, x20, #0x1
   8b204:	97fff85b 	bl	89370 <memcpy>
   8b208:	a9408662 	ldp	x2, x1, [x19, #8]
   8b20c:	d2800000 	mov	x0, #0x0                   	// #0
   8b210:	f9404263 	ldr	x3, [x19, #128]
   8b214:	8b030021 	add	x1, x1, x3
   8b218:	f9000a61 	str	x1, [x19, #16]
   8b21c:	eb02003f 	cmp	x1, x2
   8b220:	54fffe23 	b.cc	8b1e4 <prvCopyDataToQueue+0x34>  // b.lo, b.ul, b.last
   8b224:	f9400261 	ldr	x1, [x19]
   8b228:	f9000a61 	str	x1, [x19, #16]
   8b22c:	f94013f5 	ldr	x21, [sp, #32]
   8b230:	f9003a74 	str	x20, [x19, #112]
   8b234:	a94153f3 	ldp	x19, x20, [sp, #16]
   8b238:	a8c37bfd 	ldp	x29, x30, [sp], #48
   8b23c:	d65f03c0 	ret
   8b240:	f9400c00 	ldr	x0, [x0, #24]
   8b244:	97fff84b 	bl	89370 <memcpy>
   8b248:	f9400e60 	ldr	x0, [x19, #24]
   8b24c:	f9404261 	ldr	x1, [x19, #128]
   8b250:	f9400262 	ldr	x2, [x19]
   8b254:	cb010000 	sub	x0, x0, x1
   8b258:	f9000e60 	str	x0, [x19, #24]
   8b25c:	cb0103e1 	neg	x1, x1
   8b260:	eb02001f 	cmp	x0, x2
   8b264:	54000082 	b.cs	8b274 <prvCopyDataToQueue+0xc4>  // b.hs, b.nlast
   8b268:	f9400660 	ldr	x0, [x19, #8]
   8b26c:	8b010001 	add	x1, x0, x1
   8b270:	f9000e61 	str	x1, [x19, #24]
   8b274:	f1000abf 	cmp	x21, #0x2
   8b278:	54000180 	b.eq	8b2a8 <prvCopyDataToQueue+0xf8>  // b.none
   8b27c:	91000694 	add	x20, x20, #0x1
   8b280:	d2800000 	mov	x0, #0x0                   	// #0
   8b284:	f94013f5 	ldr	x21, [sp, #32]
   8b288:	f9003a74 	str	x20, [x19, #112]
   8b28c:	a94153f3 	ldp	x19, x20, [sp, #16]
   8b290:	a8c37bfd 	ldp	x29, x30, [sp], #48
   8b294:	d65f03c0 	ret
   8b298:	f9400660 	ldr	x0, [x19, #8]
   8b29c:	97fffdf9 	bl	8aa80 <xTaskPriorityDisinherit>
   8b2a0:	f900067f 	str	xzr, [x19, #8]
   8b2a4:	17ffffd0 	b	8b1e4 <prvCopyDataToQueue+0x34>
   8b2a8:	f100029f 	cmp	x20, #0x0
   8b2ac:	d2800000 	mov	x0, #0x0                   	// #0
   8b2b0:	9a9f1694 	csinc	x20, x20, xzr, ne  // ne = any
   8b2b4:	17ffffcc 	b	8b1e4 <prvCopyDataToQueue+0x34>
   8b2b8:	d503201f 	nop
   8b2bc:	d503201f 	nop

000000000008b2c0 <prvUnlockQueue>:
   8b2c0:	a9bd7bfd 	stp	x29, x30, [sp, #-48]!
   8b2c4:	910003fd 	mov	x29, sp
   8b2c8:	a90153f3 	stp	x19, x20, [sp, #16]
   8b2cc:	aa0003f4 	mov	x20, x0
   8b2d0:	f90013f5 	str	x21, [sp, #32]
   8b2d4:	97fff7ff 	bl	892d0 <vPortEnterCritical>
   8b2d8:	39422681 	ldrb	w1, [x20, #137]
   8b2dc:	13001c33 	sxtb	w19, w1
   8b2e0:	7100027f 	cmp	w19, #0x0
   8b2e4:	5400022d 	b.le	8b328 <prvUnlockQueue+0x68>
   8b2e8:	91012295 	add	x21, x20, #0x48
   8b2ec:	14000005 	b	8b300 <prvUnlockQueue+0x40>
   8b2f0:	51000661 	sub	w1, w19, #0x1
   8b2f4:	72001c3f 	tst	w1, #0xff
   8b2f8:	13001c33 	sxtb	w19, w1
   8b2fc:	54000160 	b.eq	8b328 <prvUnlockQueue+0x68>  // b.none
   8b300:	f9402681 	ldr	x1, [x20, #72]
   8b304:	aa1503e0 	mov	x0, x21
   8b308:	b4000101 	cbz	x1, 8b328 <prvUnlockQueue+0x68>
   8b30c:	97fffcf1 	bl	8a6d0 <xTaskRemoveFromEventList>
   8b310:	b4ffff00 	cbz	x0, 8b2f0 <prvUnlockQueue+0x30>
   8b314:	97fffd83 	bl	8a920 <vTaskMissedYield>
   8b318:	51000661 	sub	w1, w19, #0x1
   8b31c:	72001c3f 	tst	w1, #0xff
   8b320:	13001c33 	sxtb	w19, w1
   8b324:	54fffee1 	b.ne	8b300 <prvUnlockQueue+0x40>  // b.any
   8b328:	12800000 	mov	w0, #0xffffffff            	// #-1
   8b32c:	39022680 	strb	w0, [x20, #137]
   8b330:	97fff7f4 	bl	89300 <vPortExitCritical>
   8b334:	97fff7e7 	bl	892d0 <vPortEnterCritical>
   8b338:	39422281 	ldrb	w1, [x20, #136]
   8b33c:	13001c33 	sxtb	w19, w1
   8b340:	7100027f 	cmp	w19, #0x0
   8b344:	5400022d 	b.le	8b388 <prvUnlockQueue+0xc8>
   8b348:	91008295 	add	x21, x20, #0x20
   8b34c:	14000005 	b	8b360 <prvUnlockQueue+0xa0>
   8b350:	51000661 	sub	w1, w19, #0x1
   8b354:	72001c3f 	tst	w1, #0xff
   8b358:	13001c33 	sxtb	w19, w1
   8b35c:	54000160 	b.eq	8b388 <prvUnlockQueue+0xc8>  // b.none
   8b360:	f9401281 	ldr	x1, [x20, #32]
   8b364:	aa1503e0 	mov	x0, x21
   8b368:	b4000101 	cbz	x1, 8b388 <prvUnlockQueue+0xc8>
   8b36c:	97fffcd9 	bl	8a6d0 <xTaskRemoveFromEventList>
   8b370:	b4ffff00 	cbz	x0, 8b350 <prvUnlockQueue+0x90>
   8b374:	97fffd6b 	bl	8a920 <vTaskMissedYield>
   8b378:	51000661 	sub	w1, w19, #0x1
   8b37c:	72001c3f 	tst	w1, #0xff
   8b380:	13001c33 	sxtb	w19, w1
   8b384:	54fffee1 	b.ne	8b360 <prvUnlockQueue+0xa0>  // b.any
   8b388:	12800000 	mov	w0, #0xffffffff            	// #-1
   8b38c:	39022280 	strb	w0, [x20, #136]
   8b390:	a94153f3 	ldp	x19, x20, [sp, #16]
   8b394:	f94013f5 	ldr	x21, [sp, #32]
   8b398:	a8c37bfd 	ldp	x29, x30, [sp], #48
   8b39c:	17fff7d9 	b	89300 <vPortExitCritical>

000000000008b3a0 <xQueueGenericReset>:
   8b3a0:	a9be7bfd 	stp	x29, x30, [sp, #-32]!
   8b3a4:	910003fd 	mov	x29, sp
   8b3a8:	a90153f3 	stp	x19, x20, [sp, #16]
   8b3ac:	aa0003f3 	mov	x19, x0
   8b3b0:	aa0103f4 	mov	x20, x1
   8b3b4:	97fff7c7 	bl	892d0 <vPortEnterCritical>
   8b3b8:	a9478e60 	ldp	x0, x3, [x19, #120]
   8b3bc:	f9003a7f 	str	xzr, [x19, #112]
   8b3c0:	f9400262 	ldr	x2, [x19]
   8b3c4:	12800004 	mov	w4, #0xffffffff            	// #-1
   8b3c8:	39022264 	strb	w4, [x19, #136]
   8b3cc:	39022664 	strb	w4, [x19, #137]
   8b3d0:	d1000401 	sub	x1, x0, #0x1
   8b3d4:	9b030800 	madd	x0, x0, x3, x2
   8b3d8:	a9008a60 	stp	x0, x2, [x19, #8]
   8b3dc:	9b030821 	madd	x1, x1, x3, x2
   8b3e0:	f9000e61 	str	x1, [x19, #24]
   8b3e4:	b5000234 	cbnz	x20, 8b428 <xQueueGenericReset+0x88>
   8b3e8:	f9401260 	ldr	x0, [x19, #32]
   8b3ec:	b50000c0 	cbnz	x0, 8b404 <xQueueGenericReset+0x64>
   8b3f0:	97fff7c4 	bl	89300 <vPortExitCritical>
   8b3f4:	d2800020 	mov	x0, #0x1                   	// #1
   8b3f8:	a94153f3 	ldp	x19, x20, [sp, #16]
   8b3fc:	a8c27bfd 	ldp	x29, x30, [sp], #32
   8b400:	d65f03c0 	ret
   8b404:	91008260 	add	x0, x19, #0x20
   8b408:	97fffcb2 	bl	8a6d0 <xTaskRemoveFromEventList>
   8b40c:	b4ffff20 	cbz	x0, 8b3f0 <xQueueGenericReset+0x50>
   8b410:	d4000001 	svc	#0x0
   8b414:	97fff7bb 	bl	89300 <vPortExitCritical>
   8b418:	d2800020 	mov	x0, #0x1                   	// #1
   8b41c:	a94153f3 	ldp	x19, x20, [sp, #16]
   8b420:	a8c27bfd 	ldp	x29, x30, [sp], #32
   8b424:	d65f03c0 	ret
   8b428:	91008260 	add	x0, x19, #0x20
   8b42c:	97fff985 	bl	89a40 <vListInitialise>
   8b430:	91012260 	add	x0, x19, #0x48
   8b434:	97fff983 	bl	89a40 <vListInitialise>
   8b438:	97fff7b2 	bl	89300 <vPortExitCritical>
   8b43c:	d2800020 	mov	x0, #0x1                   	// #1
   8b440:	a94153f3 	ldp	x19, x20, [sp, #16]
   8b444:	a8c27bfd 	ldp	x29, x30, [sp], #32
   8b448:	d65f03c0 	ret
   8b44c:	d503201f 	nop

000000000008b450 <xQueueGenericCreate>:
   8b450:	a9bd7bfd 	stp	x29, x30, [sp, #-48]!
   8b454:	910003fd 	mov	x29, sp
   8b458:	a90153f3 	stp	x19, x20, [sp, #16]
   8b45c:	aa0103f4 	mov	x20, x1
   8b460:	f90013f5 	str	x21, [sp, #32]
   8b464:	aa0003f5 	mov	x21, x0
   8b468:	b4000121 	cbz	x1, 8b48c <xQueueGenericCreate+0x3c>
   8b46c:	9b007c20 	mul	x0, x1, x0
   8b470:	91024000 	add	x0, x0, #0x90
   8b474:	940004d7 	bl	8c7d0 <pvPortMalloc>
   8b478:	aa0003f3 	mov	x19, x0
   8b47c:	b4000400 	cbz	x0, 8b4fc <xQueueGenericCreate+0xac>
   8b480:	91024000 	add	x0, x0, #0x90
   8b484:	f9000260 	str	x0, [x19]
   8b488:	14000006 	b	8b4a0 <xQueueGenericCreate+0x50>
   8b48c:	d2801200 	mov	x0, #0x90                  	// #144
   8b490:	940004d0 	bl	8c7d0 <pvPortMalloc>
   8b494:	aa0003f3 	mov	x19, x0
   8b498:	b4000320 	cbz	x0, 8b4fc <xQueueGenericCreate+0xac>
   8b49c:	f9000273 	str	x19, [x19]
   8b4a0:	a907d275 	stp	x21, x20, [x19, #120]
   8b4a4:	97fff78b 	bl	892d0 <vPortEnterCritical>
   8b4a8:	f9003a7f 	str	xzr, [x19, #112]
   8b4ac:	a9479261 	ldp	x1, x4, [x19, #120]
   8b4b0:	12800005 	mov	w5, #0xffffffff            	// #-1
   8b4b4:	f9400263 	ldr	x3, [x19]
   8b4b8:	39022265 	strb	w5, [x19, #136]
   8b4bc:	39022665 	strb	w5, [x19, #137]
   8b4c0:	91008260 	add	x0, x19, #0x20
   8b4c4:	d1000422 	sub	x2, x1, #0x1
   8b4c8:	9b040c21 	madd	x1, x1, x4, x3
   8b4cc:	a9008e61 	stp	x1, x3, [x19, #8]
   8b4d0:	9b040c42 	madd	x2, x2, x4, x3
   8b4d4:	f9000e62 	str	x2, [x19, #24]
   8b4d8:	97fff95a 	bl	89a40 <vListInitialise>
   8b4dc:	91012260 	add	x0, x19, #0x48
   8b4e0:	97fff958 	bl	89a40 <vListInitialise>
   8b4e4:	97fff787 	bl	89300 <vPortExitCritical>
   8b4e8:	aa1303e0 	mov	x0, x19
   8b4ec:	a94153f3 	ldp	x19, x20, [sp, #16]
   8b4f0:	f94013f5 	ldr	x21, [sp, #32]
   8b4f4:	a8c37bfd 	ldp	x29, x30, [sp], #48
   8b4f8:	d65f03c0 	ret
   8b4fc:	d2800013 	mov	x19, #0x0                   	// #0
   8b500:	aa1303e0 	mov	x0, x19
   8b504:	a94153f3 	ldp	x19, x20, [sp, #16]
   8b508:	f94013f5 	ldr	x21, [sp, #32]
   8b50c:	a8c37bfd 	ldp	x29, x30, [sp], #48
   8b510:	d65f03c0 	ret
   8b514:	d503201f 	nop
   8b518:	d503201f 	nop
   8b51c:	d503201f 	nop

000000000008b520 <xQueueGetMutexHolder>:
   8b520:	a9be7bfd 	stp	x29, x30, [sp, #-32]!
   8b524:	910003fd 	mov	x29, sp
   8b528:	f9000bf3 	str	x19, [sp, #16]
   8b52c:	aa0003f3 	mov	x19, x0
   8b530:	97fff768 	bl	892d0 <vPortEnterCritical>
   8b534:	f9400260 	ldr	x0, [x19]
   8b538:	b50000e0 	cbnz	x0, 8b554 <xQueueGetMutexHolder+0x34>
   8b53c:	f9400673 	ldr	x19, [x19, #8]
   8b540:	97fff770 	bl	89300 <vPortExitCritical>
   8b544:	aa1303e0 	mov	x0, x19
   8b548:	f9400bf3 	ldr	x19, [sp, #16]
   8b54c:	a8c27bfd 	ldp	x29, x30, [sp], #32
   8b550:	d65f03c0 	ret
   8b554:	97fff76b 	bl	89300 <vPortExitCritical>
   8b558:	d2800013 	mov	x19, #0x0                   	// #0
   8b55c:	aa1303e0 	mov	x0, x19
   8b560:	f9400bf3 	ldr	x19, [sp, #16]
   8b564:	a8c27bfd 	ldp	x29, x30, [sp], #32
   8b568:	d65f03c0 	ret
   8b56c:	d503201f 	nop

000000000008b570 <xQueueGetMutexHolderFromISR>:
   8b570:	f9400001 	ldr	x1, [x0]
   8b574:	b5000061 	cbnz	x1, 8b580 <xQueueGetMutexHolderFromISR+0x10>
   8b578:	f9400400 	ldr	x0, [x0, #8]
   8b57c:	d65f03c0 	ret
   8b580:	d2800000 	mov	x0, #0x0                   	// #0
   8b584:	d65f03c0 	ret
   8b588:	d503201f 	nop
   8b58c:	d503201f 	nop

000000000008b590 <xQueueGenericSend>:
   8b590:	a9ba7bfd 	stp	x29, x30, [sp, #-96]!
   8b594:	f100087f 	cmp	x3, #0x2
   8b598:	910003fd 	mov	x29, sp
   8b59c:	a90153f3 	stp	x19, x20, [sp, #16]
   8b5a0:	aa0003f3 	mov	x19, x0
   8b5a4:	1a9f17f4 	cset	w20, eq  // eq = none
   8b5a8:	a9025bf5 	stp	x21, x22, [sp, #32]
   8b5ac:	91008016 	add	x22, x0, #0x20
   8b5b0:	aa0303f5 	mov	x21, x3
   8b5b4:	a90363f7 	stp	x23, x24, [sp, #48]
   8b5b8:	aa0103f7 	mov	x23, x1
   8b5bc:	d2800018 	mov	x24, #0x0                   	// #0
   8b5c0:	f90027e2 	str	x2, [sp, #72]
   8b5c4:	97fff743 	bl	892d0 <vPortEnterCritical>
   8b5c8:	f9403a61 	ldr	x1, [x19, #112]
   8b5cc:	7100029f 	cmp	w20, #0x0
   8b5d0:	f9403e60 	ldr	x0, [x19, #120]
   8b5d4:	fa400020 	ccmp	x1, x0, #0x0, eq  // eq = none
   8b5d8:	540004e3 	b.cc	8b674 <xQueueGenericSend+0xe4>  // b.lo, b.ul, b.last
   8b5dc:	d503201f 	nop
   8b5e0:	f94027e0 	ldr	x0, [sp, #72]
   8b5e4:	b40008a0 	cbz	x0, 8b6f8 <xQueueGenericSend+0x168>
   8b5e8:	b4000798 	cbz	x24, 8b6d8 <xQueueGenericSend+0x148>
   8b5ec:	97fff745 	bl	89300 <vPortExitCritical>
   8b5f0:	97fffa9c 	bl	8a060 <vTaskSuspendAll>
   8b5f4:	97fff737 	bl	892d0 <vPortEnterCritical>
   8b5f8:	39422260 	ldrb	w0, [x19, #136]
   8b5fc:	13001c00 	sxtb	w0, w0
   8b600:	3100041f 	cmn	w0, #0x1
   8b604:	54000041 	b.ne	8b60c <xQueueGenericSend+0x7c>  // b.any
   8b608:	3902227f 	strb	wzr, [x19, #136]
   8b60c:	39422660 	ldrb	w0, [x19, #137]
   8b610:	13001c00 	sxtb	w0, w0
   8b614:	3100041f 	cmn	w0, #0x1
   8b618:	54000041 	b.ne	8b620 <xQueueGenericSend+0x90>  // b.any
   8b61c:	3902267f 	strb	wzr, [x19, #137]
   8b620:	97fff738 	bl	89300 <vPortExitCritical>
   8b624:	910123e1 	add	x1, sp, #0x48
   8b628:	910143e0 	add	x0, sp, #0x50
   8b62c:	97fffc91 	bl	8a870 <xTaskCheckForTimeOut>
   8b630:	b5000720 	cbnz	x0, 8b714 <xQueueGenericSend+0x184>
   8b634:	97fff727 	bl	892d0 <vPortEnterCritical>
   8b638:	f9403a61 	ldr	x1, [x19, #112]
   8b63c:	f9403e60 	ldr	x0, [x19, #120]
   8b640:	eb00003f 	cmp	x1, x0
   8b644:	54000340 	b.eq	8b6ac <xQueueGenericSend+0x11c>  // b.none
   8b648:	97fff72e 	bl	89300 <vPortExitCritical>
   8b64c:	aa1303e0 	mov	x0, x19
   8b650:	97ffff1c 	bl	8b2c0 <prvUnlockQueue>
   8b654:	97fffb27 	bl	8a2f0 <xTaskResumeAll>
   8b658:	d2800038 	mov	x24, #0x1                   	// #1
   8b65c:	97fff71d 	bl	892d0 <vPortEnterCritical>
   8b660:	f9403a61 	ldr	x1, [x19, #112]
   8b664:	7100029f 	cmp	w20, #0x0
   8b668:	f9403e60 	ldr	x0, [x19, #120]
   8b66c:	fa400020 	ccmp	x1, x0, #0x0, eq  // eq = none
   8b670:	54fffb82 	b.cs	8b5e0 <xQueueGenericSend+0x50>  // b.hs, b.nlast
   8b674:	aa1703e1 	mov	x1, x23
   8b678:	aa1503e2 	mov	x2, x21
   8b67c:	aa1303e0 	mov	x0, x19
   8b680:	97fffecc 	bl	8b1b0 <prvCopyDataToQueue>
   8b684:	f9402661 	ldr	x1, [x19, #72]
   8b688:	b50002e1 	cbnz	x1, 8b6e4 <xQueueGenericSend+0x154>
   8b68c:	b5000320 	cbnz	x0, 8b6f0 <xQueueGenericSend+0x160>
   8b690:	97fff71c 	bl	89300 <vPortExitCritical>
   8b694:	d2800020 	mov	x0, #0x1                   	// #1
   8b698:	a94153f3 	ldp	x19, x20, [sp, #16]
   8b69c:	a9425bf5 	ldp	x21, x22, [sp, #32]
   8b6a0:	a94363f7 	ldp	x23, x24, [sp, #48]
   8b6a4:	a8c67bfd 	ldp	x29, x30, [sp], #96
   8b6a8:	d65f03c0 	ret
   8b6ac:	97fff715 	bl	89300 <vPortExitCritical>
   8b6b0:	f94027e1 	ldr	x1, [sp, #72]
   8b6b4:	aa1603e0 	mov	x0, x22
   8b6b8:	97fffbd6 	bl	8a610 <vTaskPlaceOnEventList>
   8b6bc:	aa1303e0 	mov	x0, x19
   8b6c0:	97ffff00 	bl	8b2c0 <prvUnlockQueue>
   8b6c4:	97fffb0b 	bl	8a2f0 <xTaskResumeAll>
   8b6c8:	b5fffc80 	cbnz	x0, 8b658 <xQueueGenericSend+0xc8>
   8b6cc:	d4000001 	svc	#0x0
   8b6d0:	d2800038 	mov	x24, #0x1                   	// #1
   8b6d4:	17ffffe2 	b	8b65c <xQueueGenericSend+0xcc>
   8b6d8:	910143e0 	add	x0, sp, #0x50
   8b6dc:	97fffc5d 	bl	8a850 <vTaskInternalSetTimeOutState>
   8b6e0:	17ffffc3 	b	8b5ec <xQueueGenericSend+0x5c>
   8b6e4:	91012260 	add	x0, x19, #0x48
   8b6e8:	97fffbfa 	bl	8a6d0 <xTaskRemoveFromEventList>
   8b6ec:	b4fffd20 	cbz	x0, 8b690 <xQueueGenericSend+0x100>
   8b6f0:	d4000001 	svc	#0x0
   8b6f4:	17ffffe7 	b	8b690 <xQueueGenericSend+0x100>
   8b6f8:	97fff702 	bl	89300 <vPortExitCritical>
   8b6fc:	d2800000 	mov	x0, #0x0                   	// #0
   8b700:	a94153f3 	ldp	x19, x20, [sp, #16]
   8b704:	a9425bf5 	ldp	x21, x22, [sp, #32]
   8b708:	a94363f7 	ldp	x23, x24, [sp, #48]
   8b70c:	a8c67bfd 	ldp	x29, x30, [sp], #96
   8b710:	d65f03c0 	ret
   8b714:	aa1303e0 	mov	x0, x19
   8b718:	97fffeea 	bl	8b2c0 <prvUnlockQueue>
   8b71c:	97fffaf5 	bl	8a2f0 <xTaskResumeAll>
   8b720:	d2800000 	mov	x0, #0x0                   	// #0
   8b724:	a94153f3 	ldp	x19, x20, [sp, #16]
   8b728:	a9425bf5 	ldp	x21, x22, [sp, #32]
   8b72c:	a94363f7 	ldp	x23, x24, [sp, #48]
   8b730:	a8c67bfd 	ldp	x29, x30, [sp], #96
   8b734:	d65f03c0 	ret
   8b738:	d503201f 	nop
   8b73c:	d503201f 	nop

000000000008b740 <xQueueCreateMutex>:
   8b740:	a9be7bfd 	stp	x29, x30, [sp, #-32]!
   8b744:	d2801200 	mov	x0, #0x90                  	// #144
   8b748:	910003fd 	mov	x29, sp
   8b74c:	f9000bf3 	str	x19, [sp, #16]
   8b750:	94000420 	bl	8c7d0 <pvPortMalloc>
   8b754:	aa0003f3 	mov	x19, x0
   8b758:	b4000380 	cbz	x0, 8b7c8 <xQueueCreateMutex+0x88>
   8b75c:	d2800020 	mov	x0, #0x1                   	// #1
   8b760:	f9000273 	str	x19, [x19]
   8b764:	a907fe60 	stp	x0, xzr, [x19, #120]
   8b768:	97fff6da 	bl	892d0 <vPortEnterCritical>
   8b76c:	f9003a7f 	str	xzr, [x19, #112]
   8b770:	a9479261 	ldp	x1, x4, [x19, #120]
   8b774:	12800005 	mov	w5, #0xffffffff            	// #-1
   8b778:	f9400263 	ldr	x3, [x19]
   8b77c:	39022265 	strb	w5, [x19, #136]
   8b780:	39022665 	strb	w5, [x19, #137]
   8b784:	91008260 	add	x0, x19, #0x20
   8b788:	d1000422 	sub	x2, x1, #0x1
   8b78c:	9b040c21 	madd	x1, x1, x4, x3
   8b790:	a9008e61 	stp	x1, x3, [x19, #8]
   8b794:	9b040c42 	madd	x2, x2, x4, x3
   8b798:	f9000e62 	str	x2, [x19, #24]
   8b79c:	97fff8a9 	bl	89a40 <vListInitialise>
   8b7a0:	91012260 	add	x0, x19, #0x48
   8b7a4:	97fff8a7 	bl	89a40 <vListInitialise>
   8b7a8:	97fff6d6 	bl	89300 <vPortExitCritical>
   8b7ac:	a9007e7f 	stp	xzr, xzr, [x19]
   8b7b0:	aa1303e0 	mov	x0, x19
   8b7b4:	f9000e7f 	str	xzr, [x19, #24]
   8b7b8:	d2800003 	mov	x3, #0x0                   	// #0
   8b7bc:	d2800002 	mov	x2, #0x0                   	// #0
   8b7c0:	d2800001 	mov	x1, #0x0                   	// #0
   8b7c4:	97ffff73 	bl	8b590 <xQueueGenericSend>
   8b7c8:	aa1303e0 	mov	x0, x19
   8b7cc:	f9400bf3 	ldr	x19, [sp, #16]
   8b7d0:	a8c27bfd 	ldp	x29, x30, [sp], #32
   8b7d4:	d65f03c0 	ret
   8b7d8:	d503201f 	nop
   8b7dc:	d503201f 	nop

000000000008b7e0 <xQueueGenericSendFromISR>:
   8b7e0:	f9403805 	ldr	x5, [x0, #112]
   8b7e4:	f9403c04 	ldr	x4, [x0, #120]
   8b7e8:	eb0400bf 	cmp	x5, x4
   8b7ec:	fa422864 	ccmp	x3, #0x2, #0x4, cs  // cs = hs, nlast
   8b7f0:	540002a1 	b.ne	8b844 <xQueueGenericSendFromISR+0x64>  // b.any
   8b7f4:	a9bd7bfd 	stp	x29, x30, [sp, #-48]!
   8b7f8:	910003fd 	mov	x29, sp
   8b7fc:	a90153f3 	stp	x19, x20, [sp, #16]
   8b800:	aa0003f3 	mov	x19, x0
   8b804:	f90013f5 	str	x21, [sp, #32]
   8b808:	aa0203f5 	mov	x21, x2
   8b80c:	aa0303e2 	mov	x2, x3
   8b810:	39422414 	ldrb	w20, [x0, #137]
   8b814:	97fffe67 	bl	8b1b0 <prvCopyDataToQueue>
   8b818:	13001e80 	sxtb	w0, w20
   8b81c:	3100041f 	cmn	w0, #0x1
   8b820:	54000160 	b.eq	8b84c <xQueueGenericSendFromISR+0x6c>  // b.none
   8b824:	11000694 	add	w20, w20, #0x1
   8b828:	d2800020 	mov	x0, #0x1                   	// #1
   8b82c:	13001e94 	sxtb	w20, w20
   8b830:	39022674 	strb	w20, [x19, #137]
   8b834:	a94153f3 	ldp	x19, x20, [sp, #16]
   8b838:	f94013f5 	ldr	x21, [sp, #32]
   8b83c:	a8c37bfd 	ldp	x29, x30, [sp], #48
   8b840:	d65f03c0 	ret
   8b844:	d2800000 	mov	x0, #0x0                   	// #0
   8b848:	d65f03c0 	ret
   8b84c:	f9402660 	ldr	x0, [x19, #72]
   8b850:	b50000c0 	cbnz	x0, 8b868 <xQueueGenericSendFromISR+0x88>
   8b854:	d2800020 	mov	x0, #0x1                   	// #1
   8b858:	a94153f3 	ldp	x19, x20, [sp, #16]
   8b85c:	f94013f5 	ldr	x21, [sp, #32]
   8b860:	a8c37bfd 	ldp	x29, x30, [sp], #48
   8b864:	d65f03c0 	ret
   8b868:	91012260 	add	x0, x19, #0x48
   8b86c:	97fffb99 	bl	8a6d0 <xTaskRemoveFromEventList>
   8b870:	f10002bf 	cmp	x21, #0x0
   8b874:	fa401804 	ccmp	x0, #0x0, #0x4, ne  // ne = any
   8b878:	54fffee0 	b.eq	8b854 <xQueueGenericSendFromISR+0x74>  // b.none
   8b87c:	d2800021 	mov	x1, #0x1                   	// #1
   8b880:	aa0103e0 	mov	x0, x1
   8b884:	f90002a1 	str	x1, [x21]
   8b888:	17ffffeb 	b	8b834 <xQueueGenericSendFromISR+0x54>
   8b88c:	d503201f 	nop

000000000008b890 <xQueueGiveFromISR>:
   8b890:	aa0003e2 	mov	x2, x0
   8b894:	f9403800 	ldr	x0, [x0, #112]
   8b898:	f9403c43 	ldr	x3, [x2, #120]
   8b89c:	eb00007f 	cmp	x3, x0
   8b8a0:	54000189 	b.ls	8b8d0 <xQueueGiveFromISR+0x40>  // b.plast
   8b8a4:	39422443 	ldrb	w3, [x2, #137]
   8b8a8:	91000400 	add	x0, x0, #0x1
   8b8ac:	f9003840 	str	x0, [x2, #112]
   8b8b0:	13001c60 	sxtb	w0, w3
   8b8b4:	3100041f 	cmn	w0, #0x1
   8b8b8:	54000100 	b.eq	8b8d8 <xQueueGiveFromISR+0x48>  // b.none
   8b8bc:	11000463 	add	w3, w3, #0x1
   8b8c0:	d2800020 	mov	x0, #0x1                   	// #1
   8b8c4:	13001c63 	sxtb	w3, w3
   8b8c8:	39022443 	strb	w3, [x2, #137]
   8b8cc:	d65f03c0 	ret
   8b8d0:	d2800000 	mov	x0, #0x0                   	// #0
   8b8d4:	d65f03c0 	ret
   8b8d8:	f9402440 	ldr	x0, [x2, #72]
   8b8dc:	b5000060 	cbnz	x0, 8b8e8 <xQueueGiveFromISR+0x58>
   8b8e0:	d2800020 	mov	x0, #0x1                   	// #1
   8b8e4:	d65f03c0 	ret
   8b8e8:	a9be7bfd 	stp	x29, x30, [sp, #-32]!
   8b8ec:	91012040 	add	x0, x2, #0x48
   8b8f0:	910003fd 	mov	x29, sp
   8b8f4:	f9000fe1 	str	x1, [sp, #24]
   8b8f8:	97fffb76 	bl	8a6d0 <xTaskRemoveFromEventList>
   8b8fc:	f9400fe1 	ldr	x1, [sp, #24]
   8b900:	f100003f 	cmp	x1, #0x0
   8b904:	fa401804 	ccmp	x0, #0x0, #0x4, ne  // ne = any
   8b908:	d2800020 	mov	x0, #0x1                   	// #1
   8b90c:	54000061 	b.ne	8b918 <xQueueGiveFromISR+0x88>  // b.any
   8b910:	a8c27bfd 	ldp	x29, x30, [sp], #32
   8b914:	d65f03c0 	ret
   8b918:	d2800022 	mov	x2, #0x1                   	// #1
   8b91c:	aa0203e0 	mov	x0, x2
   8b920:	f9000022 	str	x2, [x1]
   8b924:	17fffffb 	b	8b910 <xQueueGiveFromISR+0x80>
   8b928:	d503201f 	nop
   8b92c:	d503201f 	nop

000000000008b930 <xQueueReceive>:
   8b930:	a9bb7bfd 	stp	x29, x30, [sp, #-80]!
   8b934:	910003fd 	mov	x29, sp
   8b938:	a90153f3 	stp	x19, x20, [sp, #16]
   8b93c:	aa0003f3 	mov	x19, x0
   8b940:	a9025bf5 	stp	x21, x22, [sp, #32]
   8b944:	aa0103f5 	mov	x21, x1
   8b948:	f9001fe2 	str	x2, [sp, #56]
   8b94c:	97fff661 	bl	892d0 <vPortEnterCritical>
   8b950:	f9403a74 	ldr	x20, [x19, #112]
   8b954:	b50007b4 	cbnz	x20, 8ba48 <xQueueReceive+0x118>
   8b958:	f9401fe0 	ldr	x0, [sp, #56]
   8b95c:	b40004c0 	cbz	x0, 8b9f4 <xQueueReceive+0xc4>
   8b960:	91012276 	add	x22, x19, #0x48
   8b964:	910103e0 	add	x0, sp, #0x40
   8b968:	97fffbba 	bl	8a850 <vTaskInternalSetTimeOutState>
   8b96c:	97fff665 	bl	89300 <vPortExitCritical>
   8b970:	97fff9bc 	bl	8a060 <vTaskSuspendAll>
   8b974:	97fff657 	bl	892d0 <vPortEnterCritical>
   8b978:	39422262 	ldrb	w2, [x19, #136]
   8b97c:	13001c42 	sxtb	w2, w2
   8b980:	3100045f 	cmn	w2, #0x1
   8b984:	54000041 	b.ne	8b98c <xQueueReceive+0x5c>  // b.any
   8b988:	3902227f 	strb	wzr, [x19, #136]
   8b98c:	39422662 	ldrb	w2, [x19, #137]
   8b990:	13001c42 	sxtb	w2, w2
   8b994:	3100045f 	cmn	w2, #0x1
   8b998:	54000041 	b.ne	8b9a0 <xQueueReceive+0x70>  // b.any
   8b99c:	3902267f 	strb	wzr, [x19, #137]
   8b9a0:	97fff658 	bl	89300 <vPortExitCritical>
   8b9a4:	9100e3e1 	add	x1, sp, #0x38
   8b9a8:	910103e0 	add	x0, sp, #0x40
   8b9ac:	97fffbb1 	bl	8a870 <xTaskCheckForTimeOut>
   8b9b0:	b50002e0 	cbnz	x0, 8ba0c <xQueueReceive+0xdc>
   8b9b4:	97fff647 	bl	892d0 <vPortEnterCritical>
   8b9b8:	f9403a60 	ldr	x0, [x19, #112]
   8b9bc:	b5000380 	cbnz	x0, 8ba2c <xQueueReceive+0xfc>
   8b9c0:	97fff650 	bl	89300 <vPortExitCritical>
   8b9c4:	f9401fe1 	ldr	x1, [sp, #56]
   8b9c8:	aa1603e0 	mov	x0, x22
   8b9cc:	97fffb11 	bl	8a610 <vTaskPlaceOnEventList>
   8b9d0:	aa1303e0 	mov	x0, x19
   8b9d4:	97fffe3b 	bl	8b2c0 <prvUnlockQueue>
   8b9d8:	97fffa46 	bl	8a2f0 <xTaskResumeAll>
   8b9dc:	b4000320 	cbz	x0, 8ba40 <xQueueReceive+0x110>
   8b9e0:	97fff63c 	bl	892d0 <vPortEnterCritical>
   8b9e4:	f9403a74 	ldr	x20, [x19, #112]
   8b9e8:	b5000314 	cbnz	x20, 8ba48 <xQueueReceive+0x118>
   8b9ec:	f9401fe0 	ldr	x0, [sp, #56]
   8b9f0:	b5fffbe0 	cbnz	x0, 8b96c <xQueueReceive+0x3c>
   8b9f4:	97fff643 	bl	89300 <vPortExitCritical>
   8b9f8:	d2800000 	mov	x0, #0x0                   	// #0
   8b9fc:	a94153f3 	ldp	x19, x20, [sp, #16]
   8ba00:	a9425bf5 	ldp	x21, x22, [sp, #32]
   8ba04:	a8c57bfd 	ldp	x29, x30, [sp], #80
   8ba08:	d65f03c0 	ret
   8ba0c:	aa1303e0 	mov	x0, x19
   8ba10:	97fffe2c 	bl	8b2c0 <prvUnlockQueue>
   8ba14:	97fffa37 	bl	8a2f0 <xTaskResumeAll>
   8ba18:	97fff62e 	bl	892d0 <vPortEnterCritical>
   8ba1c:	f9403a62 	ldr	x2, [x19, #112]
   8ba20:	b4fffea2 	cbz	x2, 8b9f4 <xQueueReceive+0xc4>
   8ba24:	97fff637 	bl	89300 <vPortExitCritical>
   8ba28:	17ffffee 	b	8b9e0 <xQueueReceive+0xb0>
   8ba2c:	97fff635 	bl	89300 <vPortExitCritical>
   8ba30:	aa1303e0 	mov	x0, x19
   8ba34:	97fffe23 	bl	8b2c0 <prvUnlockQueue>
   8ba38:	97fffa2e 	bl	8a2f0 <xTaskResumeAll>
   8ba3c:	17ffffe9 	b	8b9e0 <xQueueReceive+0xb0>
   8ba40:	d4000001 	svc	#0x0
   8ba44:	17ffffe7 	b	8b9e0 <xQueueReceive+0xb0>
   8ba48:	f9404262 	ldr	x2, [x19, #128]
   8ba4c:	b4000122 	cbz	x2, 8ba70 <xQueueReceive+0x140>
   8ba50:	f9400e61 	ldr	x1, [x19, #24]
   8ba54:	f9400660 	ldr	x0, [x19, #8]
   8ba58:	8b020021 	add	x1, x1, x2
   8ba5c:	f9000e61 	str	x1, [x19, #24]
   8ba60:	eb00003f 	cmp	x1, x0
   8ba64:	540001a2 	b.cs	8ba98 <xQueueReceive+0x168>  // b.hs, b.nlast
   8ba68:	aa1503e0 	mov	x0, x21
   8ba6c:	97fff641 	bl	89370 <memcpy>
   8ba70:	d1000694 	sub	x20, x20, #0x1
   8ba74:	f9003a74 	str	x20, [x19, #112]
   8ba78:	f9401260 	ldr	x0, [x19, #32]
   8ba7c:	b5000140 	cbnz	x0, 8baa4 <xQueueReceive+0x174>
   8ba80:	97fff620 	bl	89300 <vPortExitCritical>
   8ba84:	d2800020 	mov	x0, #0x1                   	// #1
   8ba88:	a94153f3 	ldp	x19, x20, [sp, #16]
   8ba8c:	a9425bf5 	ldp	x21, x22, [sp, #32]
   8ba90:	a8c57bfd 	ldp	x29, x30, [sp], #80
   8ba94:	d65f03c0 	ret
   8ba98:	f9400261 	ldr	x1, [x19]
   8ba9c:	f9000e61 	str	x1, [x19, #24]
   8baa0:	17fffff2 	b	8ba68 <xQueueReceive+0x138>
   8baa4:	91008260 	add	x0, x19, #0x20
   8baa8:	97fffb0a 	bl	8a6d0 <xTaskRemoveFromEventList>
   8baac:	b4fffea0 	cbz	x0, 8ba80 <xQueueReceive+0x150>
   8bab0:	d4000001 	svc	#0x0
   8bab4:	17fffff3 	b	8ba80 <xQueueReceive+0x150>
   8bab8:	d503201f 	nop
   8babc:	d503201f 	nop

000000000008bac0 <xQueueSemaphoreTake>:
   8bac0:	a9bb7bfd 	stp	x29, x30, [sp, #-80]!
   8bac4:	910003fd 	mov	x29, sp
   8bac8:	a90153f3 	stp	x19, x20, [sp, #16]
   8bacc:	aa0003f3 	mov	x19, x0
   8bad0:	d2800014 	mov	x20, #0x0                   	// #0
   8bad4:	a9025bf5 	stp	x21, x22, [sp, #32]
   8bad8:	91012016 	add	x22, x0, #0x48
   8badc:	d2800015 	mov	x21, #0x0                   	// #0
   8bae0:	f9001fe1 	str	x1, [sp, #56]
   8bae4:	97fff5fb 	bl	892d0 <vPortEnterCritical>
   8bae8:	f9403a61 	ldr	x1, [x19, #112]
   8baec:	b5000501 	cbnz	x1, 8bb8c <xQueueSemaphoreTake+0xcc>
   8baf0:	f9401fe1 	ldr	x1, [sp, #56]
   8baf4:	b4000c41 	cbz	x1, 8bc7c <xQueueSemaphoreTake+0x1bc>
   8baf8:	b4000774 	cbz	x20, 8bbe4 <xQueueSemaphoreTake+0x124>
   8bafc:	97fff601 	bl	89300 <vPortExitCritical>
   8bb00:	97fff958 	bl	8a060 <vTaskSuspendAll>
   8bb04:	97fff5f3 	bl	892d0 <vPortEnterCritical>
   8bb08:	39422261 	ldrb	w1, [x19, #136]
   8bb0c:	13001c21 	sxtb	w1, w1
   8bb10:	3100043f 	cmn	w1, #0x1
   8bb14:	54000041 	b.ne	8bb1c <xQueueSemaphoreTake+0x5c>  // b.any
   8bb18:	3902227f 	strb	wzr, [x19, #136]
   8bb1c:	39422661 	ldrb	w1, [x19, #137]
   8bb20:	13001c21 	sxtb	w1, w1
   8bb24:	3100043f 	cmn	w1, #0x1
   8bb28:	54000041 	b.ne	8bb30 <xQueueSemaphoreTake+0x70>  // b.any
   8bb2c:	3902267f 	strb	wzr, [x19, #137]
   8bb30:	97fff5f4 	bl	89300 <vPortExitCritical>
   8bb34:	9100e3e1 	add	x1, sp, #0x38
   8bb38:	910103e0 	add	x0, sp, #0x40
   8bb3c:	97fffb4d 	bl	8a870 <xTaskCheckForTimeOut>
   8bb40:	b5000400 	cbnz	x0, 8bbc0 <xQueueSemaphoreTake+0x100>
   8bb44:	97fff5e3 	bl	892d0 <vPortEnterCritical>
   8bb48:	f9403a60 	ldr	x0, [x19, #112]
   8bb4c:	b5000520 	cbnz	x0, 8bbf0 <xQueueSemaphoreTake+0x130>
   8bb50:	97fff5ec 	bl	89300 <vPortExitCritical>
   8bb54:	f9400260 	ldr	x0, [x19]
   8bb58:	b4000860 	cbz	x0, 8bc64 <xQueueSemaphoreTake+0x1a4>
   8bb5c:	f9401fe1 	ldr	x1, [sp, #56]
   8bb60:	aa1603e0 	mov	x0, x22
   8bb64:	97fffaab 	bl	8a610 <vTaskPlaceOnEventList>
   8bb68:	aa1303e0 	mov	x0, x19
   8bb6c:	97fffdd5 	bl	8b2c0 <prvUnlockQueue>
   8bb70:	97fff9e0 	bl	8a2f0 <xTaskResumeAll>
   8bb74:	b5000040 	cbnz	x0, 8bb7c <xQueueSemaphoreTake+0xbc>
   8bb78:	d4000001 	svc	#0x0
   8bb7c:	d2800034 	mov	x20, #0x1                   	// #1
   8bb80:	97fff5d4 	bl	892d0 <vPortEnterCritical>
   8bb84:	f9403a61 	ldr	x1, [x19, #112]
   8bb88:	b4fffb41 	cbz	x1, 8baf0 <xQueueSemaphoreTake+0x30>
   8bb8c:	f9400260 	ldr	x0, [x19]
   8bb90:	d1000421 	sub	x1, x1, #0x1
   8bb94:	f9003a61 	str	x1, [x19, #112]
   8bb98:	b40008a0 	cbz	x0, 8bcac <xQueueSemaphoreTake+0x1ec>
   8bb9c:	f9401260 	ldr	x0, [x19, #32]
   8bba0:	b50007c0 	cbnz	x0, 8bc98 <xQueueSemaphoreTake+0x1d8>
   8bba4:	97fff5d7 	bl	89300 <vPortExitCritical>
   8bba8:	d2800035 	mov	x21, #0x1                   	// #1
   8bbac:	aa1503e0 	mov	x0, x21
   8bbb0:	a94153f3 	ldp	x19, x20, [sp, #16]
   8bbb4:	a9425bf5 	ldp	x21, x22, [sp, #32]
   8bbb8:	a8c57bfd 	ldp	x29, x30, [sp], #80
   8bbbc:	d65f03c0 	ret
   8bbc0:	aa1303e0 	mov	x0, x19
   8bbc4:	97fffdbf 	bl	8b2c0 <prvUnlockQueue>
   8bbc8:	97fff9ca 	bl	8a2f0 <xTaskResumeAll>
   8bbcc:	97fff5c1 	bl	892d0 <vPortEnterCritical>
   8bbd0:	f9403a60 	ldr	x0, [x19, #112]
   8bbd4:	b40001a0 	cbz	x0, 8bc08 <xQueueSemaphoreTake+0x148>
   8bbd8:	d2800034 	mov	x20, #0x1                   	// #1
   8bbdc:	97fff5c9 	bl	89300 <vPortExitCritical>
   8bbe0:	17ffffe8 	b	8bb80 <xQueueSemaphoreTake+0xc0>
   8bbe4:	910103e0 	add	x0, sp, #0x40
   8bbe8:	97fffb1a 	bl	8a850 <vTaskInternalSetTimeOutState>
   8bbec:	17ffffc4 	b	8bafc <xQueueSemaphoreTake+0x3c>
   8bbf0:	97fff5c4 	bl	89300 <vPortExitCritical>
   8bbf4:	d2800034 	mov	x20, #0x1                   	// #1
   8bbf8:	aa1303e0 	mov	x0, x19
   8bbfc:	97fffdb1 	bl	8b2c0 <prvUnlockQueue>
   8bc00:	97fff9bc 	bl	8a2f0 <xTaskResumeAll>
   8bc04:	17ffffdf 	b	8bb80 <xQueueSemaphoreTake+0xc0>
   8bc08:	97fff5be 	bl	89300 <vPortExitCritical>
   8bc0c:	b50000d5 	cbnz	x21, 8bc24 <xQueueSemaphoreTake+0x164>
   8bc10:	aa1503e0 	mov	x0, x21
   8bc14:	a94153f3 	ldp	x19, x20, [sp, #16]
   8bc18:	a9425bf5 	ldp	x21, x22, [sp, #32]
   8bc1c:	a8c57bfd 	ldp	x29, x30, [sp], #80
   8bc20:	d65f03c0 	ret
   8bc24:	97fff5ab 	bl	892d0 <vPortEnterCritical>
   8bc28:	f9402661 	ldr	x1, [x19, #72]
   8bc2c:	b40000a1 	cbz	x1, 8bc40 <xQueueSemaphoreTake+0x180>
   8bc30:	f9403260 	ldr	x0, [x19, #96]
   8bc34:	d2800101 	mov	x1, #0x8                   	// #8
   8bc38:	f9400000 	ldr	x0, [x0]
   8bc3c:	cb000021 	sub	x1, x1, x0
   8bc40:	f9400660 	ldr	x0, [x19, #8]
   8bc44:	d2800015 	mov	x21, #0x0                   	// #0
   8bc48:	97fffbb6 	bl	8ab20 <vTaskPriorityDisinheritAfterTimeout>
   8bc4c:	97fff5ad 	bl	89300 <vPortExitCritical>
   8bc50:	aa1503e0 	mov	x0, x21
   8bc54:	a94153f3 	ldp	x19, x20, [sp, #16]
   8bc58:	a9425bf5 	ldp	x21, x22, [sp, #32]
   8bc5c:	a8c57bfd 	ldp	x29, x30, [sp], #80
   8bc60:	d65f03c0 	ret
   8bc64:	97fff59b 	bl	892d0 <vPortEnterCritical>
   8bc68:	f9400660 	ldr	x0, [x19, #8]
   8bc6c:	97fffb45 	bl	8a980 <xTaskPriorityInherit>
   8bc70:	aa0003f5 	mov	x21, x0
   8bc74:	97fff5a3 	bl	89300 <vPortExitCritical>
   8bc78:	17ffffb9 	b	8bb5c <xQueueSemaphoreTake+0x9c>
   8bc7c:	97fff5a1 	bl	89300 <vPortExitCritical>
   8bc80:	d2800015 	mov	x21, #0x0                   	// #0
   8bc84:	aa1503e0 	mov	x0, x21
   8bc88:	a94153f3 	ldp	x19, x20, [sp, #16]
   8bc8c:	a9425bf5 	ldp	x21, x22, [sp, #32]
   8bc90:	a8c57bfd 	ldp	x29, x30, [sp], #80
   8bc94:	d65f03c0 	ret
   8bc98:	91008260 	add	x0, x19, #0x20
   8bc9c:	97fffa8d 	bl	8a6d0 <xTaskRemoveFromEventList>
   8bca0:	b4fff820 	cbz	x0, 8bba4 <xQueueSemaphoreTake+0xe4>
   8bca4:	d4000001 	svc	#0x0
   8bca8:	17ffffbf 	b	8bba4 <xQueueSemaphoreTake+0xe4>
   8bcac:	97fffbdd 	bl	8ac20 <pvTaskIncrementMutexHeldCount>
   8bcb0:	f9000660 	str	x0, [x19, #8]
   8bcb4:	17ffffba 	b	8bb9c <xQueueSemaphoreTake+0xdc>
   8bcb8:	d503201f 	nop
   8bcbc:	d503201f 	nop

000000000008bcc0 <xQueuePeek>:
   8bcc0:	a9bb7bfd 	stp	x29, x30, [sp, #-80]!
   8bcc4:	910003fd 	mov	x29, sp
   8bcc8:	a90153f3 	stp	x19, x20, [sp, #16]
   8bccc:	aa0003f3 	mov	x19, x0
   8bcd0:	aa0103f4 	mov	x20, x1
   8bcd4:	f90013f5 	str	x21, [sp, #32]
   8bcd8:	f9001fe2 	str	x2, [sp, #56]
   8bcdc:	97fff57d 	bl	892d0 <vPortEnterCritical>
   8bce0:	f9403a62 	ldr	x2, [x19, #112]
   8bce4:	b50007a2 	cbnz	x2, 8bdd8 <xQueuePeek+0x118>
   8bce8:	f9401fe0 	ldr	x0, [sp, #56]
   8bcec:	b40004c0 	cbz	x0, 8bd84 <xQueuePeek+0xc4>
   8bcf0:	91012275 	add	x21, x19, #0x48
   8bcf4:	910103e0 	add	x0, sp, #0x40
   8bcf8:	97fffad6 	bl	8a850 <vTaskInternalSetTimeOutState>
   8bcfc:	97fff581 	bl	89300 <vPortExitCritical>
   8bd00:	97fff8d8 	bl	8a060 <vTaskSuspendAll>
   8bd04:	97fff573 	bl	892d0 <vPortEnterCritical>
   8bd08:	39422262 	ldrb	w2, [x19, #136]
   8bd0c:	13001c42 	sxtb	w2, w2
   8bd10:	3100045f 	cmn	w2, #0x1
   8bd14:	54000041 	b.ne	8bd1c <xQueuePeek+0x5c>  // b.any
   8bd18:	3902227f 	strb	wzr, [x19, #136]
   8bd1c:	39422662 	ldrb	w2, [x19, #137]
   8bd20:	13001c42 	sxtb	w2, w2
   8bd24:	3100045f 	cmn	w2, #0x1
   8bd28:	54000041 	b.ne	8bd30 <xQueuePeek+0x70>  // b.any
   8bd2c:	3902267f 	strb	wzr, [x19, #137]
   8bd30:	97fff574 	bl	89300 <vPortExitCritical>
   8bd34:	9100e3e1 	add	x1, sp, #0x38
   8bd38:	910103e0 	add	x0, sp, #0x40
   8bd3c:	97fffacd 	bl	8a870 <xTaskCheckForTimeOut>
   8bd40:	b50002e0 	cbnz	x0, 8bd9c <xQueuePeek+0xdc>
   8bd44:	97fff563 	bl	892d0 <vPortEnterCritical>
   8bd48:	f9403a62 	ldr	x2, [x19, #112]
   8bd4c:	b5000382 	cbnz	x2, 8bdbc <xQueuePeek+0xfc>
   8bd50:	97fff56c 	bl	89300 <vPortExitCritical>
   8bd54:	f9401fe1 	ldr	x1, [sp, #56]
   8bd58:	aa1503e0 	mov	x0, x21
   8bd5c:	97fffa2d 	bl	8a610 <vTaskPlaceOnEventList>
   8bd60:	aa1303e0 	mov	x0, x19
   8bd64:	97fffd57 	bl	8b2c0 <prvUnlockQueue>
   8bd68:	97fff962 	bl	8a2f0 <xTaskResumeAll>
   8bd6c:	b4000320 	cbz	x0, 8bdd0 <xQueuePeek+0x110>
   8bd70:	97fff558 	bl	892d0 <vPortEnterCritical>
   8bd74:	f9403a60 	ldr	x0, [x19, #112]
   8bd78:	b5000300 	cbnz	x0, 8bdd8 <xQueuePeek+0x118>
   8bd7c:	f9401fe0 	ldr	x0, [sp, #56]
   8bd80:	b5fffbe0 	cbnz	x0, 8bcfc <xQueuePeek+0x3c>
   8bd84:	97fff55f 	bl	89300 <vPortExitCritical>
   8bd88:	d2800000 	mov	x0, #0x0                   	// #0
   8bd8c:	a94153f3 	ldp	x19, x20, [sp, #16]
   8bd90:	f94013f5 	ldr	x21, [sp, #32]
   8bd94:	a8c57bfd 	ldp	x29, x30, [sp], #80
   8bd98:	d65f03c0 	ret
   8bd9c:	aa1303e0 	mov	x0, x19
   8bda0:	97fffd48 	bl	8b2c0 <prvUnlockQueue>
   8bda4:	97fff953 	bl	8a2f0 <xTaskResumeAll>
   8bda8:	97fff54a 	bl	892d0 <vPortEnterCritical>
   8bdac:	f9403a62 	ldr	x2, [x19, #112]
   8bdb0:	b4fffea2 	cbz	x2, 8bd84 <xQueuePeek+0xc4>
   8bdb4:	97fff553 	bl	89300 <vPortExitCritical>
   8bdb8:	17ffffee 	b	8bd70 <xQueuePeek+0xb0>
   8bdbc:	97fff551 	bl	89300 <vPortExitCritical>
   8bdc0:	aa1303e0 	mov	x0, x19
   8bdc4:	97fffd3f 	bl	8b2c0 <prvUnlockQueue>
   8bdc8:	97fff94a 	bl	8a2f0 <xTaskResumeAll>
   8bdcc:	17ffffe9 	b	8bd70 <xQueuePeek+0xb0>
   8bdd0:	d4000001 	svc	#0x0
   8bdd4:	17ffffe7 	b	8bd70 <xQueuePeek+0xb0>
   8bdd8:	f9404262 	ldr	x2, [x19, #128]
   8bddc:	f9400e75 	ldr	x21, [x19, #24]
   8bde0:	b4000102 	cbz	x2, 8be00 <xQueuePeek+0x140>
   8bde4:	f9400660 	ldr	x0, [x19, #8]
   8bde8:	8b0202a1 	add	x1, x21, x2
   8bdec:	f9000e61 	str	x1, [x19, #24]
   8bdf0:	eb00003f 	cmp	x1, x0
   8bdf4:	54000182 	b.cs	8be24 <xQueuePeek+0x164>  // b.hs, b.nlast
   8bdf8:	aa1403e0 	mov	x0, x20
   8bdfc:	97fff55d 	bl	89370 <memcpy>
   8be00:	f9402660 	ldr	x0, [x19, #72]
   8be04:	f9000e75 	str	x21, [x19, #24]
   8be08:	b5000140 	cbnz	x0, 8be30 <xQueuePeek+0x170>
   8be0c:	97fff53d 	bl	89300 <vPortExitCritical>
   8be10:	d2800020 	mov	x0, #0x1                   	// #1
   8be14:	a94153f3 	ldp	x19, x20, [sp, #16]
   8be18:	f94013f5 	ldr	x21, [sp, #32]
   8be1c:	a8c57bfd 	ldp	x29, x30, [sp], #80
   8be20:	d65f03c0 	ret
   8be24:	f9400261 	ldr	x1, [x19]
   8be28:	f9000e61 	str	x1, [x19, #24]
   8be2c:	17fffff3 	b	8bdf8 <xQueuePeek+0x138>
   8be30:	91012260 	add	x0, x19, #0x48
   8be34:	97fffa27 	bl	8a6d0 <xTaskRemoveFromEventList>
   8be38:	b4fffea0 	cbz	x0, 8be0c <xQueuePeek+0x14c>
   8be3c:	d4000001 	svc	#0x0
   8be40:	17fffff3 	b	8be0c <xQueuePeek+0x14c>
   8be44:	d503201f 	nop
   8be48:	d503201f 	nop
   8be4c:	d503201f 	nop

000000000008be50 <xQueueReceiveFromISR>:
   8be50:	a9bc7bfd 	stp	x29, x30, [sp, #-64]!
   8be54:	910003fd 	mov	x29, sp
   8be58:	a9025bf5 	stp	x21, x22, [sp, #32]
   8be5c:	f9403815 	ldr	x21, [x0, #112]
   8be60:	a90153f3 	stp	x19, x20, [sp, #16]
   8be64:	aa0003f3 	mov	x19, x0
   8be68:	d2800000 	mov	x0, #0x0                   	// #0
   8be6c:	b50000b5 	cbnz	x21, 8be80 <xQueueReceiveFromISR+0x30>
   8be70:	a94153f3 	ldp	x19, x20, [sp, #16]
   8be74:	a9425bf5 	ldp	x21, x22, [sp, #32]
   8be78:	a8c47bfd 	ldp	x29, x30, [sp], #64
   8be7c:	d65f03c0 	ret
   8be80:	aa0203f4 	mov	x20, x2
   8be84:	f9404262 	ldr	x2, [x19, #128]
   8be88:	f9001bf7 	str	x23, [sp, #48]
   8be8c:	39422276 	ldrb	w22, [x19, #136]
   8be90:	13001ed7 	sxtb	w23, w22
   8be94:	b4000162 	cbz	x2, 8bec0 <xQueueReceiveFromISR+0x70>
   8be98:	aa0103e0 	mov	x0, x1
   8be9c:	f9400e61 	ldr	x1, [x19, #24]
   8bea0:	f9400663 	ldr	x3, [x19, #8]
   8bea4:	8b020021 	add	x1, x1, x2
   8bea8:	f9000e61 	str	x1, [x19, #24]
   8beac:	eb03003f 	cmp	x1, x3
   8beb0:	54000063 	b.cc	8bebc <xQueueReceiveFromISR+0x6c>  // b.lo, b.ul, b.last
   8beb4:	f9400261 	ldr	x1, [x19]
   8beb8:	f9000e61 	str	x1, [x19, #24]
   8bebc:	97fff52d 	bl	89370 <memcpy>
   8bec0:	d10006b5 	sub	x21, x21, #0x1
   8bec4:	f9003a75 	str	x21, [x19, #112]
   8bec8:	310006ff 	cmn	w23, #0x1
   8becc:	54000140 	b.eq	8bef4 <xQueueReceiveFromISR+0xa4>  // b.none
   8bed0:	110006d6 	add	w22, w22, #0x1
   8bed4:	d2800020 	mov	x0, #0x1                   	// #1
   8bed8:	13001ed6 	sxtb	w22, w22
   8bedc:	39022276 	strb	w22, [x19, #136]
   8bee0:	a94153f3 	ldp	x19, x20, [sp, #16]
   8bee4:	a9425bf5 	ldp	x21, x22, [sp, #32]
   8bee8:	f9401bf7 	ldr	x23, [sp, #48]
   8beec:	a8c47bfd 	ldp	x29, x30, [sp], #64
   8bef0:	d65f03c0 	ret
   8bef4:	f9401260 	ldr	x0, [x19, #32]
   8bef8:	b5000080 	cbnz	x0, 8bf08 <xQueueReceiveFromISR+0xb8>
   8befc:	d2800020 	mov	x0, #0x1                   	// #1
   8bf00:	f9401bf7 	ldr	x23, [sp, #48]
   8bf04:	17ffffdb 	b	8be70 <xQueueReceiveFromISR+0x20>
   8bf08:	91008260 	add	x0, x19, #0x20
   8bf0c:	97fff9f1 	bl	8a6d0 <xTaskRemoveFromEventList>
   8bf10:	f100029f 	cmp	x20, #0x0
   8bf14:	fa401804 	ccmp	x0, #0x0, #0x4, ne  // ne = any
   8bf18:	54ffff20 	b.eq	8befc <xQueueReceiveFromISR+0xac>  // b.none
   8bf1c:	d2800021 	mov	x1, #0x1                   	// #1
   8bf20:	aa0103e0 	mov	x0, x1
   8bf24:	f9401bf7 	ldr	x23, [sp, #48]
   8bf28:	f9000281 	str	x1, [x20]
   8bf2c:	17ffffd1 	b	8be70 <xQueueReceiveFromISR+0x20>

000000000008bf30 <xQueuePeekFromISR>:
   8bf30:	a9be7bfd 	stp	x29, x30, [sp, #-32]!
   8bf34:	910003fd 	mov	x29, sp
   8bf38:	a90153f3 	stp	x19, x20, [sp, #16]
   8bf3c:	aa0003f3 	mov	x19, x0
   8bf40:	aa0103e0 	mov	x0, x1
   8bf44:	f9403a61 	ldr	x1, [x19, #112]
   8bf48:	b50000a1 	cbnz	x1, 8bf5c <xQueuePeekFromISR+0x2c>
   8bf4c:	d2800000 	mov	x0, #0x0                   	// #0
   8bf50:	a94153f3 	ldp	x19, x20, [sp, #16]
   8bf54:	a8c27bfd 	ldp	x29, x30, [sp], #32
   8bf58:	d65f03c0 	ret
   8bf5c:	f9404262 	ldr	x2, [x19, #128]
   8bf60:	f9400e74 	ldr	x20, [x19, #24]
   8bf64:	b4000122 	cbz	x2, 8bf88 <xQueuePeekFromISR+0x58>
   8bf68:	f9400663 	ldr	x3, [x19, #8]
   8bf6c:	8b020281 	add	x1, x20, x2
   8bf70:	f9000e61 	str	x1, [x19, #24]
   8bf74:	eb03003f 	cmp	x1, x3
   8bf78:	54000063 	b.cc	8bf84 <xQueuePeekFromISR+0x54>  // b.lo, b.ul, b.last
   8bf7c:	f9400261 	ldr	x1, [x19]
   8bf80:	f9000e61 	str	x1, [x19, #24]
   8bf84:	97fff4fb 	bl	89370 <memcpy>
   8bf88:	f9000e74 	str	x20, [x19, #24]
   8bf8c:	d2800020 	mov	x0, #0x1                   	// #1
   8bf90:	a94153f3 	ldp	x19, x20, [sp, #16]
   8bf94:	a8c27bfd 	ldp	x29, x30, [sp], #32
   8bf98:	d65f03c0 	ret
   8bf9c:	d503201f 	nop

000000000008bfa0 <uxQueueMessagesWaiting>:
   8bfa0:	a9be7bfd 	stp	x29, x30, [sp, #-32]!
   8bfa4:	910003fd 	mov	x29, sp
   8bfa8:	f9000bf3 	str	x19, [sp, #16]
   8bfac:	aa0003f3 	mov	x19, x0
   8bfb0:	97fff4c8 	bl	892d0 <vPortEnterCritical>
   8bfb4:	f9403a73 	ldr	x19, [x19, #112]
   8bfb8:	97fff4d2 	bl	89300 <vPortExitCritical>
   8bfbc:	aa1303e0 	mov	x0, x19
   8bfc0:	f9400bf3 	ldr	x19, [sp, #16]
   8bfc4:	a8c27bfd 	ldp	x29, x30, [sp], #32
   8bfc8:	d65f03c0 	ret
   8bfcc:	d503201f 	nop

000000000008bfd0 <uxQueueSpacesAvailable>:
   8bfd0:	a9be7bfd 	stp	x29, x30, [sp, #-32]!
   8bfd4:	910003fd 	mov	x29, sp
   8bfd8:	f9000bf3 	str	x19, [sp, #16]
   8bfdc:	aa0003f3 	mov	x19, x0
   8bfe0:	97fff4bc 	bl	892d0 <vPortEnterCritical>
   8bfe4:	f9403a60 	ldr	x0, [x19, #112]
   8bfe8:	f9403e73 	ldr	x19, [x19, #120]
   8bfec:	cb000273 	sub	x19, x19, x0
   8bff0:	97fff4c4 	bl	89300 <vPortExitCritical>
   8bff4:	aa1303e0 	mov	x0, x19
   8bff8:	f9400bf3 	ldr	x19, [sp, #16]
   8bffc:	a8c27bfd 	ldp	x29, x30, [sp], #32
   8c000:	d65f03c0 	ret
   8c004:	d503201f 	nop
   8c008:	d503201f 	nop
   8c00c:	d503201f 	nop

000000000008c010 <uxQueueMessagesWaitingFromISR>:
   8c010:	f9403800 	ldr	x0, [x0, #112]
   8c014:	d65f03c0 	ret
   8c018:	d503201f 	nop
   8c01c:	d503201f 	nop

000000000008c020 <vQueueDelete>:
   8c020:	1400024c 	b	8c950 <vPortFree>
   8c024:	d503201f 	nop
   8c028:	d503201f 	nop
   8c02c:	d503201f 	nop

000000000008c030 <xQueueIsQueueEmptyFromISR>:
   8c030:	f9403800 	ldr	x0, [x0, #112]
   8c034:	f100001f 	cmp	x0, #0x0
   8c038:	9a9f17e0 	cset	x0, eq  // eq = none
   8c03c:	d65f03c0 	ret

000000000008c040 <xQueueIsQueueFullFromISR>:
   8c040:	f9403801 	ldr	x1, [x0, #112]
   8c044:	f9403c00 	ldr	x0, [x0, #120]
   8c048:	eb01001f 	cmp	x0, x1
   8c04c:	9a9f17e0 	cset	x0, eq  // eq = none
   8c050:	d65f03c0 	ret
   8c054:	d503201f 	nop
   8c058:	d503201f 	nop
   8c05c:	d503201f 	nop

000000000008c060 <vQueueWaitForMessageRestricted>:
   8c060:	a9bd7bfd 	stp	x29, x30, [sp, #-48]!
   8c064:	910003fd 	mov	x29, sp
   8c068:	a90153f3 	stp	x19, x20, [sp, #16]
   8c06c:	aa0003f3 	mov	x19, x0
   8c070:	aa0103f4 	mov	x20, x1
   8c074:	f90013f5 	str	x21, [sp, #32]
   8c078:	aa0203f5 	mov	x21, x2
   8c07c:	97fff495 	bl	892d0 <vPortEnterCritical>
   8c080:	39422260 	ldrb	w0, [x19, #136]
   8c084:	13001c00 	sxtb	w0, w0
   8c088:	3100041f 	cmn	w0, #0x1
   8c08c:	54000041 	b.ne	8c094 <vQueueWaitForMessageRestricted+0x34>  // b.any
   8c090:	3902227f 	strb	wzr, [x19, #136]
   8c094:	39422660 	ldrb	w0, [x19, #137]
   8c098:	13001c00 	sxtb	w0, w0
   8c09c:	3100041f 	cmn	w0, #0x1
   8c0a0:	54000041 	b.ne	8c0a8 <vQueueWaitForMessageRestricted+0x48>  // b.any
   8c0a4:	3902267f 	strb	wzr, [x19, #137]
   8c0a8:	97fff496 	bl	89300 <vPortExitCritical>
   8c0ac:	f9403a60 	ldr	x0, [x19, #112]
   8c0b0:	b40000c0 	cbz	x0, 8c0c8 <vQueueWaitForMessageRestricted+0x68>
   8c0b4:	aa1303e0 	mov	x0, x19
   8c0b8:	a94153f3 	ldp	x19, x20, [sp, #16]
   8c0bc:	f94013f5 	ldr	x21, [sp, #32]
   8c0c0:	a8c37bfd 	ldp	x29, x30, [sp], #48
   8c0c4:	17fffc7f 	b	8b2c0 <prvUnlockQueue>
   8c0c8:	aa1503e2 	mov	x2, x21
   8c0cc:	aa1403e1 	mov	x1, x20
   8c0d0:	91012260 	add	x0, x19, #0x48
   8c0d4:	97fff96f 	bl	8a690 <vTaskPlaceOnEventListRestricted>
   8c0d8:	aa1303e0 	mov	x0, x19
   8c0dc:	a94153f3 	ldp	x19, x20, [sp, #16]
   8c0e0:	f94013f5 	ldr	x21, [sp, #32]
   8c0e4:	a8c37bfd 	ldp	x29, x30, [sp], #48
   8c0e8:	17fffc76 	b	8b2c0 <prvUnlockQueue>
   8c0ec:	00000000 	udf	#0

000000000008c0f0 <prvCheckForValidListAndQueue>:
   8c0f0:	a9bd7bfd 	stp	x29, x30, [sp, #-48]!
   8c0f4:	910003fd 	mov	x29, sp
   8c0f8:	a90153f3 	stp	x19, x20, [sp, #16]
   8c0fc:	f0000013 	adrp	x19, 8f000 <g_msg+0x18>
   8c100:	97fff474 	bl	892d0 <vPortEnterCritical>
   8c104:	f947a660 	ldr	x0, [x19, #3912]
   8c108:	b4000080 	cbz	x0, 8c118 <prvCheckForValidListAndQueue+0x28>
   8c10c:	a94153f3 	ldp	x19, x20, [sp, #16]
   8c110:	a8c37bfd 	ldp	x29, x30, [sp], #48
   8c114:	17fff47b 	b	89300 <vPortExitCritical>
   8c118:	913d2274 	add	x20, x19, #0xf48
   8c11c:	a9025bf5 	stp	x21, x22, [sp, #32]
   8c120:	91002296 	add	x22, x20, #0x8
   8c124:	9100c295 	add	x21, x20, #0x30
   8c128:	aa1603e0 	mov	x0, x22
   8c12c:	97fff645 	bl	89a40 <vListInitialise>
   8c130:	aa1503e0 	mov	x0, x21
   8c134:	97fff643 	bl	89a40 <vListInitialise>
   8c138:	52800002 	mov	w2, #0x0                   	// #0
   8c13c:	d2800301 	mov	x1, #0x18                  	// #24
   8c140:	d28000a0 	mov	x0, #0x5                   	// #5
   8c144:	a905d696 	stp	x22, x21, [x20, #88]
   8c148:	97fffcc2 	bl	8b450 <xQueueGenericCreate>
   8c14c:	f907a660 	str	x0, [x19, #3912]
   8c150:	a94153f3 	ldp	x19, x20, [sp, #16]
   8c154:	a9425bf5 	ldp	x21, x22, [sp, #32]
   8c158:	a8c37bfd 	ldp	x29, x30, [sp], #48
   8c15c:	17fff469 	b	89300 <vPortExitCritical>

000000000008c160 <xTimerCreateTimerTask>:
   8c160:	a9bf7bfd 	stp	x29, x30, [sp, #-16]!
   8c164:	910003fd 	mov	x29, sp
   8c168:	97ffffe2 	bl	8c0f0 <prvCheckForValidListAndQueue>
   8c16c:	f0000000 	adrp	x0, 8f000 <g_msg+0x18>
   8c170:	913d2005 	add	x5, x0, #0xf48
   8c174:	f947a400 	ldr	x0, [x0, #3912]
   8c178:	b4000160 	cbz	x0, 8c1a4 <xTimerCreateTimerTask+0x44>
   8c17c:	a8c17bfd 	ldp	x29, x30, [sp], #16
   8c180:	9101a0a5 	add	x5, x5, #0x68
   8c184:	d0000001 	adrp	x1, 8e000 <sc_scope_draw+0x570>
   8c188:	90000000 	adrp	x0, 8c000 <uxQueueSpacesAvailable+0x30>
   8c18c:	913ca021 	add	x1, x1, #0xf28
   8c190:	910e4000 	add	x0, x0, #0x390
   8c194:	d28000e4 	mov	x4, #0x7                   	// #7
   8c198:	d2800003 	mov	x3, #0x0                   	// #0
   8c19c:	52803202 	mov	w2, #0x190                 	// #400
   8c1a0:	17fff6b0 	b	89c60 <xTaskCreate>
   8c1a4:	d2800000 	mov	x0, #0x0                   	// #0
   8c1a8:	a8c17bfd 	ldp	x29, x30, [sp], #16
   8c1ac:	d65f03c0 	ret

000000000008c1b0 <xTimerCreate>:
   8c1b0:	a9bc7bfd 	stp	x29, x30, [sp, #-64]!
   8c1b4:	910003fd 	mov	x29, sp
   8c1b8:	a90153f3 	stp	x19, x20, [sp, #16]
   8c1bc:	aa0403f4 	mov	x20, x4
   8c1c0:	a9025bf5 	stp	x21, x22, [sp, #32]
   8c1c4:	aa0203f6 	mov	x22, x2
   8c1c8:	aa0303f5 	mov	x21, x3
   8c1cc:	a90363f7 	stp	x23, x24, [sp, #48]
   8c1d0:	aa0003f7 	mov	x23, x0
   8c1d4:	aa0103f8 	mov	x24, x1
   8c1d8:	d2800a00 	mov	x0, #0x50                  	// #80
   8c1dc:	9400017d 	bl	8c7d0 <pvPortMalloc>
   8c1e0:	aa0003f3 	mov	x19, x0
   8c1e4:	b40000e0 	cbz	x0, 8c200 <xTimerCreate+0x50>
   8c1e8:	97ffffc2 	bl	8c0f0 <prvCheckForValidListAndQueue>
   8c1ec:	f9000277 	str	x23, [x19]
   8c1f0:	a9035a78 	stp	x24, x22, [x19, #48]
   8c1f4:	91002260 	add	x0, x19, #0x8
   8c1f8:	a9045275 	stp	x21, x20, [x19, #64]
   8c1fc:	97fff619 	bl	89a60 <vListInitialiseItem>
   8c200:	aa1303e0 	mov	x0, x19
   8c204:	a94153f3 	ldp	x19, x20, [sp, #16]
   8c208:	a9425bf5 	ldp	x21, x22, [sp, #32]
   8c20c:	a94363f7 	ldp	x23, x24, [sp, #48]
   8c210:	a8c47bfd 	ldp	x29, x30, [sp], #64
   8c214:	d65f03c0 	ret
   8c218:	d503201f 	nop
   8c21c:	d503201f 	nop

000000000008c220 <xTimerGenericCommand>:
   8c220:	a9bc7bfd 	stp	x29, x30, [sp, #-64]!
   8c224:	910003fd 	mov	x29, sp
   8c228:	a90153f3 	stp	x19, x20, [sp, #16]
   8c22c:	f0000014 	adrp	x20, 8f000 <g_msg+0x18>
   8c230:	f947a685 	ldr	x5, [x20, #3912]
   8c234:	b4000325 	cbz	x5, 8c298 <xTimerGenericCommand+0x78>
   8c238:	a9028be1 	stp	x1, x2, [sp, #40]
   8c23c:	f100143f 	cmp	x1, #0x5
   8c240:	f9001fe0 	str	x0, [sp, #56]
   8c244:	540001ac 	b.gt	8c278 <xTimerGenericCommand+0x58>
   8c248:	aa0403f3 	mov	x19, x4
   8c24c:	97fff9c1 	bl	8a950 <xTaskGetSchedulerState>
   8c250:	f100081f 	cmp	x0, #0x2
   8c254:	f947a680 	ldr	x0, [x20, #3912]
   8c258:	54000280 	b.eq	8c2a8 <xTimerGenericCommand+0x88>  // b.none
   8c25c:	9100a3e1 	add	x1, sp, #0x28
   8c260:	d2800003 	mov	x3, #0x0                   	// #0
   8c264:	d2800002 	mov	x2, #0x0                   	// #0
   8c268:	97fffcca 	bl	8b590 <xQueueGenericSend>
   8c26c:	a94153f3 	ldp	x19, x20, [sp, #16]
   8c270:	a8c47bfd 	ldp	x29, x30, [sp], #64
   8c274:	d65f03c0 	ret
   8c278:	aa0303e2 	mov	x2, x3
   8c27c:	9100a3e1 	add	x1, sp, #0x28
   8c280:	aa0503e0 	mov	x0, x5
   8c284:	d2800003 	mov	x3, #0x0                   	// #0
   8c288:	97fffd56 	bl	8b7e0 <xQueueGenericSendFromISR>
   8c28c:	a94153f3 	ldp	x19, x20, [sp, #16]
   8c290:	a8c47bfd 	ldp	x29, x30, [sp], #64
   8c294:	d65f03c0 	ret
   8c298:	d2800000 	mov	x0, #0x0                   	// #0
   8c29c:	a94153f3 	ldp	x19, x20, [sp, #16]
   8c2a0:	a8c47bfd 	ldp	x29, x30, [sp], #64
   8c2a4:	d65f03c0 	ret
   8c2a8:	aa1303e2 	mov	x2, x19
   8c2ac:	9100a3e1 	add	x1, sp, #0x28
   8c2b0:	d2800003 	mov	x3, #0x0                   	// #0
   8c2b4:	97fffcb7 	bl	8b590 <xQueueGenericSend>
   8c2b8:	a94153f3 	ldp	x19, x20, [sp, #16]
   8c2bc:	a8c47bfd 	ldp	x29, x30, [sp], #64
   8c2c0:	d65f03c0 	ret
   8c2c4:	d503201f 	nop
   8c2c8:	d503201f 	nop
   8c2cc:	d503201f 	nop

000000000008c2d0 <prvSwitchTimerLists>:
   8c2d0:	a9bd7bfd 	stp	x29, x30, [sp, #-48]!
   8c2d4:	910003fd 	mov	x29, sp
   8c2d8:	a90153f3 	stp	x19, x20, [sp, #16]
   8c2dc:	a9025bf5 	stp	x21, x22, [sp, #32]
   8c2e0:	f0000015 	adrp	x21, 8f000 <g_msg+0x18>
   8c2e4:	913d22b5 	add	x21, x21, #0xf48
   8c2e8:	1400000d 	b	8c31c <prvSwitchTimerLists+0x4c>
   8c2ec:	f9400c00 	ldr	x0, [x0, #24]
   8c2f0:	f9400c13 	ldr	x19, [x0, #24]
   8c2f4:	f9400016 	ldr	x22, [x0]
   8c2f8:	91002274 	add	x20, x19, #0x8
   8c2fc:	aa1403e0 	mov	x0, x20
   8c300:	97fff600 	bl	89b00 <uxListRemove>
   8c304:	f9402661 	ldr	x1, [x19, #72]
   8c308:	aa1303e0 	mov	x0, x19
   8c30c:	d63f0020 	blr	x1
   8c310:	f9401e60 	ldr	x0, [x19, #56]
   8c314:	f100041f 	cmp	x0, #0x1
   8c318:	54000140 	b.eq	8c340 <prvSwitchTimerLists+0x70>  // b.none
   8c31c:	f9402ea0 	ldr	x0, [x21, #88]
   8c320:	f9400001 	ldr	x1, [x0]
   8c324:	b5fffe41 	cbnz	x1, 8c2ec <prvSwitchTimerLists+0x1c>
   8c328:	f94032a1 	ldr	x1, [x21, #96]
   8c32c:	a90582a1 	stp	x1, x0, [x21, #88]
   8c330:	a94153f3 	ldp	x19, x20, [sp, #16]
   8c334:	a9425bf5 	ldp	x21, x22, [sp, #32]
   8c338:	a8c37bfd 	ldp	x29, x30, [sp], #48
   8c33c:	d65f03c0 	ret
   8c340:	f9401a63 	ldr	x3, [x19, #48]
   8c344:	aa1403e1 	mov	x1, x20
   8c348:	aa1603e2 	mov	x2, x22
   8c34c:	aa1303e0 	mov	x0, x19
   8c350:	8b0302c3 	add	x3, x22, x3
   8c354:	d2800004 	mov	x4, #0x0                   	// #0
   8c358:	eb0302df 	cmp	x22, x3
   8c35c:	540000c2 	b.cs	8c374 <prvSwitchTimerLists+0xa4>  // b.hs, b.nlast
   8c360:	f9402ea0 	ldr	x0, [x21, #88]
   8c364:	f9000663 	str	x3, [x19, #8]
   8c368:	f9001273 	str	x19, [x19, #32]
   8c36c:	97fff5cd 	bl	89aa0 <vListInsert>
   8c370:	17ffffeb 	b	8c31c <prvSwitchTimerLists+0x4c>
   8c374:	d2800003 	mov	x3, #0x0                   	// #0
   8c378:	d2800001 	mov	x1, #0x0                   	// #0
   8c37c:	97ffffa9 	bl	8c220 <xTimerGenericCommand>
   8c380:	17ffffe7 	b	8c31c <prvSwitchTimerLists+0x4c>
   8c384:	d503201f 	nop
   8c388:	d503201f 	nop
   8c38c:	d503201f 	nop

000000000008c390 <prvTimerTask>:
   8c390:	a9ba7bfd 	stp	x29, x30, [sp, #-96]!
   8c394:	910003fd 	mov	x29, sp
   8c398:	a90153f3 	stp	x19, x20, [sp, #16]
   8c39c:	f0000013 	adrp	x19, 8f000 <g_msg+0x18>
   8c3a0:	913d2273 	add	x19, x19, #0xf48
   8c3a4:	a9025bf5 	stp	x21, x22, [sp, #32]
   8c3a8:	f9001bf7 	str	x23, [sp, #48]
   8c3ac:	d503201f 	nop
   8c3b0:	f9402e60 	ldr	x0, [x19, #88]
   8c3b4:	f9400015 	ldr	x21, [x0]
   8c3b8:	b4000d55 	cbz	x21, 8c560 <prvTimerTask+0x1d0>
   8c3bc:	f9400c00 	ldr	x0, [x0, #24]
   8c3c0:	f9400015 	ldr	x21, [x0]
   8c3c4:	97fff727 	bl	8a060 <vTaskSuspendAll>
   8c3c8:	97fff72e 	bl	8a080 <xTaskGetTickCount>
   8c3cc:	aa0003f4 	mov	x20, x0
   8c3d0:	f9403a61 	ldr	x1, [x19, #112]
   8c3d4:	eb01001f 	cmp	x0, x1
   8c3d8:	54000d03 	b.cc	8c578 <prvTimerTask+0x1e8>  // b.lo, b.ul, b.last
   8c3dc:	f9003a60 	str	x0, [x19, #112]
   8c3e0:	eb0002bf 	cmp	x21, x0
   8c3e4:	d2800002 	mov	x2, #0x0                   	// #0
   8c3e8:	54000da8 	b.hi	8c59c <prvTimerTask+0x20c>  // b.pmore
   8c3ec:	97fff7c1 	bl	8a2f0 <xTaskResumeAll>
   8c3f0:	f9402e60 	ldr	x0, [x19, #88]
   8c3f4:	f9400c00 	ldr	x0, [x0, #24]
   8c3f8:	f9400c16 	ldr	x22, [x0, #24]
   8c3fc:	910022d7 	add	x23, x22, #0x8
   8c400:	aa1703e0 	mov	x0, x23
   8c404:	97fff5bf 	bl	89b00 <uxListRemove>
   8c408:	f9401ec0 	ldr	x0, [x22, #56]
   8c40c:	f100041f 	cmp	x0, #0x1
   8c410:	54000f20 	b.eq	8c5f4 <prvTimerTask+0x264>  // b.none
   8c414:	f94026c1 	ldr	x1, [x22, #72]
   8c418:	aa1603e0 	mov	x0, x22
   8c41c:	d63f0020 	blr	x1
   8c420:	f9400260 	ldr	x0, [x19]
   8c424:	910123e1 	add	x1, sp, #0x48
   8c428:	d2800002 	mov	x2, #0x0                   	// #0
   8c42c:	97fffd41 	bl	8b930 <xQueueReceive>
   8c430:	b4fffc00 	cbz	x0, 8c3b0 <prvTimerTask+0x20>
   8c434:	f94027e0 	ldr	x0, [sp, #72]
   8c438:	b7ffff40 	tbnz	x0, #63, 8c420 <prvTimerTask+0x90>
   8c43c:	f9402ff5 	ldr	x21, [sp, #88]
   8c440:	f94016a0 	ldr	x0, [x21, #40]
   8c444:	b4000060 	cbz	x0, 8c450 <prvTimerTask+0xc0>
   8c448:	910022a0 	add	x0, x21, #0x8
   8c44c:	97fff5ad 	bl	89b00 <uxListRemove>
   8c450:	97fff70c 	bl	8a080 <xTaskGetTickCount>
   8c454:	aa0003f4 	mov	x20, x0
   8c458:	f9403a61 	ldr	x1, [x19, #112]
   8c45c:	eb01001f 	cmp	x0, x1
   8c460:	54000ac3 	b.cc	8c5b8 <prvTimerTask+0x228>  // b.lo, b.ul, b.last
   8c464:	f94027e2 	ldr	x2, [sp, #72]
   8c468:	f9003a74 	str	x20, [x19, #112]
   8c46c:	f100145f 	cmp	x2, #0x5
   8c470:	54000ae0 	b.eq	8c5cc <prvTimerTask+0x23c>  // b.none
   8c474:	5400058c 	b.gt	8c524 <prvTimerTask+0x194>
   8c478:	f100085f 	cmp	x2, #0x2
   8c47c:	5400038c 	b.gt	8c4ec <prvTimerTask+0x15c>
   8c480:	b7fffd02 	tbnz	x2, #63, 8c420 <prvTimerTask+0x90>
   8c484:	f9401aa1 	ldr	x1, [x21, #48]
   8c488:	f90012b5 	str	x21, [x21, #32]
   8c48c:	f9402be0 	ldr	x0, [sp, #80]
   8c490:	ab010002 	adds	x2, x0, x1
   8c494:	f90006a2 	str	x2, [x21, #8]
   8c498:	9a9f37e3 	cset	x3, cs  // cs = hs, nlast
   8c49c:	eb14005f 	cmp	x2, x20
   8c4a0:	540009c8 	b.hi	8c5d8 <prvTimerTask+0x248>  // b.pmore
   8c4a4:	cb000294 	sub	x20, x20, x0
   8c4a8:	eb14003f 	cmp	x1, x20
   8c4ac:	54000348 	b.hi	8c514 <prvTimerTask+0x184>  // b.pmore
   8c4b0:	f94026a1 	ldr	x1, [x21, #72]
   8c4b4:	aa1503e0 	mov	x0, x21
   8c4b8:	d63f0020 	blr	x1
   8c4bc:	f9401ea0 	ldr	x0, [x21, #56]
   8c4c0:	f100041f 	cmp	x0, #0x1
   8c4c4:	54fffae1 	b.ne	8c420 <prvTimerTask+0x90>  // b.any
   8c4c8:	f9402be5 	ldr	x5, [sp, #80]
   8c4cc:	aa1503e0 	mov	x0, x21
   8c4d0:	f9401aa2 	ldr	x2, [x21, #48]
   8c4d4:	d2800004 	mov	x4, #0x0                   	// #0
   8c4d8:	d2800003 	mov	x3, #0x0                   	// #0
   8c4dc:	d2800001 	mov	x1, #0x0                   	// #0
   8c4e0:	8b0200a2 	add	x2, x5, x2
   8c4e4:	97ffff4f 	bl	8c220 <xTimerGenericCommand>
   8c4e8:	17ffffce 	b	8c420 <prvTimerTask+0x90>
   8c4ec:	f100105f 	cmp	x2, #0x4
   8c4f0:	54fff981 	b.ne	8c420 <prvTimerTask+0x90>  // b.any
   8c4f4:	f9402be0 	ldr	x0, [sp, #80]
   8c4f8:	f90012b5 	str	x21, [x21, #32]
   8c4fc:	f9001aa0 	str	x0, [x21, #48]
   8c500:	8b140001 	add	x1, x0, x20
   8c504:	f90006a1 	str	x1, [x21, #8]
   8c508:	eb14003f 	cmp	x1, x20
   8c50c:	54000228 	b.hi	8c550 <prvTimerTask+0x1c0>  // b.pmore
   8c510:	b4fff880 	cbz	x0, 8c420 <prvTimerTask+0x90>
   8c514:	f9403260 	ldr	x0, [x19, #96]
   8c518:	910022a1 	add	x1, x21, #0x8
   8c51c:	97fff561 	bl	89aa0 <vListInsert>
   8c520:	17ffffc0 	b	8c420 <prvTimerTask+0x90>
   8c524:	f1001c5f 	cmp	x2, #0x7
   8c528:	54fffaed 	b.le	8c484 <prvTimerTask+0xf4>
   8c52c:	f100245f 	cmp	x2, #0x9
   8c530:	54fff781 	b.ne	8c420 <prvTimerTask+0x90>  // b.any
   8c534:	f9402be0 	ldr	x0, [sp, #80]
   8c538:	f90012b5 	str	x21, [x21, #32]
   8c53c:	f9001aa0 	str	x0, [x21, #48]
   8c540:	8b140001 	add	x1, x0, x20
   8c544:	f90006a1 	str	x1, [x21, #8]
   8c548:	eb14003f 	cmp	x1, x20
   8c54c:	54fffe29 	b.ls	8c510 <prvTimerTask+0x180>  // b.plast
   8c550:	f9402e60 	ldr	x0, [x19, #88]
   8c554:	910022a1 	add	x1, x21, #0x8
   8c558:	97fff552 	bl	89aa0 <vListInsert>
   8c55c:	17ffffb1 	b	8c420 <prvTimerTask+0x90>
   8c560:	97fff6c0 	bl	8a060 <vTaskSuspendAll>
   8c564:	97fff6c7 	bl	8a080 <xTaskGetTickCount>
   8c568:	aa0003f4 	mov	x20, x0
   8c56c:	f9403a61 	ldr	x1, [x19, #112]
   8c570:	eb01001f 	cmp	x0, x1
   8c574:	540000a2 	b.cs	8c588 <prvTimerTask+0x1f8>  // b.hs, b.nlast
   8c578:	97ffff56 	bl	8c2d0 <prvSwitchTimerLists>
   8c57c:	f9003a74 	str	x20, [x19, #112]
   8c580:	97fff75c 	bl	8a2f0 <xTaskResumeAll>
   8c584:	17ffffa7 	b	8c420 <prvTimerTask+0x90>
   8c588:	f9403260 	ldr	x0, [x19, #96]
   8c58c:	f9003a74 	str	x20, [x19, #112]
   8c590:	f9400000 	ldr	x0, [x0]
   8c594:	f100001f 	cmp	x0, #0x0
   8c598:	9a9f17e2 	cset	x2, eq  // eq = none
   8c59c:	f9400260 	ldr	x0, [x19]
   8c5a0:	cb1402a1 	sub	x1, x21, x20
   8c5a4:	97fffeaf 	bl	8c060 <vQueueWaitForMessageRestricted>
   8c5a8:	97fff752 	bl	8a2f0 <xTaskResumeAll>
   8c5ac:	b5fff3a0 	cbnz	x0, 8c420 <prvTimerTask+0x90>
   8c5b0:	d4000001 	svc	#0x0
   8c5b4:	17ffff9b 	b	8c420 <prvTimerTask+0x90>
   8c5b8:	97ffff46 	bl	8c2d0 <prvSwitchTimerLists>
   8c5bc:	f9003a74 	str	x20, [x19, #112]
   8c5c0:	f94027e2 	ldr	x2, [sp, #72]
   8c5c4:	f100145f 	cmp	x2, #0x5
   8c5c8:	54fff561 	b.ne	8c474 <prvTimerTask+0xe4>  // b.any
   8c5cc:	aa1503e0 	mov	x0, x21
   8c5d0:	940000e0 	bl	8c950 <vPortFree>
   8c5d4:	17ffff93 	b	8c420 <prvTimerTask+0x90>
   8c5d8:	f100007f 	cmp	x3, #0x0
   8c5dc:	fa540000 	ccmp	x0, x20, #0x0, eq  // eq = none
   8c5e0:	54fff688 	b.hi	8c4b0 <prvTimerTask+0x120>  // b.pmore
   8c5e4:	f9402e60 	ldr	x0, [x19, #88]
   8c5e8:	910022a1 	add	x1, x21, #0x8
   8c5ec:	97fff52d 	bl	89aa0 <vListInsert>
   8c5f0:	17ffff8c 	b	8c420 <prvTimerTask+0x90>
   8c5f4:	f9401ac1 	ldr	x1, [x22, #48]
   8c5f8:	f90012d6 	str	x22, [x22, #32]
   8c5fc:	8b0102a0 	add	x0, x21, x1
   8c600:	f90006c0 	str	x0, [x22, #8]
   8c604:	eb00029f 	cmp	x20, x0
   8c608:	54000163 	b.cc	8c634 <prvTimerTask+0x2a4>  // b.lo, b.ul, b.last
   8c60c:	cb150294 	sub	x20, x20, x21
   8c610:	eb14003f 	cmp	x1, x20
   8c614:	54000188 	b.hi	8c644 <prvTimerTask+0x2b4>  // b.pmore
   8c618:	aa1503e2 	mov	x2, x21
   8c61c:	aa1603e0 	mov	x0, x22
   8c620:	d2800004 	mov	x4, #0x0                   	// #0
   8c624:	d2800003 	mov	x3, #0x0                   	// #0
   8c628:	d2800001 	mov	x1, #0x0                   	// #0
   8c62c:	97fffefd 	bl	8c220 <xTimerGenericCommand>
   8c630:	17ffff79 	b	8c414 <prvTimerTask+0x84>
   8c634:	f9402e60 	ldr	x0, [x19, #88]
   8c638:	aa1703e1 	mov	x1, x23
   8c63c:	97fff519 	bl	89aa0 <vListInsert>
   8c640:	17ffff75 	b	8c414 <prvTimerTask+0x84>
   8c644:	f9403260 	ldr	x0, [x19, #96]
   8c648:	aa1703e1 	mov	x1, x23
   8c64c:	97fff515 	bl	89aa0 <vListInsert>
   8c650:	17ffff71 	b	8c414 <prvTimerTask+0x84>
   8c654:	d503201f 	nop
   8c658:	d503201f 	nop
   8c65c:	d503201f 	nop

000000000008c660 <xTimerGetTimerDaemonTaskHandle>:
   8c660:	f0000000 	adrp	x0, 8f000 <g_msg+0x18>
   8c664:	f947d800 	ldr	x0, [x0, #4016]
   8c668:	d65f03c0 	ret
   8c66c:	d503201f 	nop

000000000008c670 <xTimerGetPeriod>:
   8c670:	f9401800 	ldr	x0, [x0, #48]
   8c674:	d65f03c0 	ret
   8c678:	d503201f 	nop
   8c67c:	d503201f 	nop

000000000008c680 <xTimerGetExpiryTime>:
   8c680:	f9400400 	ldr	x0, [x0, #8]
   8c684:	d65f03c0 	ret
   8c688:	d503201f 	nop
   8c68c:	d503201f 	nop

000000000008c690 <pcTimerGetName>:
   8c690:	f9400000 	ldr	x0, [x0]
   8c694:	d65f03c0 	ret
   8c698:	d503201f 	nop
   8c69c:	d503201f 	nop

000000000008c6a0 <xTimerIsTimerActive>:
   8c6a0:	a9be7bfd 	stp	x29, x30, [sp, #-32]!
   8c6a4:	910003fd 	mov	x29, sp
   8c6a8:	f9000bf3 	str	x19, [sp, #16]
   8c6ac:	aa0003f3 	mov	x19, x0
   8c6b0:	97fff308 	bl	892d0 <vPortEnterCritical>
   8c6b4:	f9401660 	ldr	x0, [x19, #40]
   8c6b8:	f100001f 	cmp	x0, #0x0
   8c6bc:	9a9f07f3 	cset	x19, ne  // ne = any
   8c6c0:	97fff310 	bl	89300 <vPortExitCritical>
   8c6c4:	aa1303e0 	mov	x0, x19
   8c6c8:	f9400bf3 	ldr	x19, [sp, #16]
   8c6cc:	a8c27bfd 	ldp	x29, x30, [sp], #32
   8c6d0:	d65f03c0 	ret
   8c6d4:	d503201f 	nop
   8c6d8:	d503201f 	nop
   8c6dc:	d503201f 	nop

000000000008c6e0 <pvTimerGetTimerID>:
   8c6e0:	a9be7bfd 	stp	x29, x30, [sp, #-32]!
   8c6e4:	910003fd 	mov	x29, sp
   8c6e8:	f9000bf3 	str	x19, [sp, #16]
   8c6ec:	aa0003f3 	mov	x19, x0
   8c6f0:	97fff2f8 	bl	892d0 <vPortEnterCritical>
   8c6f4:	f9402273 	ldr	x19, [x19, #64]
   8c6f8:	97fff302 	bl	89300 <vPortExitCritical>
   8c6fc:	aa1303e0 	mov	x0, x19
   8c700:	f9400bf3 	ldr	x19, [sp, #16]
   8c704:	a8c27bfd 	ldp	x29, x30, [sp], #32
   8c708:	d65f03c0 	ret
   8c70c:	d503201f 	nop

000000000008c710 <vTimerSetTimerID>:
   8c710:	a9be7bfd 	stp	x29, x30, [sp, #-32]!
   8c714:	910003fd 	mov	x29, sp
   8c718:	a90153f3 	stp	x19, x20, [sp, #16]
   8c71c:	aa0003f3 	mov	x19, x0
   8c720:	aa0103f4 	mov	x20, x1
   8c724:	97fff2eb 	bl	892d0 <vPortEnterCritical>
   8c728:	f9002274 	str	x20, [x19, #64]
   8c72c:	a94153f3 	ldp	x19, x20, [sp, #16]
   8c730:	a8c27bfd 	ldp	x29, x30, [sp], #32
   8c734:	17fff2f3 	b	89300 <vPortExitCritical>
	...

000000000008c740 <prvInsertBlockIntoFreeList>:
   8c740:	f0000003 	adrp	x3, 8f000 <g_msg+0x18>
   8c744:	913f0063 	add	x3, x3, #0xfc0
   8c748:	aa0303e1 	mov	x1, x3
   8c74c:	d503201f 	nop
   8c750:	aa0103e2 	mov	x2, x1
   8c754:	f9400021 	ldr	x1, [x1]
   8c758:	eb00003f 	cmp	x1, x0
   8c75c:	54ffffa3 	b.cc	8c750 <prvInsertBlockIntoFreeList+0x10>  // b.lo, b.ul, b.last
   8c760:	f9400445 	ldr	x5, [x2, #8]
   8c764:	f9400404 	ldr	x4, [x0, #8]
   8c768:	8b050046 	add	x6, x2, x5
   8c76c:	eb06001f 	cmp	x0, x6
   8c770:	54000220 	b.eq	8c7b4 <prvInsertBlockIntoFreeList+0x74>  // b.none
   8c774:	8b040005 	add	x5, x0, x4
   8c778:	eb05003f 	cmp	x1, x5
   8c77c:	540000c0 	b.eq	8c794 <prvInsertBlockIntoFreeList+0x54>  // b.none
   8c780:	f9000001 	str	x1, [x0]
   8c784:	eb02001f 	cmp	x0, x2
   8c788:	54000040 	b.eq	8c790 <prvInsertBlockIntoFreeList+0x50>  // b.none
   8c78c:	f9000040 	str	x0, [x2]
   8c790:	d65f03c0 	ret
   8c794:	f9400863 	ldr	x3, [x3, #16]
   8c798:	eb03003f 	cmp	x1, x3
   8c79c:	54ffff20 	b.eq	8c780 <prvInsertBlockIntoFreeList+0x40>  // b.none
   8c7a0:	f9400423 	ldr	x3, [x1, #8]
   8c7a4:	f9400021 	ldr	x1, [x1]
   8c7a8:	8b040064 	add	x4, x3, x4
   8c7ac:	a9001001 	stp	x1, x4, [x0]
   8c7b0:	17fffff5 	b	8c784 <prvInsertBlockIntoFreeList+0x44>
   8c7b4:	8b050084 	add	x4, x4, x5
   8c7b8:	aa0203e0 	mov	x0, x2
   8c7bc:	f9000444 	str	x4, [x2, #8]
   8c7c0:	17ffffed 	b	8c774 <prvInsertBlockIntoFreeList+0x34>
   8c7c4:	d503201f 	nop
   8c7c8:	d503201f 	nop
   8c7cc:	d503201f 	nop

000000000008c7d0 <pvPortMalloc>:
   8c7d0:	a9be7bfd 	stp	x29, x30, [sp, #-32]!
   8c7d4:	910003fd 	mov	x29, sp
   8c7d8:	a90153f3 	stp	x19, x20, [sp, #16]
   8c7dc:	aa0003f3 	mov	x19, x0
   8c7e0:	97fff620 	bl	8a060 <vTaskSuspendAll>
   8c7e4:	f0000002 	adrp	x2, 8f000 <g_msg+0x18>
   8c7e8:	913f0048 	add	x8, x2, #0xfc0
   8c7ec:	f9400900 	ldr	x0, [x8, #16]
   8c7f0:	b4000760 	cbz	x0, 8c8dc <pvPortMalloc+0x10c>
   8c7f4:	f9400d09 	ldr	x9, [x8, #24]
   8c7f8:	ea13013f 	tst	x9, x19
   8c7fc:	540005e1 	b.ne	8c8b8 <pvPortMalloc+0xe8>  // b.any
   8c800:	d1000660 	sub	x0, x19, #0x1
   8c804:	b100481f 	cmn	x0, #0x12
   8c808:	54000588 	b.hi	8c8b8 <pvPortMalloc+0xe8>  // b.pmore
   8c80c:	f2400e7f 	tst	x19, #0xf
   8c810:	91004273 	add	x19, x19, #0x10
   8c814:	540004a1 	b.ne	8c8a8 <pvPortMalloc+0xd8>  // b.any
   8c818:	f940150a 	ldr	x10, [x8, #40]
   8c81c:	eb13015f 	cmp	x10, x19
   8c820:	540004c3 	b.cc	8c8b8 <pvPortMalloc+0xe8>  // b.lo, b.ul, b.last
   8c824:	f947e047 	ldr	x7, [x2, #4032]
   8c828:	aa0803e2 	mov	x2, x8
   8c82c:	14000005 	b	8c840 <pvPortMalloc+0x70>
   8c830:	f94000e0 	ldr	x0, [x7]
   8c834:	b40000c0 	cbz	x0, 8c84c <pvPortMalloc+0x7c>
   8c838:	aa0703e2 	mov	x2, x7
   8c83c:	aa0003e7 	mov	x7, x0
   8c840:	f94004e1 	ldr	x1, [x7, #8]
   8c844:	eb13003f 	cmp	x1, x19
   8c848:	54ffff43 	b.cc	8c830 <pvPortMalloc+0x60>  // b.lo, b.ul, b.last
   8c84c:	f9400900 	ldr	x0, [x8, #16]
   8c850:	eb07001f 	cmp	x0, x7
   8c854:	54000320 	b.eq	8c8b8 <pvPortMalloc+0xe8>  // b.none
   8c858:	f9400054 	ldr	x20, [x2]
   8c85c:	cb130023 	sub	x3, x1, x19
   8c860:	f94000e0 	ldr	x0, [x7]
   8c864:	f9000040 	str	x0, [x2]
   8c868:	f100807f 	cmp	x3, #0x20
   8c86c:	91004294 	add	x20, x20, #0x10
   8c870:	54000648 	b.hi	8c938 <pvPortMalloc+0x168>  // b.pmore
   8c874:	f9401100 	ldr	x0, [x8, #32]
   8c878:	cb01014a 	sub	x10, x10, x1
   8c87c:	f900150a 	str	x10, [x8, #40]
   8c880:	eb00015f 	cmp	x10, x0
   8c884:	54000042 	b.cs	8c88c <pvPortMalloc+0xbc>  // b.hs, b.nlast
   8c888:	f900110a 	str	x10, [x8, #32]
   8c88c:	f9401900 	ldr	x0, [x8, #48]
   8c890:	aa090021 	orr	x1, x1, x9
   8c894:	a90004ff 	stp	xzr, x1, [x7]
   8c898:	91000400 	add	x0, x0, #0x1
   8c89c:	f9001900 	str	x0, [x8, #48]
   8c8a0:	97fff694 	bl	8a2f0 <xTaskResumeAll>
   8c8a4:	14000008 	b	8c8c4 <pvPortMalloc+0xf4>
   8c8a8:	927cee60 	and	x0, x19, #0xfffffffffffffff0
   8c8ac:	91004000 	add	x0, x0, #0x10
   8c8b0:	eb13001f 	cmp	x0, x19
   8c8b4:	54000108 	b.hi	8c8d4 <pvPortMalloc+0x104>  // b.pmore
   8c8b8:	97fff68e 	bl	8a2f0 <xTaskResumeAll>
   8c8bc:	d2800014 	mov	x20, #0x0                   	// #0
   8c8c0:	97ffe000 	bl	848c0 <vApplicationMallocFailedHook>
   8c8c4:	aa1403e0 	mov	x0, x20
   8c8c8:	a94153f3 	ldp	x19, x20, [sp, #16]
   8c8cc:	a8c27bfd 	ldp	x29, x30, [sp], #32
   8c8d0:	d65f03c0 	ret
   8c8d4:	aa0003f3 	mov	x19, x0
   8c8d8:	17ffffd0 	b	8c818 <pvPortMalloc+0x48>
   8c8dc:	90000020 	adrp	x0, 90000 <ucHeap>
   8c8e0:	91000000 	add	x0, x0, #0x0
   8c8e4:	f2400c1f 	tst	x0, #0xf
   8c8e8:	54000220 	b.eq	8c92c <pvPortMalloc+0x15c>  // b.none
   8c8ec:	91003c01 	add	x1, x0, #0xf
   8c8f0:	927cec21 	and	x1, x1, #0xfffffffffffffff0
   8c8f4:	aa0103e3 	mov	x3, x1
   8c8f8:	91407800 	add	x0, x0, #0x1e, lsl #12
   8c8fc:	f907e043 	str	x3, [x2, #4032]
   8c900:	913fc000 	add	x0, x0, #0xff0
   8c904:	d2f00004 	mov	x4, #0x8000000000000000    	// #-9223372036854775808
   8c908:	927cec00 	and	x0, x0, #0xfffffffffffffff0
   8c90c:	a900811f 	stp	xzr, x0, [x8, #8]
   8c910:	cb010001 	sub	x1, x0, x1
   8c914:	aa0403e9 	mov	x9, x4
   8c918:	a9018504 	stp	x4, x1, [x8, #24]
   8c91c:	a9007c1f 	stp	xzr, xzr, [x0]
   8c920:	a9000460 	stp	x0, x1, [x3]
   8c924:	f9001501 	str	x1, [x8, #40]
   8c928:	17ffffb4 	b	8c7f8 <pvPortMalloc+0x28>
   8c92c:	aa0003e1 	mov	x1, x0
   8c930:	aa0003e3 	mov	x3, x0
   8c934:	17fffff1 	b	8c8f8 <pvPortMalloc+0x128>
   8c938:	8b1300e0 	add	x0, x7, x19
   8c93c:	f9000403 	str	x3, [x0, #8]
   8c940:	f90004f3 	str	x19, [x7, #8]
   8c944:	97ffff7f 	bl	8c740 <prvInsertBlockIntoFreeList>
   8c948:	f94004e1 	ldr	x1, [x7, #8]
   8c94c:	17ffffca 	b	8c874 <pvPortMalloc+0xa4>

000000000008c950 <vPortFree>:
   8c950:	b4000200 	cbz	x0, 8c990 <vPortFree+0x40>
   8c954:	a9be7bfd 	stp	x29, x30, [sp, #-32]!
   8c958:	910003fd 	mov	x29, sp
   8c95c:	a90153f3 	stp	x19, x20, [sp, #16]
   8c960:	f0000013 	adrp	x19, 8f000 <g_msg+0x18>
   8c964:	913f0273 	add	x19, x19, #0xfc0
   8c968:	f85f8002 	ldur	x2, [x0, #-8]
   8c96c:	d1004014 	sub	x20, x0, #0x10
   8c970:	f9400e61 	ldr	x1, [x19, #24]
   8c974:	ea01005f 	tst	x2, x1
   8c978:	54000060 	b.eq	8c984 <vPortFree+0x34>  // b.none
   8c97c:	f85f0000 	ldur	x0, [x0, #-16]
   8c980:	b40000a0 	cbz	x0, 8c994 <vPortFree+0x44>
   8c984:	a94153f3 	ldp	x19, x20, [sp, #16]
   8c988:	a8c27bfd 	ldp	x29, x30, [sp], #32
   8c98c:	d65f03c0 	ret
   8c990:	d65f03c0 	ret
   8c994:	8a210041 	bic	x1, x2, x1
   8c998:	f9000681 	str	x1, [x20, #8]
   8c99c:	97fff5b1 	bl	8a060 <vTaskSuspendAll>
   8c9a0:	f9400681 	ldr	x1, [x20, #8]
   8c9a4:	aa1403e0 	mov	x0, x20
   8c9a8:	f9401662 	ldr	x2, [x19, #40]
   8c9ac:	8b020021 	add	x1, x1, x2
   8c9b0:	f9001661 	str	x1, [x19, #40]
   8c9b4:	97ffff63 	bl	8c740 <prvInsertBlockIntoFreeList>
   8c9b8:	f9401e60 	ldr	x0, [x19, #56]
   8c9bc:	91000400 	add	x0, x0, #0x1
   8c9c0:	f9001e60 	str	x0, [x19, #56]
   8c9c4:	a94153f3 	ldp	x19, x20, [sp, #16]
   8c9c8:	a8c27bfd 	ldp	x29, x30, [sp], #32
   8c9cc:	17fff649 	b	8a2f0 <xTaskResumeAll>

000000000008c9d0 <xPortGetFreeHeapSize>:
   8c9d0:	f0000000 	adrp	x0, 8f000 <g_msg+0x18>
   8c9d4:	f947f400 	ldr	x0, [x0, #4072]
   8c9d8:	d65f03c0 	ret
   8c9dc:	d503201f 	nop

000000000008c9e0 <xPortGetMinimumEverFreeHeapSize>:
   8c9e0:	f0000000 	adrp	x0, 8f000 <g_msg+0x18>
   8c9e4:	f947f000 	ldr	x0, [x0, #4064]
   8c9e8:	d65f03c0 	ret
   8c9ec:	d503201f 	nop

000000000008c9f0 <vPortInitialiseBlocks>:
   8c9f0:	d65f03c0 	ret
	...

000000000008ca00 <la_reset>:
   8ca00:	91002001 	add	x1, x0, #0x8
   8ca04:	91042002 	add	x2, x0, #0x108
   8ca08:	52a00103 	mov	w3, #0x80000               	// #524288
   8ca0c:	29007c03 	stp	w3, wzr, [x0]
   8ca10:	3904201f 	strb	wzr, [x0, #264]
   8ca14:	d503201f 	nop
   8ca18:	3800143f 	strb	wzr, [x1], #1
   8ca1c:	eb02003f 	cmp	x1, x2
   8ca20:	54ffffc1 	b.ne	8ca18 <la_reset+0x18>  // b.any
   8ca24:	d65f03c0 	ret
   8ca28:	d503201f 	nop
   8ca2c:	d503201f 	nop

000000000008ca30 <la_begin>:
   8ca30:	91002004 	add	x4, x0, #0x8
   8ca34:	91042005 	add	x5, x0, #0x108
   8ca38:	3904201f 	strb	wzr, [x0, #264]
   8ca3c:	d503201f 	nop
   8ca40:	3800149f 	strb	wzr, [x4], #1
   8ca44:	eb05009f 	cmp	x4, x5
   8ca48:	54ffffc1 	b.ne	8ca40 <la_begin+0x10>  // b.any
   8ca4c:	7104003f 	cmp	w1, #0x100
   8ca50:	52802004 	mov	w4, #0x100                 	// #256
   8ca54:	1a84d021 	csel	w1, w1, w4, le
   8ca58:	7100205f 	cmp	w2, #0x8
   8ca5c:	52800104 	mov	w4, #0x8                   	// #8
   8ca60:	1a84d042 	csel	w2, w2, w4, le
   8ca64:	7100003f 	cmp	w1, #0x0
   8ca68:	b9000403 	str	w3, [x0, #4]
   8ca6c:	1a9fa021 	csel	w1, w1, wzr, ge  // ge = tcont
   8ca70:	7100005f 	cmp	w2, #0x0
   8ca74:	1a9fc442 	csinc	w2, w2, wzr, gt
   8ca78:	79000001 	strh	w1, [x0]
   8ca7c:	79000402 	strh	w2, [x0, #2]
   8ca80:	d65f03c0 	ret
   8ca84:	d503201f 	nop
   8ca88:	d503201f 	nop
   8ca8c:	d503201f 	nop

000000000008ca90 <la_chunk>:
   8ca90:	39400043 	ldrb	w3, [x2]
   8ca94:	aa0003e8 	mov	x8, x0
   8ca98:	2a0103e5 	mov	w5, w1
   8ca9c:	340006a3 	cbz	w3, 8cb70 <la_chunk+0xe0>
   8caa0:	8b21c006 	add	x6, x0, w1, sxtw
   8caa4:	12800009 	mov	w9, #0xffffffff            	// #-1
   8caa8:	52800000 	mov	w0, #0x0                   	// #0
   8caac:	14000021 	b	8cb30 <la_chunk+0xa0>
   8cab0:	51010461 	sub	w1, w3, #0x41
   8cab4:	5100dc63 	sub	w3, w3, #0x37
   8cab8:	12001c21 	and	w1, w1, #0xff
   8cabc:	7100183f 	cmp	w1, #0x6
   8cac0:	1a893061 	csel	w1, w3, w9, cc  // cc = lo, ul, last
   8cac4:	5100c083 	sub	w3, w4, #0x30
   8cac8:	12001c67 	and	w7, w3, #0xff
   8cacc:	710024ff 	cmp	w7, #0x9
   8cad0:	54000149 	b.ls	8caf8 <la_chunk+0x68>  // b.plast
   8cad4:	51018483 	sub	w3, w4, #0x61
   8cad8:	12001c63 	and	w3, w3, #0xff
   8cadc:	7100147f 	cmp	w3, #0x5
   8cae0:	54000409 	b.ls	8cb60 <la_chunk+0xd0>  // b.plast
   8cae4:	51010483 	sub	w3, w4, #0x41
   8cae8:	12001c63 	and	w3, w3, #0xff
   8caec:	7100147f 	cmp	w3, #0x5
   8caf0:	540003e8 	b.hi	8cb6c <la_chunk+0xdc>  // b.pmore
   8caf4:	5100dc83 	sub	w3, w4, #0x37
   8caf8:	3100043f 	cmn	w1, #0x1
   8cafc:	54000380 	b.eq	8cb6c <la_chunk+0xdc>  // b.none
   8cb00:	7103fcbf 	cmp	w5, #0xff
   8cb04:	540000c8 	b.hi	8cb1c <la_chunk+0x8c>  // b.pmore
   8cb08:	79400104 	ldrh	w4, [x8]
   8cb0c:	6b05009f 	cmp	w4, w5
   8cb10:	5400006d 	b.le	8cb1c <la_chunk+0x8c>
   8cb14:	2a011063 	orr	w3, w3, w1, lsl #4
   8cb18:	390020c3 	strb	w3, [x6, #8]
   8cb1c:	38402c43 	ldrb	w3, [x2, #2]!
   8cb20:	11000400 	add	w0, w0, #0x1
   8cb24:	910004c6 	add	x6, x6, #0x1
   8cb28:	110004a5 	add	w5, w5, #0x1
   8cb2c:	34000203 	cbz	w3, 8cb6c <la_chunk+0xdc>
   8cb30:	39400444 	ldrb	w4, [x2, #1]
   8cb34:	340001c4 	cbz	w4, 8cb6c <la_chunk+0xdc>
   8cb38:	5100c061 	sub	w1, w3, #0x30
   8cb3c:	12001c27 	and	w7, w1, #0xff
   8cb40:	710024ff 	cmp	w7, #0x9
   8cb44:	54fffc09 	b.ls	8cac4 <la_chunk+0x34>  // b.plast
   8cb48:	51018461 	sub	w1, w3, #0x61
   8cb4c:	12001c21 	and	w1, w1, #0xff
   8cb50:	7100143f 	cmp	w1, #0x5
   8cb54:	54fffae8 	b.hi	8cab0 <la_chunk+0x20>  // b.pmore
   8cb58:	51015c61 	sub	w1, w3, #0x57
   8cb5c:	17ffffda 	b	8cac4 <la_chunk+0x34>
   8cb60:	51015c83 	sub	w3, w4, #0x57
   8cb64:	3100043f 	cmn	w1, #0x1
   8cb68:	54fffcc1 	b.ne	8cb00 <la_chunk+0x70>  // b.any
   8cb6c:	d65f03c0 	ret
   8cb70:	52800000 	mov	w0, #0x0                   	// #0
   8cb74:	d65f03c0 	ret
   8cb78:	d503201f 	nop
   8cb7c:	d503201f 	nop

000000000008cb80 <la_logic_chrome>:
   8cb80:	a9b47bfd 	stp	x29, x30, [sp, #-192]!
   8cb84:	910003fd 	mov	x29, sp
   8cb88:	a90363f7 	stp	x23, x24, [sp, #48]
   8cb8c:	aa0003f7 	mov	x23, x0
   8cb90:	528000d8 	mov	w24, #0x6                   	// #6
   8cb94:	a90153f3 	stp	x19, x20, [sp, #16]
   8cb98:	a9025bf5 	stp	x21, x22, [sp, #32]
   8cb9c:	a9046bf9 	stp	x25, x26, [sp, #64]
   8cba0:	a90573fb 	stp	x27, x28, [sp, #80]
   8cba4:	97ffe2d3 	bl	856f0 <fb_height>
   8cba8:	b9006fe0 	str	w0, [sp, #108]
   8cbac:	97ffe2cd 	bl	856e0 <fb_width>
   8cbb0:	2a0003f6 	mov	w22, w0
   8cbb4:	97ffe2cf 	bl	856f0 <fb_height>
   8cbb8:	794006f4 	ldrh	w20, [x23, #2]
   8cbbc:	52800102 	mov	w2, #0x8                   	// #8
   8cbc0:	51019815 	sub	w21, w0, #0x66
   8cbc4:	528ccce1 	mov	w1, #0x6667                	// #26215
   8cbc8:	72acccc1 	movk	w1, #0x6666, lsl #16
   8cbcc:	7100229f 	cmp	w20, #0x8
   8cbd0:	1a829294 	csel	w20, w20, w2, ls  // ls = plast
   8cbd4:	528141c0 	mov	w0, #0xa0e                 	// #2574
   8cbd8:	72a00100 	movk	w0, #0x8, lsl #16
   8cbdc:	72003e9f 	tst	w20, #0xffff
   8cbe0:	1a9f1694 	csinc	w20, w20, wzr, ne  // ne = any
   8cbe4:	510142d6 	sub	w22, w22, #0x50
   8cbe8:	12003e94 	and	w20, w20, #0xffff
   8cbec:	1ad40eb5 	sdiv	w21, w21, w20
   8cbf0:	1b187eb3 	mul	w19, w21, w24
   8cbf4:	9b217e61 	smull	x1, w19, w1
   8cbf8:	9362fc21 	asr	x1, x1, #34
   8cbfc:	4b937c33 	sub	w19, w1, w19, asr #31
   8cc00:	97ffe33c 	bl	858f0 <fb_clear>
   8cc04:	52800043 	mov	w3, #0x2                   	// #2
   8cc08:	528001c1 	mov	w1, #0xe                   	// #14
   8cc0c:	529d7ea4 	mov	w4, #0xebf5                	// #60405
   8cc10:	72a01cc4 	movk	w4, #0xe6, lsl #16
   8cc14:	d0000002 	adrp	x2, 8e000 <sc_scope_draw+0x570>
   8cc18:	52800200 	mov	w0, #0x10                  	// #16
   8cc1c:	913cc042 	add	x2, x2, #0xf30
   8cc20:	97ffe384 	bl	85a30 <fb_text>
   8cc24:	794006e2 	ldrh	w2, [x23, #2]
   8cc28:	529999a0 	mov	w0, #0xcccd                	// #52429
   8cc2c:	72b99980 	movk	w0, #0xcccc, lsl #16
   8cc30:	52800c61 	mov	w1, #0x63                  	// #99
   8cc34:	390207e1 	strb	w1, [sp, #129]
   8cc38:	52800147 	mov	w7, #0xa                   	// #10
   8cc3c:	794002e3 	ldrh	w3, [x23]
   8cc40:	52800d05 	mov	w5, #0x68                  	// #104
   8cc44:	9ba07c41 	umull	x1, w2, w0
   8cc48:	52800404 	mov	w4, #0x20                  	// #32
   8cc4c:	39020be5 	strb	w5, [sp, #130]
   8cc50:	39020fe4 	strb	w4, [sp, #131]
   8cc54:	d363fc21 	lsr	x1, x1, #35
   8cc58:	1b078821 	msub	w1, w1, w7, w2
   8cc5c:	1100c021 	add	w1, w1, #0x30
   8cc60:	390203e1 	strb	w1, [sp, #128]
   8cc64:	35001543 	cbnz	w3, 8cf0c <la_logic_chrome+0x38c>
   8cc68:	9101c3fb 	add	x27, sp, #0x70
   8cc6c:	910203e2 	add	x2, sp, #0x80
   8cc70:	52800600 	mov	w0, #0x30                  	// #48
   8cc74:	52800126 	mov	w6, #0x9                   	// #9
   8cc78:	52800103 	mov	w3, #0x8                   	// #8
   8cc7c:	528000e4 	mov	w4, #0x7                   	// #7
   8cc80:	528000a1 	mov	w1, #0x5                   	// #5
   8cc84:	390213e0 	strb	w0, [sp, #132]
   8cc88:	52800c60 	mov	w0, #0x63                  	// #99
   8cc8c:	3821c840 	strb	w0, [x2, w1, sxtw]
   8cc90:	52800de0 	mov	w0, #0x6f                  	// #111
   8cc94:	3838c840 	strb	w0, [x2, w24, sxtw]
   8cc98:	52800d80 	mov	w0, #0x6c                  	// #108
   8cc9c:	3824c840 	strb	w0, [x2, w4, sxtw]
   8cca0:	52800400 	mov	w0, #0x20                  	// #32
   8cca4:	3823c840 	strb	w0, [x2, w3, sxtw]
   8cca8:	b94006e0 	ldr	w0, [x23, #4]
   8ccac:	528847e3 	mov	w3, #0x423f                	// #16959
   8ccb0:	72a001e3 	movk	w3, #0xf, lsl #16
   8ccb4:	6b03001f 	cmp	w0, w3
   8ccb8:	54000e49 	b.ls	8ce80 <la_logic_chrome+0x300>  // b.plast
   8ccbc:	529bd061 	mov	w1, #0xde83                	// #56963
   8ccc0:	72a86361 	movk	w1, #0x431b, lsl #16
   8ccc4:	529999a9 	mov	w9, #0xcccd                	// #52429
   8ccc8:	72b99989 	movk	w9, #0xcccc, lsl #16
   8cccc:	9ba17c00 	umull	x0, w0, w1
   8ccd0:	d2800024 	mov	x4, #0x1                   	// #1
   8ccd4:	52800148 	mov	w8, #0xa                   	// #10
   8ccd8:	d372fc00 	lsr	x0, x0, #50
   8ccdc:	d503201f 	nop
   8cce0:	9ba97c03 	umull	x3, w0, w9
   8cce4:	8b040365 	add	x5, x27, x4
   8cce8:	2a0403e7 	mov	w7, w4
   8ccec:	7100241f 	cmp	w0, #0x9
   8ccf0:	91000484 	add	x4, x4, #0x1
   8ccf4:	d363fc63 	lsr	x3, x3, #35
   8ccf8:	1b088061 	msub	w1, w3, w8, w0
   8ccfc:	2a0303e0 	mov	w0, w3
   8cd00:	1100c021 	add	w1, w1, #0x30
   8cd04:	12001c21 	and	w1, w1, #0xff
   8cd08:	381ff0a1 	sturb	w1, [x5, #-1]
   8cd0c:	54fffea8 	b.hi	8cce0 <la_logic_chrome+0x160>  // b.pmore
   8cd10:	93407ce0 	sxtw	x0, w7
   8cd14:	8b26c043 	add	x3, x2, w6, sxtw
   8cd18:	14000002 	b	8cd20 <la_logic_chrome+0x1a0>
   8cd1c:	385ff021 	ldurb	w1, [x1, #-1]
   8cd20:	38001461 	strb	w1, [x3], #1
   8cd24:	d1000400 	sub	x0, x0, #0x1
   8cd28:	8b000361 	add	x1, x27, x0
   8cd2c:	35ffff80 	cbnz	w0, 8cd1c <la_logic_chrome+0x19c>
   8cd30:	510004e7 	sub	w7, w7, #0x1
   8cd34:	110004c0 	add	w0, w6, #0x1
   8cd38:	0b070000 	add	w0, w0, w7
   8cd3c:	0b0600e6 	add	w6, w7, w6
   8cd40:	110008c6 	add	w6, w6, #0x2
   8cd44:	528009a1 	mov	w1, #0x4d                  	// #77
   8cd48:	3820c841 	strb	w1, [x2, w0, sxtw]
   8cd4c:	110004c0 	add	w0, w6, #0x1
   8cd50:	110008c5 	add	w5, w6, #0x2
   8cd54:	52800901 	mov	w1, #0x48                  	// #72
   8cd58:	3826c841 	strb	w1, [x2, w6, sxtw]
   8cd5c:	52800f41 	mov	w1, #0x7a                  	// #122
   8cd60:	52941684 	mov	w4, #0xa0b4                	// #41140
   8cd64:	72a012c4 	movk	w4, #0x96, lsl #16
   8cd68:	3820c841 	strb	w1, [x2, w0, sxtw]
   8cd6c:	3825c85f 	strb	wzr, [x2, w5, sxtw]
   8cd70:	52800043 	mov	w3, #0x2                   	// #2
   8cd74:	52800581 	mov	w1, #0x2c                  	// #44
   8cd78:	52800200 	mov	w0, #0x10                  	// #16
   8cd7c:	97ffe32d 	bl	85a30 <fb_text>
   8cd80:	d0000017 	adrp	x23, 8e000 <sc_scope_draw+0x570>
   8cd84:	913d82f7 	add	x23, x23, #0xf60
   8cd88:	4b1302a0 	sub	w0, w21, w19
   8cd8c:	52832979 	mov	w25, #0x194b                	// #6475
   8cd90:	72a01cd9 	movk	w25, #0xe6, lsl #16
   8cd94:	0b407c00 	add	w0, w0, w0, lsr #31
   8cd98:	52840518 	mov	w24, #0x2028                	// #8232
   8cd9c:	72a00398 	movk	w24, #0x1c, lsl #16
   8cda0:	110136bc 	add	w28, w21, #0x4d
   8cda4:	4b8007e0 	neg	w0, w0, asr #1
   8cda8:	d280001a 	mov	x26, #0x0                   	// #0
   8cdac:	0b000000 	add	w0, w0, w0
   8cdb0:	4b130013 	sub	w19, w0, w19
   8cdb4:	51000a73 	sub	w19, w19, #0x2
   8cdb8:	14000002 	b	8cdc0 <la_logic_chrome+0x240>
   8cdbc:	b87a7af9 	ldr	w25, [x23, x26, lsl #2]
   8cdc0:	2a1803e4 	mov	w4, w24
   8cdc4:	2a1603e2 	mov	w2, w22
   8cdc8:	2a1c03e1 	mov	w1, w28
   8cdcc:	52800023 	mov	w3, #0x1                   	// #1
   8cdd0:	52800800 	mov	w0, #0x40                  	// #64
   8cdd4:	97ffe2bf 	bl	858d0 <fb_fill>
   8cdd8:	0b1c0661 	add	w1, w19, w28, lsl #1
   8cddc:	1100c340 	add	w0, w26, #0x30
   8cde0:	52800985 	mov	w5, #0x4c                  	// #76
   8cde4:	3901c3e5 	strb	w5, [sp, #112]
   8cde8:	0b417c21 	add	w1, w1, w1, lsr #31
   8cdec:	3901c7e0 	strb	w0, [sp, #113]
   8cdf0:	3901cbff 	strb	wzr, [sp, #114]
   8cdf4:	f100175f 	cmp	x26, #0x5
   8cdf8:	3901cfff 	strb	wzr, [sp, #115]
   8cdfc:	13017c21 	asr	w1, w1, #1
   8ce00:	2a1903e4 	mov	w4, w25
   8ce04:	aa1b03e2 	mov	x2, x27
   8ce08:	51001c21 	sub	w1, w1, #0x7
   8ce0c:	9100075a 	add	x26, x26, #0x1
   8ce10:	52800043 	mov	w3, #0x2                   	// #2
   8ce14:	528001c0 	mov	w0, #0xe                   	// #14
   8ce18:	540000c1 	b.ne	8ce30 <la_logic_chrome+0x2b0>  // b.any
   8ce1c:	52800867 	mov	w7, #0x43                  	// #67
   8ce20:	52800966 	mov	w6, #0x4b                  	// #75
   8ce24:	3901c3e7 	strb	w7, [sp, #112]
   8ce28:	3901c7e5 	strb	w5, [sp, #113]
   8ce2c:	3901cbe6 	strb	w6, [sp, #114]
   8ce30:	97ffe300 	bl	85a30 <fb_text>
   8ce34:	0b15039c 	add	w28, w28, w21
   8ce38:	6b1a029f 	cmp	w20, w26
   8ce3c:	54fffc0c 	b.gt	8cdbc <la_logic_chrome+0x23c>
   8ce40:	b9406fe0 	ldr	w0, [sp, #108]
   8ce44:	52800023 	mov	w3, #0x1                   	// #1
   8ce48:	d0000002 	adrp	x2, 8e000 <sc_scope_draw+0x570>
   8ce4c:	528c4e04 	mov	w4, #0x6270                	// #25200
   8ce50:	72a00b44 	movk	w4, #0x5a, lsl #16
   8ce54:	51004801 	sub	w1, w0, #0x12
   8ce58:	913d2042 	add	x2, x2, #0xf48
   8ce5c:	52800200 	mov	w0, #0x10                  	// #16
   8ce60:	97ffe2f4 	bl	85a30 <fb_text>
   8ce64:	a94153f3 	ldp	x19, x20, [sp, #16]
   8ce68:	a9425bf5 	ldp	x21, x22, [sp, #32]
   8ce6c:	a94363f7 	ldp	x23, x24, [sp, #48]
   8ce70:	a9446bf9 	ldp	x25, x26, [sp, #64]
   8ce74:	a94573fb 	ldp	x27, x28, [sp, #80]
   8ce78:	a8cc7bfd 	ldp	x29, x30, [sp], #192
   8ce7c:	d65f03c0 	ret
   8ce80:	5289ba63 	mov	w3, #0x4dd3                	// #19923
   8ce84:	72a20c43 	movk	w3, #0x1062, lsl #16
   8ce88:	710f9c1f 	cmp	w0, #0x3e7
   8ce8c:	9ba37c00 	umull	x0, w0, w3
   8ce90:	d366fc00 	lsr	x0, x0, #38
   8ce94:	540007a9 	b.ls	8cf88 <la_logic_chrome+0x408>  // b.plast
   8ce98:	529999a9 	mov	w9, #0xcccd                	// #52429
   8ce9c:	72b99989 	movk	w9, #0xcccc, lsl #16
   8cea0:	d2800024 	mov	x4, #0x1                   	// #1
   8cea4:	52800148 	mov	w8, #0xa                   	// #10
   8cea8:	9ba97c03 	umull	x3, w0, w9
   8ceac:	8b040365 	add	x5, x27, x4
   8ceb0:	2a0403e7 	mov	w7, w4
   8ceb4:	7100241f 	cmp	w0, #0x9
   8ceb8:	91000484 	add	x4, x4, #0x1
   8cebc:	d363fc63 	lsr	x3, x3, #35
   8cec0:	1b088061 	msub	w1, w3, w8, w0
   8cec4:	2a0303e0 	mov	w0, w3
   8cec8:	1100c021 	add	w1, w1, #0x30
   8cecc:	12001c21 	and	w1, w1, #0xff
   8ced0:	381ff0a1 	sturb	w1, [x5, #-1]
   8ced4:	54fffea8 	b.hi	8cea8 <la_logic_chrome+0x328>  // b.pmore
   8ced8:	93407ce0 	sxtw	x0, w7
   8cedc:	8b26c043 	add	x3, x2, w6, sxtw
   8cee0:	14000002 	b	8cee8 <la_logic_chrome+0x368>
   8cee4:	385ff021 	ldurb	w1, [x1, #-1]
   8cee8:	38001461 	strb	w1, [x3], #1
   8ceec:	d1000400 	sub	x0, x0, #0x1
   8cef0:	8b000361 	add	x1, x27, x0
   8cef4:	35ffff80 	cbnz	w0, 8cee4 <la_logic_chrome+0x364>
   8cef8:	0b0600e7 	add	w7, w7, w6
   8cefc:	52800d60 	mov	w0, #0x6b                  	// #107
   8cf00:	110004e6 	add	w6, w7, #0x1
   8cf04:	3827c840 	strb	w0, [x2, w7, sxtw]
   8cf08:	17ffff91 	b	8cd4c <la_logic_chrome+0x1cc>
   8cf0c:	9101c3fb 	add	x27, sp, #0x70
   8cf10:	d2800024 	mov	x4, #0x1                   	// #1
   8cf14:	d503201f 	nop
   8cf18:	9ba07c62 	umull	x2, w3, w0
   8cf1c:	8b040365 	add	x5, x27, x4
   8cf20:	2a0403e6 	mov	w6, w4
   8cf24:	7100247f 	cmp	w3, #0x9
   8cf28:	91000484 	add	x4, x4, #0x1
   8cf2c:	d363fc42 	lsr	x2, x2, #35
   8cf30:	1b078c41 	msub	w1, w2, w7, w3
   8cf34:	2a0203e3 	mov	w3, w2
   8cf38:	1100c021 	add	w1, w1, #0x30
   8cf3c:	12001c21 	and	w1, w1, #0xff
   8cf40:	381ff0a1 	sturb	w1, [x5, #-1]
   8cf44:	54fffea8 	b.hi	8cf18 <la_logic_chrome+0x398>  // b.pmore
   8cf48:	910203e2 	add	x2, sp, #0x80
   8cf4c:	93407cc3 	sxtw	x3, w6
   8cf50:	aa0203e4 	mov	x4, x2
   8cf54:	14000002 	b	8cf5c <la_logic_chrome+0x3dc>
   8cf58:	385ff021 	ldurb	w1, [x1, #-1]
   8cf5c:	39001081 	strb	w1, [x4, #4]
   8cf60:	d1000463 	sub	x3, x3, #0x1
   8cf64:	8b030361 	add	x1, x27, x3
   8cf68:	91000484 	add	x4, x4, #0x1
   8cf6c:	35ffff63 	cbnz	w3, 8cf58 <la_logic_chrome+0x3d8>
   8cf70:	110010c1 	add	w1, w6, #0x4
   8cf74:	110014d8 	add	w24, w6, #0x5
   8cf78:	110018c4 	add	w4, w6, #0x6
   8cf7c:	11001cc3 	add	w3, w6, #0x7
   8cf80:	110020c6 	add	w6, w6, #0x8
   8cf84:	17ffff41 	b	8cc88 <la_logic_chrome+0x108>
   8cf88:	52800600 	mov	w0, #0x30                  	// #48
   8cf8c:	11001427 	add	w7, w1, #0x5
   8cf90:	3826c840 	strb	w0, [x2, w6, sxtw]
   8cf94:	17ffffda 	b	8cefc <la_logic_chrome+0x37c>
   8cf98:	d503201f 	nop
   8cf9c:	d503201f 	nop

000000000008cfa0 <la_logic_traces>:
   8cfa0:	a9b67bfd 	stp	x29, x30, [sp, #-160]!
   8cfa4:	910003fd 	mov	x29, sp
   8cfa8:	a90573fb 	stp	x27, x28, [sp, #80]
   8cfac:	aa0003fb 	mov	x27, x0
   8cfb0:	a90153f3 	stp	x19, x20, [sp, #16]
   8cfb4:	a9025bf5 	stp	x21, x22, [sp, #32]
   8cfb8:	a90363f7 	stp	x23, x24, [sp, #48]
   8cfbc:	528000d7 	mov	w23, #0x6                   	// #6
   8cfc0:	a9046bf9 	stp	x25, x26, [sp, #64]
   8cfc4:	97ffe1c7 	bl	856e0 <fb_width>
   8cfc8:	2a0003f3 	mov	w19, w0
   8cfcc:	97ffe1c9 	bl	856f0 <fb_height>
   8cfd0:	5101981c 	sub	w28, w0, #0x66
   8cfd4:	79400763 	ldrh	w3, [x27, #2]
   8cfd8:	52800101 	mov	w1, #0x8                   	// #8
   8cfdc:	528ccce0 	mov	w0, #0x6667                	// #26215
   8cfe0:	72acccc0 	movk	w0, #0x6666, lsl #16
   8cfe4:	7100207f 	cmp	w3, #0x8
   8cfe8:	51014262 	sub	w2, w19, #0x50
   8cfec:	1a819063 	csel	w3, w3, w1, ls  // ls = plast
   8cff0:	79400361 	ldrh	w1, [x27]
   8cff4:	72003c7f 	tst	w3, #0xffff
   8cff8:	1a9f1463 	csinc	w3, w3, wzr, ne  // ne = any
   8cffc:	12003c63 	and	w3, w3, #0xffff
   8d000:	b9009fe3 	str	w3, [sp, #156]
   8d004:	1ac30f83 	sdiv	w3, w28, w3
   8d008:	1b177c77 	mul	w23, w3, w23
   8d00c:	b9009be3 	str	w3, [sp, #152]
   8d010:	9b207ee0 	smull	x0, w23, w0
   8d014:	9362fc00 	asr	x0, x0, #34
   8d018:	4b977c17 	sub	w23, w0, w23, asr #31
   8d01c:	34000041 	cbz	w1, 8d024 <la_logic_traces+0x84>
   8d020:	1ac10c42 	sdiv	w2, w2, w1
   8d024:	b9409be3 	ldr	w3, [sp, #152]
   8d028:	7100005f 	cmp	w2, #0x0
   8d02c:	1a9fc45c 	csinc	w28, w2, wzr, gt
   8d030:	528141d3 	mov	w19, #0xa0e                 	// #2574
   8d034:	72a00113 	movk	w19, #0x8, lsl #16
   8d038:	4b170060 	sub	w0, w3, w23
   8d03c:	11013874 	add	w20, w3, #0x4e
   8d040:	b000001a 	adrp	x26, 8e000 <sc_scope_draw+0x570>
   8d044:	913d8343 	add	x3, x26, #0xf60
   8d048:	0b407c00 	add	w0, w0, w0, lsr #31
   8d04c:	f9003bff 	str	xzr, [sp, #112]
   8d050:	4b800694 	sub	w20, w20, w0, asr #1
   8d054:	b9007bf4 	str	w20, [sp, #120]
   8d058:	4b170280 	sub	w0, w20, w23
   8d05c:	f90047e3 	str	x3, [sp, #136]
   8d060:	b90093e0 	str	w0, [sp, #144]
   8d064:	d503201f 	nop
   8d068:	b94073e0 	ldr	w0, [sp, #112]
   8d06c:	b90087e0 	str	w0, [sp, #132]
   8d070:	b9407be0 	ldr	w0, [sp, #120]
   8d074:	51000802 	sub	w2, w0, #0x2
   8d078:	11000c00 	add	w0, w0, #0x3
   8d07c:	290f83e2 	stp	w2, w0, [sp, #124]
   8d080:	b94093e2 	ldr	w2, [sp, #144]
   8d084:	51000843 	sub	w3, w2, #0x2
   8d088:	b90097e3 	str	w3, [sp, #148]
   8d08c:	51001459 	sub	w25, w2, #0x5
   8d090:	340006c1 	cbz	w1, 8d168 <la_logic_traces+0x1c8>
   8d094:	b9407fe4 	ldr	w4, [sp, #124]
   8d098:	aa1b03f8 	mov	x24, x27
   8d09c:	5280081a 	mov	w26, #0x40                  	// #64
   8d0a0:	12800017 	mov	w23, #0xffffffff            	// #-1
   8d0a4:	d503201f 	nop
   8d0a8:	39402301 	ldrb	w1, [x24, #8]
   8d0ac:	2a1703e3 	mov	w3, w23
   8d0b0:	394213e0 	ldrb	w0, [sp, #132]
   8d0b4:	294f5bf5 	ldp	w21, w22, [sp, #120]
   8d0b8:	1ac02821 	asr	w1, w1, w0
   8d0bc:	12000037 	and	w23, w1, #0x1
   8d0c0:	36000041 	tbz	w1, #0, 8d0c8 <la_logic_traces+0x128>
   8d0c4:	29525bf5 	ldp	w21, w22, [sp, #144]
   8d0c8:	7100007f 	cmp	w3, #0x0
   8d0cc:	2a1603f4 	mov	w20, w22
   8d0d0:	7a57a064 	ccmp	w3, w23, #0x4, ge  // ge = tcont
   8d0d4:	5280004c 	mov	w12, #0x2                   	// #2
   8d0d8:	540000c0 	b.eq	8d0f0 <la_logic_traces+0x150>  // b.none
   8d0dc:	6b0402df 	cmp	w22, w4
   8d0e0:	1a84a2c5 	csel	w5, w22, w4, ge  // ge = tcont
   8d0e4:	1a84d2d4 	csel	w20, w22, w4, le
   8d0e8:	0b0c00b5 	add	w21, w5, w12
   8d0ec:	4b1402ac 	sub	w12, w21, w20
   8d0f0:	2a1a03e0 	mov	w0, w26
   8d0f4:	2a1303e4 	mov	w4, w19
   8d0f8:	4b190283 	sub	w3, w20, w25
   8d0fc:	2a1c03e2 	mov	w2, w28
   8d100:	2a1903e1 	mov	w1, w25
   8d104:	b9006fec 	str	w12, [sp, #108]
   8d108:	97ffe1f2 	bl	858d0 <fb_fill>
   8d10c:	91000718 	add	x24, x24, #0x1
   8d110:	f9403be1 	ldr	x1, [sp, #112]
   8d114:	2a1c03e2 	mov	w2, w28
   8d118:	f94047e0 	ldr	x0, [sp, #136]
   8d11c:	b9406fec 	ldr	w12, [sp, #108]
   8d120:	b8617804 	ldr	w4, [x0, x1, lsl #2]
   8d124:	2a0c03e3 	mov	w3, w12
   8d128:	2a1a03e0 	mov	w0, w26
   8d12c:	2a1403e1 	mov	w1, w20
   8d130:	97ffe1e8 	bl	858d0 <fb_fill>
   8d134:	b94083e0 	ldr	w0, [sp, #128]
   8d138:	2a1303e4 	mov	w4, w19
   8d13c:	2a1503e1 	mov	w1, w21
   8d140:	2a1c03e2 	mov	w2, w28
   8d144:	4b150003 	sub	w3, w0, w21
   8d148:	2a1a03e0 	mov	w0, w26
   8d14c:	97ffe1e1 	bl	858d0 <fb_fill>
   8d150:	0b1c035a 	add	w26, w26, w28
   8d154:	79400361 	ldrh	w1, [x27]
   8d158:	4b1b0303 	sub	w3, w24, w27
   8d15c:	2a1603e4 	mov	w4, w22
   8d160:	6b03003f 	cmp	w1, w3
   8d164:	54fffa2c 	b.gt	8d0a8 <la_logic_traces+0x108>
   8d168:	b94093e3 	ldr	w3, [sp, #144]
   8d16c:	b9409be2 	ldr	w2, [sp, #152]
   8d170:	f9403be0 	ldr	x0, [sp, #112]
   8d174:	0b020063 	add	w3, w3, w2
   8d178:	b90093e3 	str	w3, [sp, #144]
   8d17c:	b9409fe3 	ldr	w3, [sp, #156]
   8d180:	91000400 	add	x0, x0, #0x1
   8d184:	f9003be0 	str	x0, [sp, #112]
   8d188:	6b00007f 	cmp	w3, w0
   8d18c:	b9407be0 	ldr	w0, [sp, #120]
   8d190:	0b020000 	add	w0, w0, w2
   8d194:	b9007be0 	str	w0, [sp, #120]
   8d198:	54fff68c 	b.gt	8d068 <la_logic_traces+0xc8>
   8d19c:	a94153f3 	ldp	x19, x20, [sp, #16]
   8d1a0:	a9425bf5 	ldp	x21, x22, [sp, #32]
   8d1a4:	a94363f7 	ldp	x23, x24, [sp, #48]
   8d1a8:	a9446bf9 	ldp	x25, x26, [sp, #64]
   8d1ac:	a94573fb 	ldp	x27, x28, [sp, #80]
   8d1b0:	a8ca7bfd 	ldp	x29, x30, [sp], #160
   8d1b4:	d65f03c0 	ret
   8d1b8:	d503201f 	nop
   8d1bc:	d503201f 	nop

000000000008d1c0 <la_logic_draw>:
   8d1c0:	a9be7bfd 	stp	x29, x30, [sp, #-32]!
   8d1c4:	910003fd 	mov	x29, sp
   8d1c8:	f9000bf3 	str	x19, [sp, #16]
   8d1cc:	aa0003f3 	mov	x19, x0
   8d1d0:	97fffe6c 	bl	8cb80 <la_logic_chrome>
   8d1d4:	aa1303e0 	mov	x0, x19
   8d1d8:	f9400bf3 	ldr	x19, [sp, #16]
   8d1dc:	a8c27bfd 	ldp	x29, x30, [sp], #32
   8d1e0:	17ffff70 	b	8cfa0 <la_logic_traces>
	...

000000000008d1f0 <sc_reset>:
   8d1f0:	52a00021 	mov	w1, #0x10000               	// #65536
   8d1f4:	29007c01 	stp	w1, wzr, [x0]
   8d1f8:	390f201f 	strb	wzr, [x0, #968]
   8d1fc:	d65f03c0 	ret

000000000008d200 <sc_begin>:
   8d200:	7107803f 	cmp	w1, #0x1e0
   8d204:	52803c04 	mov	w4, #0x1e0                 	// #480
   8d208:	1a84d021 	csel	w1, w1, w4, le
   8d20c:	52800024 	mov	w4, #0x1                   	// #1
   8d210:	7100003f 	cmp	w1, #0x0
   8d214:	1a84c021 	csel	w1, w1, w4, gt
   8d218:	79000001 	strh	w1, [x0]
   8d21c:	7100005f 	cmp	w2, #0x0
   8d220:	540000ad 	b.le	8d234 <sc_begin+0x34>
   8d224:	71000c5f 	cmp	w2, #0x3
   8d228:	12003c42 	and	w2, w2, #0xffff
   8d22c:	52800044 	mov	w4, #0x2                   	// #2
   8d230:	1a84b044 	csel	w4, w2, w4, lt  // lt = tstop
   8d234:	79000404 	strh	w4, [x0, #2]
   8d238:	b9000403 	str	w3, [x0, #4]
   8d23c:	390f201f 	strb	wzr, [x0, #968]
   8d240:	d65f03c0 	ret
   8d244:	d503201f 	nop
   8d248:	d503201f 	nop
   8d24c:	d503201f 	nop

000000000008d250 <sc_chunk>:
   8d250:	7100043f 	cmp	w1, #0x1
   8d254:	aa0003e8 	mov	x8, x0
   8d258:	540006c8 	b.hi	8d330 <sc_chunk+0xe0>  // b.pmore
   8d25c:	39400064 	ldrb	w4, [x3]
   8d260:	34000684 	cbz	w4, 8d330 <sc_chunk+0xe0>
   8d264:	93407c46 	sxtw	x6, w2
   8d268:	52803c05 	mov	w5, #0x1e0                 	// #480
   8d26c:	52800000 	mov	w0, #0x0                   	// #0
   8d270:	12800009 	mov	w9, #0xffffffff            	// #-1
   8d274:	9b251821 	smaddl	x1, w1, w5, x6
   8d278:	8b010106 	add	x6, x8, x1
   8d27c:	1400001b 	b	8d2e8 <sc_chunk+0x98>
   8d280:	51010487 	sub	w7, w4, #0x41
   8d284:	5100dc81 	sub	w1, w4, #0x37
   8d288:	12001ce4 	and	w4, w7, #0xff
   8d28c:	7100189f 	cmp	w4, #0x6
   8d290:	1a893021 	csel	w1, w1, w9, cc  // cc = lo, ul, last
   8d294:	5100c0a4 	sub	w4, w5, #0x30
   8d298:	12001c87 	and	w7, w4, #0xff
   8d29c:	710024ff 	cmp	w7, #0x9
   8d2a0:	54000149 	b.ls	8d2c8 <sc_chunk+0x78>  // b.plast
   8d2a4:	510184a4 	sub	w4, w5, #0x61
   8d2a8:	12001c84 	and	w4, w4, #0xff
   8d2ac:	7100149f 	cmp	w4, #0x5
   8d2b0:	540003c9 	b.ls	8d328 <sc_chunk+0xd8>  // b.plast
   8d2b4:	510104a4 	sub	w4, w5, #0x41
   8d2b8:	12001c84 	and	w4, w4, #0xff
   8d2bc:	7100149f 	cmp	w4, #0x5
   8d2c0:	540003a8 	b.hi	8d334 <sc_chunk+0xe4>  // b.pmore
   8d2c4:	5100dca4 	sub	w4, w5, #0x37
   8d2c8:	3100043f 	cmn	w1, #0x1
   8d2cc:	54000340 	b.eq	8d334 <sc_chunk+0xe4>  // b.none
   8d2d0:	2a011081 	orr	w1, w4, w1, lsl #4
   8d2d4:	390020c1 	strb	w1, [x6, #8]
   8d2d8:	11000400 	add	w0, w0, #0x1
   8d2dc:	910004c6 	add	x6, x6, #0x1
   8d2e0:	38402c64 	ldrb	w4, [x3, #2]!
   8d2e4:	34000284 	cbz	w4, 8d334 <sc_chunk+0xe4>
   8d2e8:	39400465 	ldrb	w5, [x3, #1]
   8d2ec:	34000245 	cbz	w5, 8d334 <sc_chunk+0xe4>
   8d2f0:	79400107 	ldrh	w7, [x8]
   8d2f4:	0b000041 	add	w1, w2, w0
   8d2f8:	6b0100ff 	cmp	w7, w1
   8d2fc:	540001cd 	b.le	8d334 <sc_chunk+0xe4>
   8d300:	5100c081 	sub	w1, w4, #0x30
   8d304:	12001c27 	and	w7, w1, #0xff
   8d308:	710024ff 	cmp	w7, #0x9
   8d30c:	54fffc49 	b.ls	8d294 <sc_chunk+0x44>  // b.plast
   8d310:	51018481 	sub	w1, w4, #0x61
   8d314:	12001c21 	and	w1, w1, #0xff
   8d318:	7100143f 	cmp	w1, #0x5
   8d31c:	54fffb28 	b.hi	8d280 <sc_chunk+0x30>  // b.pmore
   8d320:	51015c81 	sub	w1, w4, #0x57
   8d324:	17ffffdc 	b	8d294 <sc_chunk+0x44>
   8d328:	51015ca4 	sub	w4, w5, #0x57
   8d32c:	17ffffe7 	b	8d2c8 <sc_chunk+0x78>
   8d330:	52800000 	mov	w0, #0x0                   	// #0
   8d334:	d65f03c0 	ret
   8d338:	d503201f 	nop
   8d33c:	d503201f 	nop

000000000008d340 <sc_scope_chrome>:
   8d340:	a9b77bfd 	stp	x29, x30, [sp, #-144]!
   8d344:	910003fd 	mov	x29, sp
   8d348:	a90153f3 	stp	x19, x20, [sp, #16]
   8d34c:	a9025bf5 	stp	x21, x22, [sp, #32]
   8d350:	aa0003f6 	mov	x22, x0
   8d354:	a90363f7 	stp	x23, x24, [sp, #48]
   8d358:	a9046bf9 	stp	x25, x26, [sp, #64]
   8d35c:	97ffe0e1 	bl	856e0 <fb_width>
   8d360:	2a0003f5 	mov	w21, w0
   8d364:	97ffe0e3 	bl	856f0 <fb_height>
   8d368:	51014813 	sub	w19, w0, #0x52
   8d36c:	97ffe0e1 	bl	856f0 <fb_height>
   8d370:	2a0003f7 	mov	w23, w0
   8d374:	528141c0 	mov	w0, #0xa0e                 	// #2574
   8d378:	72a00100 	movk	w0, #0x8, lsl #16
   8d37c:	97ffe15d 	bl	858f0 <fb_clear>
   8d380:	5100eab4 	sub	w20, w21, #0x3a
   8d384:	52800043 	mov	w3, #0x2                   	// #2
   8d388:	528001c1 	mov	w1, #0xe                   	// #14
   8d38c:	b0000002 	adrp	x2, 8e000 <sc_scope_draw+0x570>
   8d390:	529d7ea4 	mov	w4, #0xebf5                	// #60405
   8d394:	72a01cc4 	movk	w4, #0xe6, lsl #16
   8d398:	913e0042 	add	x2, x2, #0xf80
   8d39c:	52800200 	mov	w0, #0x10                  	// #16
   8d3a0:	97ffe1a4 	bl	85a30 <fb_text>
   8d3a4:	794006c1 	ldrh	w1, [x22, #2]
   8d3a8:	52800863 	mov	w3, #0x43                  	// #67
   8d3ac:	52800902 	mov	w2, #0x48                  	// #72
   8d3b0:	52800820 	mov	w0, #0x41                  	// #65
   8d3b4:	3901a3e3 	strb	w3, [sp, #104]
   8d3b8:	7100043f 	cmp	w1, #0x1
   8d3bc:	3901a7e2 	strb	w2, [sp, #105]
   8d3c0:	3901abe0 	strb	w0, [sp, #106]
   8d3c4:	54001fc9 	b.ls	8d7bc <sc_scope_chrome+0x47c>  // b.plast
   8d3c8:	d28000e1 	mov	x1, #0x7                   	// #7
   8d3cc:	2a0103eb 	mov	w11, w1
   8d3d0:	52800562 	mov	w2, #0x2b                  	// #43
   8d3d4:	52800840 	mov	w0, #0x42                  	// #66
   8d3d8:	528000c5 	mov	w5, #0x6                   	// #6
   8d3dc:	528000a3 	mov	w3, #0x5                   	// #5
   8d3e0:	3901afe2 	strb	w2, [sp, #107]
   8d3e4:	3901b3e0 	strb	w0, [sp, #108]
   8d3e8:	9101a3e2 	add	x2, sp, #0x68
   8d3ec:	794002c4 	ldrh	w4, [x22]
   8d3f0:	52800400 	mov	w0, #0x20                  	// #32
   8d3f4:	3823c840 	strb	w0, [x2, w3, sxtw]
   8d3f8:	3825c840 	strb	w0, [x2, w5, sxtw]
   8d3fc:	350019c4 	cbnz	w4, 8d734 <sc_scope_chrome+0x3f4>
   8d400:	11000c64 	add	w4, w3, #0x3
   8d404:	52800600 	mov	w0, #0x30                  	// #48
   8d408:	38216840 	strb	w0, [x2, x1]
   8d40c:	11000483 	add	w3, w4, #0x1
   8d410:	11000880 	add	w0, w4, #0x2
   8d414:	52800a61 	mov	w1, #0x53                  	// #83
   8d418:	3824c841 	strb	w1, [x2, w4, sxtw]
   8d41c:	52800405 	mov	w5, #0x20                  	// #32
   8d420:	b94006c1 	ldr	w1, [x22, #4]
   8d424:	3823c845 	strb	w5, [x2, w3, sxtw]
   8d428:	11000c89 	add	w9, w4, #0x3
   8d42c:	3820c845 	strb	w5, [x2, w0, sxtw]
   8d430:	528847e3 	mov	w3, #0x423f                	// #16959
   8d434:	72a001e3 	movk	w3, #0xf, lsl #16
   8d438:	6b03003f 	cmp	w1, w3
   8d43c:	540012c9 	b.ls	8d694 <sc_scope_chrome+0x354>  // b.plast
   8d440:	529bd060 	mov	w0, #0xde83                	// #56963
   8d444:	72a86360 	movk	w0, #0x431b, lsl #16
   8d448:	910163e5 	add	x5, sp, #0x58
   8d44c:	529999ab 	mov	w11, #0xcccd                	// #52429
   8d450:	72b9998b 	movk	w11, #0xcccc, lsl #16
   8d454:	9ba07c21 	umull	x1, w1, w0
   8d458:	d2800026 	mov	x6, #0x1                   	// #1
   8d45c:	5280014a 	mov	w10, #0xa                   	// #10
   8d460:	d372fc21 	lsr	x1, x1, #50
   8d464:	d503201f 	nop
   8d468:	9bab7c20 	umull	x0, w1, w11
   8d46c:	8b0600a7 	add	x7, x5, x6
   8d470:	2a0603e8 	mov	w8, w6
   8d474:	7100243f 	cmp	w1, #0x9
   8d478:	910004c6 	add	x6, x6, #0x1
   8d47c:	d363fc00 	lsr	x0, x0, #35
   8d480:	1b0a8403 	msub	w3, w0, w10, w1
   8d484:	2a0003e1 	mov	w1, w0
   8d488:	1100c063 	add	w3, w3, #0x30
   8d48c:	12001c63 	and	w3, w3, #0xff
   8d490:	381ff0e3 	sturb	w3, [x7, #-1]
   8d494:	54fffea8 	b.hi	8d468 <sc_scope_chrome+0x128>  // b.pmore
   8d498:	93407d00 	sxtw	x0, w8
   8d49c:	8b24c007 	add	x7, x0, w4, sxtw
   8d4a0:	91000ce7 	add	x7, x7, #0x3
   8d4a4:	8b070047 	add	x7, x2, x7
   8d4a8:	14000002 	b	8d4b0 <sc_scope_chrome+0x170>
   8d4ac:	385ff0c3 	ldurb	w3, [x6, #-1]
   8d4b0:	cb0003e1 	neg	x1, x0
   8d4b4:	d1000400 	sub	x0, x0, #0x1
   8d4b8:	8b0000a6 	add	x6, x5, x0
   8d4bc:	382168e3 	strb	w3, [x7, x1]
   8d4c0:	35ffff60 	cbnz	w0, 8d4ac <sc_scope_chrome+0x16c>
   8d4c4:	51000508 	sub	w8, w8, #0x1
   8d4c8:	11001084 	add	w4, w4, #0x4
   8d4cc:	0b080084 	add	w4, w4, w8
   8d4d0:	0b080128 	add	w8, w9, w8
   8d4d4:	11000900 	add	w0, w8, #0x2
   8d4d8:	528009a1 	mov	w1, #0x4d                  	// #77
   8d4dc:	3824c841 	strb	w1, [x2, w4, sxtw]
   8d4e0:	11000403 	add	w3, w0, #0x1
   8d4e4:	11000801 	add	w1, w0, #0x2
   8d4e8:	11000c05 	add	w5, w0, #0x3
   8d4ec:	52800a64 	mov	w4, #0x53                  	// #83
   8d4f0:	3820c844 	strb	w4, [x2, w0, sxtw]
   8d4f4:	528005e0 	mov	w0, #0x2f                  	// #47
   8d4f8:	3823c840 	strb	w0, [x2, w3, sxtw]
   8d4fc:	52800e60 	mov	w0, #0x73                  	// #115
   8d500:	3821c840 	strb	w0, [x2, w1, sxtw]
   8d504:	52800043 	mov	w3, #0x2                   	// #2
   8d508:	3825c85f 	strb	wzr, [x2, w5, sxtw]
   8d50c:	52800581 	mov	w1, #0x2c                  	// #44
   8d510:	52941684 	mov	w4, #0xa0b4                	// #41140
   8d514:	72a012c4 	movk	w4, #0x96, lsl #16
   8d518:	52800200 	mov	w0, #0x10                  	// #16
   8d51c:	97ffe145 	bl	85a30 <fb_text>
   8d520:	510292a0 	sub	w0, w21, #0xa4
   8d524:	b0000002 	adrp	x2, 8e000 <sc_scope_draw+0x570>
   8d528:	529b8784 	mov	w4, #0xdc3c                	// #56380
   8d52c:	72a01e04 	movk	w4, #0xf0, lsl #16
   8d530:	913e6042 	add	x2, x2, #0xf98
   8d534:	52800043 	mov	w3, #0x2                   	// #2
   8d538:	52800201 	mov	w1, #0x10                  	// #16
   8d53c:	97ffe13d 	bl	85a30 <fb_text>
   8d540:	794006c0 	ldrh	w0, [x22, #2]
   8d544:	7100041f 	cmp	w0, #0x1
   8d548:	54000129 	b.ls	8d56c <sc_scope_chrome+0x22c>  // b.plast
   8d54c:	b0000002 	adrp	x2, 8e000 <sc_scope_draw+0x570>
   8d550:	529a5d64 	mov	w4, #0xd2eb                	// #53995
   8d554:	72a008c4 	movk	w4, #0x46, lsl #16
   8d558:	51015aa0 	sub	w0, w21, #0x56
   8d55c:	913e8042 	add	x2, x2, #0xfa0
   8d560:	52800043 	mov	w3, #0x2                   	// #2
   8d564:	52800201 	mov	w1, #0x10                  	// #16
   8d568:	97ffe132 	bl	85a30 <fb_text>
   8d56c:	528cccf6 	mov	w22, #0x6667                	// #26215
   8d570:	72acccd6 	movk	w22, #0x6666, lsl #16
   8d574:	528647d8 	mov	w24, #0x323e                	// #12862
   8d578:	72a00598 	movk	w24, #0x2c, lsl #16
   8d57c:	5283c4d5 	mov	w21, #0x1e26                	// #7718
   8d580:	72a00355 	movk	w21, #0x1a, lsl #16
   8d584:	52800019 	mov	w25, #0x0                   	// #0
   8d588:	5280001a 	mov	w26, #0x0                   	// #0
   8d58c:	d503201f 	nop
   8d590:	9b367f20 	smull	x0, w25, w22
   8d594:	1100075a 	add	w26, w26, #0x1
   8d598:	2a1503e4 	mov	w4, w21
   8d59c:	2a1303e3 	mov	w3, w19
   8d5a0:	71001b5f 	cmp	w26, #0x6
   8d5a4:	52800022 	mov	w2, #0x1                   	// #1
   8d5a8:	9362fc00 	asr	x0, x0, #34
   8d5ac:	52800701 	mov	w1, #0x38                  	// #56
   8d5b0:	4b997c00 	sub	w0, w0, w25, asr #31
   8d5b4:	1100b000 	add	w0, w0, #0x2c
   8d5b8:	54000560 	b.eq	8d664 <sc_scope_chrome+0x324>  // b.none
   8d5bc:	97ffe0c5 	bl	858d0 <fb_fill>
   8d5c0:	71002f5f 	cmp	w26, #0xb
   8d5c4:	54000060 	b.eq	8d5d0 <sc_scope_chrome+0x290>  // b.none
   8d5c8:	0b140339 	add	w25, w25, w20
   8d5cc:	17fffff1 	b	8d590 <sc_scope_chrome+0x250>
   8d5d0:	528647d8 	mov	w24, #0x323e                	// #12862
   8d5d4:	72a00598 	movk	w24, #0x2c, lsl #16
   8d5d8:	5283c4d6 	mov	w22, #0x1e26                	// #7718
   8d5dc:	72a00356 	movk	w22, #0x1a, lsl #16
   8d5e0:	52800015 	mov	w21, #0x0                   	// #0
   8d5e4:	52800019 	mov	w25, #0x0                   	// #0
   8d5e8:	710002bf 	cmp	w21, #0x0
   8d5ec:	11001ea1 	add	w1, w21, #0x7
   8d5f0:	1a95b021 	csel	w1, w1, w21, lt  // lt = tstop
   8d5f4:	11000739 	add	w25, w25, #0x1
   8d5f8:	2a1603e4 	mov	w4, w22
   8d5fc:	2a1403e2 	mov	w2, w20
   8d600:	13037c21 	asr	w1, w1, #3
   8d604:	7100173f 	cmp	w25, #0x5
   8d608:	1100e021 	add	w1, w1, #0x38
   8d60c:	52800023 	mov	w3, #0x1                   	// #1
   8d610:	52800580 	mov	w0, #0x2c                  	// #44
   8d614:	54000340 	b.eq	8d67c <sc_scope_chrome+0x33c>  // b.none
   8d618:	97ffe0ae 	bl	858d0 <fb_fill>
   8d61c:	7100273f 	cmp	w25, #0x9
   8d620:	54000060 	b.eq	8d62c <sc_scope_chrome+0x2ec>  // b.none
   8d624:	0b1302b5 	add	w21, w21, w19
   8d628:	17fffff0 	b	8d5e8 <sc_scope_chrome+0x2a8>
   8d62c:	51004ae1 	sub	w1, w23, #0x12
   8d630:	52800023 	mov	w3, #0x1                   	// #1
   8d634:	b0000002 	adrp	x2, 8e000 <sc_scope_draw+0x570>
   8d638:	528c4e04 	mov	w4, #0x6270                	// #25200
   8d63c:	72a00b44 	movk	w4, #0x5a, lsl #16
   8d640:	913ea042 	add	x2, x2, #0xfa8
   8d644:	52800200 	mov	w0, #0x10                  	// #16
   8d648:	97ffe0fa 	bl	85a30 <fb_text>
   8d64c:	a94153f3 	ldp	x19, x20, [sp, #16]
   8d650:	a9425bf5 	ldp	x21, x22, [sp, #32]
   8d654:	a94363f7 	ldp	x23, x24, [sp, #48]
   8d658:	a9446bf9 	ldp	x25, x26, [sp, #64]
   8d65c:	a8c97bfd 	ldp	x29, x30, [sp], #144
   8d660:	d65f03c0 	ret
   8d664:	2a1803e4 	mov	w4, w24
   8d668:	52800022 	mov	w2, #0x1                   	// #1
   8d66c:	52800701 	mov	w1, #0x38                  	// #56
   8d670:	0b140339 	add	w25, w25, w20
   8d674:	97ffe097 	bl	858d0 <fb_fill>
   8d678:	17ffffc6 	b	8d590 <sc_scope_chrome+0x250>
   8d67c:	2a1803e4 	mov	w4, w24
   8d680:	52800023 	mov	w3, #0x1                   	// #1
   8d684:	52800580 	mov	w0, #0x2c                  	// #44
   8d688:	0b1302b5 	add	w21, w21, w19
   8d68c:	97ffe091 	bl	858d0 <fb_fill>
   8d690:	17ffffd6 	b	8d5e8 <sc_scope_chrome+0x2a8>
   8d694:	5289ba60 	mov	w0, #0x4dd3                	// #19923
   8d698:	72a20c40 	movk	w0, #0x1062, lsl #16
   8d69c:	710f9c3f 	cmp	w1, #0x3e7
   8d6a0:	9ba07c21 	umull	x1, w1, w0
   8d6a4:	d366fc21 	lsr	x1, x1, #38
   8d6a8:	54000829 	b.ls	8d7ac <sc_scope_chrome+0x46c>  // b.plast
   8d6ac:	910163e5 	add	x5, sp, #0x58
   8d6b0:	529999aa 	mov	w10, #0xcccd                	// #52429
   8d6b4:	72b9998a 	movk	w10, #0xcccc, lsl #16
   8d6b8:	d2800026 	mov	x6, #0x1                   	// #1
   8d6bc:	52800149 	mov	w9, #0xa                   	// #10
   8d6c0:	9baa7c23 	umull	x3, w1, w10
   8d6c4:	8b0600a7 	add	x7, x5, x6
   8d6c8:	2a0603e8 	mov	w8, w6
   8d6cc:	7100243f 	cmp	w1, #0x9
   8d6d0:	910004c6 	add	x6, x6, #0x1
   8d6d4:	d363fc63 	lsr	x3, x3, #35
   8d6d8:	1b098460 	msub	w0, w3, w9, w1
   8d6dc:	2a0303e1 	mov	w1, w3
   8d6e0:	1100c000 	add	w0, w0, #0x30
   8d6e4:	12001c00 	and	w0, w0, #0xff
   8d6e8:	381ff0e0 	sturb	w0, [x7, #-1]
   8d6ec:	54fffea8 	b.hi	8d6c0 <sc_scope_chrome+0x380>  // b.pmore
   8d6f0:	93407d01 	sxtw	x1, w8
   8d6f4:	8b24c027 	add	x7, x1, w4, sxtw
   8d6f8:	91000ce7 	add	x7, x7, #0x3
   8d6fc:	8b070047 	add	x7, x2, x7
   8d700:	14000002 	b	8d708 <sc_scope_chrome+0x3c8>
   8d704:	385ff0c0 	ldurb	w0, [x6, #-1]
   8d708:	cb0103e3 	neg	x3, x1
   8d70c:	d1000421 	sub	x1, x1, #0x1
   8d710:	8b0100a6 	add	x6, x5, x1
   8d714:	382368e0 	strb	w0, [x7, x3]
   8d718:	35ffff61 	cbnz	w1, 8d704 <sc_scope_chrome+0x3c4>
   8d71c:	0b080084 	add	w4, w4, w8
   8d720:	11000c84 	add	w4, w4, #0x3
   8d724:	52800961 	mov	w1, #0x4b                  	// #75
   8d728:	11000480 	add	w0, w4, #0x1
   8d72c:	3824c841 	strb	w1, [x2, w4, sxtw]
   8d730:	17ffff6c 	b	8d4e0 <sc_scope_chrome+0x1a0>
   8d734:	910163e5 	add	x5, sp, #0x58
   8d738:	529999aa 	mov	w10, #0xcccd                	// #52429
   8d73c:	72b9998a 	movk	w10, #0xcccc, lsl #16
   8d740:	d2800026 	mov	x6, #0x1                   	// #1
   8d744:	52800149 	mov	w9, #0xa                   	// #10
   8d748:	9baa7c83 	umull	x3, w4, w10
   8d74c:	8b0600a7 	add	x7, x5, x6
   8d750:	2a0603e8 	mov	w8, w6
   8d754:	7100249f 	cmp	w4, #0x9
   8d758:	910004c6 	add	x6, x6, #0x1
   8d75c:	d363fc63 	lsr	x3, x3, #35
   8d760:	1b099061 	msub	w1, w3, w9, w4
   8d764:	2a0303e4 	mov	w4, w3
   8d768:	1100c021 	add	w1, w1, #0x30
   8d76c:	12001c21 	and	w1, w1, #0xff
   8d770:	381ff0e1 	sturb	w1, [x7, #-1]
   8d774:	54fffea8 	b.hi	8d748 <sc_scope_chrome+0x408>  // b.pmore
   8d778:	51000508 	sub	w8, w8, #0x1
   8d77c:	93407d63 	sxtw	x3, w11
   8d780:	8b030043 	add	x3, x2, x3
   8d784:	93407d00 	sxtw	x0, w8
   8d788:	14000003 	b	8d794 <sc_scope_chrome+0x454>
   8d78c:	385ff0c1 	ldurb	w1, [x6, #-1]
   8d790:	d1000400 	sub	x0, x0, #0x1
   8d794:	38001461 	strb	w1, [x3], #1
   8d798:	8b0000a6 	add	x6, x5, x0
   8d79c:	35ffff80 	cbnz	w0, 8d78c <sc_scope_chrome+0x44c>
   8d7a0:	11000564 	add	w4, w11, #0x1
   8d7a4:	0b080084 	add	w4, w4, w8
   8d7a8:	17ffff19 	b	8d40c <sc_scope_chrome+0xcc>
   8d7ac:	52800600 	mov	w0, #0x30                  	// #48
   8d7b0:	11001084 	add	w4, w4, #0x4
   8d7b4:	3829c840 	strb	w0, [x2, w9, sxtw]
   8d7b8:	17ffffdb 	b	8d724 <sc_scope_chrome+0x3e4>
   8d7bc:	d28000a1 	mov	x1, #0x5                   	// #5
   8d7c0:	52800085 	mov	w5, #0x4                   	// #4
   8d7c4:	2a0103eb 	mov	w11, w1
   8d7c8:	52800063 	mov	w3, #0x3                   	// #3
   8d7cc:	17ffff07 	b	8d3e8 <sc_scope_chrome+0xa8>

000000000008d7d0 <sc_scope_traces>:
   8d7d0:	a9b77bfd 	stp	x29, x30, [sp, #-144]!
   8d7d4:	910003fd 	mov	x29, sp
   8d7d8:	a90153f3 	stp	x19, x20, [sp, #16]
   8d7dc:	aa0003f3 	mov	x19, x0
   8d7e0:	a9025bf5 	stp	x21, x22, [sp, #32]
   8d7e4:	a90363f7 	stp	x23, x24, [sp, #48]
   8d7e8:	a9046bf9 	stp	x25, x26, [sp, #64]
   8d7ec:	f90037e0 	str	x0, [sp, #104]
   8d7f0:	97ffdfbc 	bl	856e0 <fb_width>
   8d7f4:	2a0003f8 	mov	w24, w0
   8d7f8:	97ffdfbe 	bl	856f0 <fb_height>
   8d7fc:	79400264 	ldrh	w4, [x19]
   8d800:	5100eb18 	sub	w24, w24, #0x3a
   8d804:	79400663 	ldrh	w3, [x19, #2]
   8d808:	51014815 	sub	w21, w0, #0x52
   8d80c:	7100009f 	cmp	w4, #0x0
   8d810:	1a9f1493 	csinc	w19, w4, wzr, ne  // ne = any
   8d814:	12003e73 	and	w19, w19, #0xffff
   8d818:	1ad30f13 	sdiv	w19, w24, w19
   8d81c:	7100027f 	cmp	w19, #0x0
   8d820:	1a9fc673 	csinc	w19, w19, wzr, gt
   8d824:	34000363 	cbz	w3, 8d890 <sc_scope_traces+0xc0>
   8d828:	f94037e5 	ldr	x5, [sp, #104]
   8d82c:	52801fe1 	mov	w1, #0xff                  	// #255
   8d830:	52901022 	mov	w2, #0x8081                	// #32897
   8d834:	72b01002 	movk	w2, #0x8080, lsl #16
   8d838:	7100047f 	cmp	w3, #0x1
   8d83c:	394020a0 	ldrb	w0, [x5, #8]
   8d840:	4b000020 	sub	w0, w1, w0
   8d844:	1b157c00 	mul	w0, w0, w21
   8d848:	9b227c03 	smull	x3, w0, w2
   8d84c:	d360fc63 	lsr	x3, x3, #32
   8d850:	0b030003 	add	w3, w0, w3
   8d854:	13077c63 	asr	w3, w3, #7
   8d858:	4b807c60 	sub	w0, w3, w0, asr #31
   8d85c:	1100e000 	add	w0, w0, #0x38
   8d860:	b9008be0 	str	w0, [sp, #136]
   8d864:	54000160 	b.eq	8d890 <sc_scope_traces+0xc0>  // b.none
   8d868:	3947a0a0 	ldrb	w0, [x5, #488]
   8d86c:	4b000020 	sub	w0, w1, w0
   8d870:	1b157c00 	mul	w0, w0, w21
   8d874:	9b227c01 	smull	x1, w0, w2
   8d878:	d360fc21 	lsr	x1, x1, #32
   8d87c:	0b010001 	add	w1, w0, w1
   8d880:	13077c21 	asr	w1, w1, #7
   8d884:	4b807c20 	sub	w0, w1, w0, asr #31
   8d888:	1100e000 	add	w0, w0, #0x38
   8d88c:	b9008fe0 	str	w0, [sp, #140]
   8d890:	f9003fff 	str	xzr, [sp, #120]
   8d894:	1100b279 	add	w25, w19, #0x2c
   8d898:	52800016 	mov	w22, #0x0                   	// #0
   8d89c:	34000de4 	cbz	w4, 8da58 <sc_scope_traces+0x288>
   8d8a0:	5283c4d7 	mov	w23, #0x1e26                	// #7718
   8d8a4:	72a00357 	movk	w23, #0x1a, lsl #16
   8d8a8:	a90573fb 	stp	x27, x28, [sp, #80]
   8d8ac:	528647db 	mov	w27, #0x323e                	// #12862
   8d8b0:	72a0059b 	movk	w27, #0x2c, lsl #16
   8d8b4:	d503201f 	nop
   8d8b8:	1100b2d4 	add	w20, w22, #0x2c
   8d8bc:	528141c4 	mov	w4, #0xa0e                 	// #2574
   8d8c0:	72a00104 	movk	w4, #0x8, lsl #16
   8d8c4:	2a1403e0 	mov	w0, w20
   8d8c8:	2a1503e3 	mov	w3, w21
   8d8cc:	2a1303e2 	mov	w2, w19
   8d8d0:	5280001c 	mov	w28, #0x0                   	// #0
   8d8d4:	5280001a 	mov	w26, #0x0                   	// #0
   8d8d8:	52800701 	mov	w1, #0x38                  	// #56
   8d8dc:	97ffdffd 	bl	858d0 <fb_fill>
   8d8e0:	7100039f 	cmp	w28, #0x0
   8d8e4:	11001f81 	add	w1, w28, #0x7
   8d8e8:	1a9cb021 	csel	w1, w1, w28, lt  // lt = tstop
   8d8ec:	1100075a 	add	w26, w26, #0x1
   8d8f0:	2a1703e4 	mov	w4, w23
   8d8f4:	2a1303e2 	mov	w2, w19
   8d8f8:	13037c21 	asr	w1, w1, #3
   8d8fc:	2a1403e0 	mov	w0, w20
   8d900:	1100e021 	add	w1, w1, #0x38
   8d904:	7100175f 	cmp	w26, #0x5
   8d908:	52800023 	mov	w3, #0x1                   	// #1
   8d90c:	54000b20 	b.eq	8da70 <sc_scope_traces+0x2a0>  // b.none
   8d910:	97ffdff0 	bl	858d0 <fb_fill>
   8d914:	7100275f 	cmp	w26, #0x9
   8d918:	54000060 	b.eq	8d924 <sc_scope_traces+0x154>  // b.none
   8d91c:	0b15039c 	add	w28, w28, w21
   8d920:	17fffff0 	b	8d8e0 <sc_scope_traces+0x110>
   8d924:	528cccfc 	mov	w28, #0x6667                	// #26215
   8d928:	72acccdc 	movk	w28, #0x6666, lsl #16
   8d92c:	52800005 	mov	w5, #0x0                   	// #0
   8d930:	5280001a 	mov	w26, #0x0                   	// #0
   8d934:	d503201f 	nop
   8d938:	9b3c7ca1 	smull	x1, w5, w28
   8d93c:	9362fc21 	asr	x1, x1, #34
   8d940:	4b857c21 	sub	w1, w1, w5, asr #31
   8d944:	0b1800a5 	add	w5, w5, w24
   8d948:	1100b020 	add	w0, w1, #0x2c
   8d94c:	6b16003f 	cmp	w1, w22
   8d950:	5400016b 	b.lt	8d97c <sc_scope_traces+0x1ac>  // b.tstop
   8d954:	6b19001f 	cmp	w0, w25
   8d958:	5400012a 	b.ge	8d97c <sc_scope_traces+0x1ac>  // b.tcont
   8d95c:	7100175f 	cmp	w26, #0x5
   8d960:	2a1503e3 	mov	w3, w21
   8d964:	1a970364 	csel	w4, w27, w23, eq  // eq = none
   8d968:	52800022 	mov	w2, #0x1                   	// #1
   8d96c:	52800701 	mov	w1, #0x38                  	// #56
   8d970:	b90063e5 	str	w5, [sp, #96]
   8d974:	97ffdfd7 	bl	858d0 <fb_fill>
   8d978:	b94063e5 	ldr	w5, [sp, #96]
   8d97c:	1100075a 	add	w26, w26, #0x1
   8d980:	71002f5f 	cmp	w26, #0xb
   8d984:	54fffda1 	b.ne	8d938 <sc_scope_traces+0x168>  // b.any
   8d988:	f94037e1 	ldr	x1, [sp, #104]
   8d98c:	79400420 	ldrh	w0, [x1, #2]
   8d990:	34000500 	cbz	w0, 8da30 <sc_scope_traces+0x260>
   8d994:	f9403fe0 	ldr	x0, [sp, #120]
   8d998:	910223e7 	add	x7, sp, #0x88
   8d99c:	529b8784 	mov	w4, #0xdc3c                	// #56380
   8d9a0:	72a01e04 	movk	w4, #0xf0, lsl #16
   8d9a4:	8b000028 	add	x8, x1, x0
   8d9a8:	5280001c 	mov	w28, #0x0                   	// #0
   8d9ac:	39402105 	ldrb	w5, [x8, #8]
   8d9b0:	52801fe0 	mov	w0, #0xff                  	// #255
   8d9b4:	52901021 	mov	w1, #0x8081                	// #32897
   8d9b8:	72b01001 	movk	w1, #0x8080, lsl #16
   8d9bc:	4b050005 	sub	w5, w0, w5
   8d9c0:	b94000e3 	ldr	w3, [x7]
   8d9c4:	91078108 	add	x8, x8, #0x1e0
   8d9c8:	2a1403e0 	mov	w0, w20
   8d9cc:	2a1303e2 	mov	w2, w19
   8d9d0:	f90033e8 	str	x8, [sp, #96]
   8d9d4:	1b157ca5 	mul	w5, w5, w21
   8d9d8:	f9003be7 	str	x7, [sp, #112]
   8d9dc:	1100079c 	add	w28, w28, #0x1
   8d9e0:	9b217ca1 	smull	x1, w5, w1
   8d9e4:	d360fc21 	lsr	x1, x1, #32
   8d9e8:	0b0100a1 	add	w1, w5, w1
   8d9ec:	13077c21 	asr	w1, w1, #7
   8d9f0:	4b857c25 	sub	w5, w1, w5, asr #31
   8d9f4:	1100e0ba 	add	w26, w5, #0x38
   8d9f8:	6b1a007f 	cmp	w3, w26
   8d9fc:	1a9ad061 	csel	w1, w3, w26, le
   8da00:	1a9aa063 	csel	w3, w3, w26, ge  // ge = tcont
   8da04:	4b010063 	sub	w3, w3, w1
   8da08:	11000863 	add	w3, w3, #0x2
   8da0c:	97ffdfb1 	bl	858d0 <fb_fill>
   8da10:	a94603e8 	ldp	x8, x0, [sp, #96]
   8da14:	529a5d64 	mov	w4, #0xd2eb                	// #53995
   8da18:	72a008c4 	movk	w4, #0x46, lsl #16
   8da1c:	f9403be7 	ldr	x7, [sp, #112]
   8da20:	79400400 	ldrh	w0, [x0, #2]
   8da24:	b80044fa 	str	w26, [x7], #4
   8da28:	6b1c001f 	cmp	w0, w28
   8da2c:	54fffc0c 	b.gt	8d9ac <sc_scope_traces+0x1dc>
   8da30:	f94037e0 	ldr	x0, [sp, #104]
   8da34:	0b1302d6 	add	w22, w22, w19
   8da38:	f9403fe1 	ldr	x1, [sp, #120]
   8da3c:	0b130339 	add	w25, w25, w19
   8da40:	79400000 	ldrh	w0, [x0]
   8da44:	91000421 	add	x1, x1, #0x1
   8da48:	f9003fe1 	str	x1, [sp, #120]
   8da4c:	6b01001f 	cmp	w0, w1
   8da50:	54fff34c 	b.gt	8d8b8 <sc_scope_traces+0xe8>
   8da54:	a94573fb 	ldp	x27, x28, [sp, #80]
   8da58:	a94153f3 	ldp	x19, x20, [sp, #16]
   8da5c:	a9425bf5 	ldp	x21, x22, [sp, #32]
   8da60:	a94363f7 	ldp	x23, x24, [sp, #48]
   8da64:	a9446bf9 	ldp	x25, x26, [sp, #64]
   8da68:	a8c97bfd 	ldp	x29, x30, [sp], #144
   8da6c:	d65f03c0 	ret
   8da70:	2a1b03e4 	mov	w4, w27
   8da74:	52800023 	mov	w3, #0x1                   	// #1
   8da78:	0b15039c 	add	w28, w28, w21
   8da7c:	97ffdf95 	bl	858d0 <fb_fill>
   8da80:	17ffff98 	b	8d8e0 <sc_scope_traces+0x110>
   8da84:	d503201f 	nop
   8da88:	d503201f 	nop
   8da8c:	d503201f 	nop

000000000008da90 <sc_scope_draw>:
   8da90:	a9be7bfd 	stp	x29, x30, [sp, #-32]!
   8da94:	910003fd 	mov	x29, sp
   8da98:	f9000bf3 	str	x19, [sp, #16]
   8da9c:	aa0003f3 	mov	x19, x0
   8daa0:	97fffe28 	bl	8d340 <sc_scope_chrome>
   8daa4:	aa1303e0 	mov	x0, x19
   8daa8:	f9400bf3 	ldr	x19, [sp, #16]
   8daac:	a8c27bfd 	ldp	x29, x30, [sp], #32
   8dab0:	17ffff48 	b	8d7d0 <sc_scope_traces>

Disassembly of section .rodata:

000000000008dab8 <font5x7-0x910>:
   8dab8:	00000030 	udf	#48
   8dabc:	00000000 	udf	#0
   8dac0:	6d6d6f63 	ldp	d3, d27, [x27, #-304]
   8dac4:	73646e61 	.inst	0x73646e61 ; undefined
   8dac8:	000a0d3a 	.inst	0x000a0d3a ; undefined
   8dacc:	00000000 	udf	#0
   8dad0:	65732020 	fmls	z0.h, p0/m, z1.h, z19.h
   8dad4:	48482074 	ldxrh	w20, [x3]
   8dad8:	5b4d4d3a 	.inst	0x5b4d4d3a ; undefined
   8dadc:	5d53533a 	.inst	0x5d53533a ; undefined
   8dae0:	20202020 	.inst	0x20202020 ; undefined
   8dae4:	20202020 	.inst	0x20202020 ; undefined
   8dae8:	65732020 	fmls	z0.h, p0/m, z1.h, z19.h
   8daec:	79732f74 	ldrh	w20, [x27, #6550]
   8daf0:	6320636e 	.inst	0x6320636e ; undefined
   8daf4:	6b636f6c 	.inst	0x6b636f6c ; undefined
   8daf8:	544e2820 	b.eq	129ffc <__bss_end+0x7affc>  // b.none
   8dafc:	0a0d2950 	and	w16, w10, w13, lsl #10
	...
   8db08:	69742020 	ldpsw	x0, x8, [x1, #-96]
   8db0c:	2020656d 	.inst	0x2020656d ; undefined
   8db10:	20202020 	.inst	0x20202020 ; undefined
   8db14:	20202020 	.inst	0x20202020 ; undefined
   8db18:	20202020 	.inst	0x20202020 ; undefined
   8db1c:	20202020 	.inst	0x20202020 ; undefined
   8db20:	6f687320 	fcmla	v0.8h, v25.8h, v8.h[1], #270
   8db24:	74732077 	.inst	0x74732077 ; undefined
   8db28:	73757461 	.inst	0x73757461 ; undefined
   8db2c:	00000a0d 	udf	#2573
   8db30:	736d2020 	.inst	0x736d2020 ; undefined
   8db34:	743c2067 	.inst	0x743c2067 ; undefined
   8db38:	3e747865 	.inst	0x3e747865 ; undefined
   8db3c:	20202020 	.inst	0x20202020 ; undefined
   8db40:	20202020 	.inst	0x20202020 ; undefined
   8db44:	20202020 	.inst	0x20202020 ; undefined
   8db48:	72616d20 	.inst	0x72616d20 ; undefined
   8db4c:	65657571 	fnmls	z17.h, p5/m, z11.h, z5.h
   8db50:	73656d20 	.inst	0x73656d20 ; undefined
   8db54:	65676173 	fnmls	z19.h, p0/m, z11.h, z7.h
   8db58:	68732820 	.inst	0x68732820 ; undefined
   8db5c:	206e776f 	.inst	0x206e776f ; undefined
   8db60:	45505055 	ssubwb	z21.h, z2.h, z16.b
   8db64:	53414352 	.inst	0x53414352 ; undefined
   8db68:	61202c45 	.inst	0x61202c45 ; undefined
   8db6c:	7961776c 	ldrh	w12, [x27, #4282]
   8db70:	0a0d2973 	and	w19, w11, w13, lsl #10
   8db74:	00000000 	udf	#0
   8db78:	656e2020 	fmls	z0.h, p0/m, z1.h, z14.h
   8db7c:	67736d74 	.inst	0x67736d74 ; undefined
   8db80:	65743c20 	fmls	z0.h, p7/m, z1.h, z20.h
   8db84:	203e7478 	.inst	0x203e7478 ; undefined
   8db88:	20202020 	.inst	0x20202020 ; undefined
   8db8c:	20202020 	.inst	0x20202020 ; undefined
   8db90:	72616d20 	.inst	0x72616d20 ; undefined
   8db94:	65657571 	fnmls	z17.h, p5/m, z11.h, z5.h
   8db98:	73656d20 	.inst	0x73656d20 ; undefined
   8db9c:	65676173 	fnmls	z19.h, p0/m, z11.h, z7.h
   8dba0:	726f2820 	.inst	0x726f2820 ; undefined
   8dba4:	63206769 	.inst	0x63206769 ; undefined
   8dba8:	3b657361 	.inst	0x3b657361 ; undefined
   8dbac:	74756220 	.inst	0x74756220 ; undefined
   8dbb0:	206e6f74 	.inst	0x206e6f74 ; undefined
   8dbb4:	206e6163 	.inst	0x206e6163 ; undefined
   8dbb8:	65746167 	fnmls	z7.h, p0/m, z11.h, z20.h
   8dbbc:	000a0d29 	.inst	0x000a0d29 ; undefined
   8dbc0:	72712020 	.inst	0x72712020 ; undefined
   8dbc4:	6c6c7566 	ldnp	d6, d29, [x11, #-320]
   8dbc8:	65743c20 	fmls	z0.h, p7/m, z1.h, z20.h
   8dbcc:	203e7478 	.inst	0x203e7478 ; undefined
   8dbd0:	20202020 	.inst	0x20202020 ; undefined
   8dbd4:	20202020 	.inst	0x20202020 ; undefined
   8dbd8:	6c756620 	ldnp	d0, d25, [x17, #-176]
   8dbdc:	63732d6c 	.inst	0x63732d6c ; undefined
   8dbe0:	6e656572 	umax	v18.8h, v11.8h, v5.8h
   8dbe4:	20525120 	.inst	0x20525120 ; undefined
   8dbe8:	48206e6f 	.inst	0x48206e6f ; undefined
   8dbec:	20494d44 	.inst	0x20494d44 ; undefined
   8dbf0:	696c6128 	ldpsw	x8, x24, [x9, #-160]
   8dbf4:	203a7361 	.inst	0x203a7361 ; undefined
   8dbf8:	0d297271 	.inst	0x0d297271 ; undefined
   8dbfc:	0000000a 	udf	#10
   8dc00:	72712020 	.inst	0x72712020 ; undefined
   8dc04:	6c616d73 	ldnp	d19, d27, [x11, #-496]
   8dc08:	743c206c 	.inst	0x743c206c ; undefined
   8dc0c:	3e747865 	.inst	0x3e747865 ; undefined
   8dc10:	20202020 	.inst	0x20202020 ; undefined
   8dc14:	20202020 	.inst	0x20202020 ; undefined
   8dc18:	616d7320 	.inst	0x616d7320 ; undefined
   8dc1c:	51206c6c 	sub	w12, w3, #0x81b
   8dc20:	65622052 	fmls	z18.h, p0/m, z2.h, z2.h
   8dc24:	65657774 	fnmls	z20.h, p5/m, z27.h, z5.h
   8dc28:	6162206e 	.inst	0x6162206e ; undefined
   8dc2c:	20262072 	.inst	0x20262072 ; undefined
   8dc30:	7172616d 	subs	w13, w11, #0xc98, lsl #12
   8dc34:	0d656575 	.inst	0x0d656575 ; undefined
   8dc38:	0000000a 	udf	#10
   8dc3c:	00000000 	udf	#0
   8dc40:	72712020 	.inst	0x72712020 ; undefined
   8dc44:	66666f20 	.inst	0x66666f20 ; undefined
   8dc48:	20202020 	.inst	0x20202020 ; undefined
   8dc4c:	20202020 	.inst	0x20202020 ; undefined
   8dc50:	20202020 	.inst	0x20202020 ; undefined
   8dc54:	20202020 	.inst	0x20202020 ; undefined
   8dc58:	64696820 	.inst	0x64696820 ; undefined
   8dc5c:	52512065 	.inst	0x52512065 ; undefined
   8dc60:	6162202c 	.inst	0x6162202c ; undefined
   8dc64:	74206b63 	.inst	0x74206b63 ; undefined
   8dc68:	6c63206f 	ldnp	d15, d8, [x3, #-464]
   8dc6c:	0d6b636f 	.inst	0x0d6b636f ; undefined
   8dc70:	0000000a 	udf	#10
   8dc74:	00000000 	udf	#0
   8dc78:	75722020 	.inst	0x75722020 ; undefined
   8dc7c:	207c206e 	.inst	0x207c206e ; undefined
   8dc80:	706f7473 	adr	x19, 16cb0f <__bss_end+0xbdb0f>
   8dc84:	20202020 	.inst	0x20202020 ; undefined
   8dc88:	20202020 	.inst	0x20202020 ; undefined
   8dc8c:	20202020 	.inst	0x20202020 ; undefined
   8dc90:	65777320 	fnmls	z0.h, p4/m, z25.h, z23.h
   8dc94:	6f207065 	.inst	0x6f207065 ; undefined
   8dc98:	666f2f6e 	.inst	0x666f2f6e ; undefined
   8dc9c:	000a0d66 	.inst	0x000a0d66 ; undefined
   8dca0:	70732020 	adr	x0, 1740a7 <__bss_end+0xc50a7>
   8dca4:	20646565 	.inst	0x20646565 ; undefined
   8dca8:	2d30323c 	stp	s28, s12, [x17, #-128]
   8dcac:	30303031 	adr	x17, ee2b1 <__bss_end+0x3f2b1>
   8dcb0:	2020203e 	.inst	0x2020203e ; undefined
   8dcb4:	20202020 	.inst	0x20202020 ; undefined
   8dcb8:	65777320 	fnmls	z0.h, p4/m, z25.h, z23.h
   8dcbc:	66207065 	.inst	0x66207065 ; undefined
   8dcc0:	656d6172 	fnmls	z18.h, p0/m, z11.h, z13.h
   8dcc4:	0d736d20 	.inst	0x0d736d20 ; undefined
   8dcc8:	0000000a 	udf	#10
   8dccc:	00000000 	udf	#0
   8dcd0:	656c2020 	fmls	z0.h, p0/m, z1.h, z12.h
   8dcd4:	3c207364 	.inst	0x3c207364 ; undefined
   8dcd8:	35322d30 	cbnz	w16, f227c <__bss_end+0x4327c>
   8dcdc:	20203e35 	.inst	0x20203e35 ; undefined
   8dce0:	20202020 	.inst	0x20202020 ; undefined
   8dce4:	20202020 	.inst	0x20202020 ; undefined
   8dce8:	6e616d20 	umin	v0.8h, v9.8h, v1.8h
   8dcec:	206c6175 	.inst	0x206c6175 ; undefined
   8dcf0:	2044454c 	.inst	0x2044454c ; undefined
   8dcf4:	6b73616d 	.inst	0x6b73616d ; undefined
   8dcf8:	3d302820 	str	b0, [x1, #3082]
   8dcfc:	6f747561 	uqshl	v1.2d, v11.2d, #52
   8dd00:	65777320 	fnmls	z0.h, p4/m, z25.h, z23.h
   8dd04:	0d297065 	.inst	0x0d297065 ; undefined
   8dd08:	0000000a 	udf	#10
   8dd0c:	00000000 	udf	#0
   8dd10:	65732020 	fmls	z0.h, p0/m, z1.h, z19.h
   8dd14:	206f7672 	.inst	0x206f7672 ; undefined
   8dd18:	312d303c 	adds	w28, w1, #0xb4c
   8dd1c:	203e3038 	.inst	0x203e3038 ; undefined
   8dd20:	20202020 	.inst	0x20202020 ; undefined
   8dd24:	20202020 	.inst	0x20202020 ; undefined
   8dd28:	74657320 	.inst	0x74657320 ; undefined
   8dd2c:	72657320 	.inst	0x72657320 ; undefined
   8dd30:	61206f76 	.inst	0x61206f76 ; undefined
   8dd34:	656c676e 	fnmls	z14.h, p1/m, z27.h, z12.h
   8dd38:	74732820 	.inst	0x74732820 ; undefined
   8dd3c:	2073706f 	.inst	0x2073706f ; undefined
   8dd40:	65657773 	fnmls	z19.h, p5/m, z27.h, z5.h
   8dd44:	0a0d2970 	and	w16, w11, w13, lsl #10
	...
   8dd50:	65732020 	fmls	z0.h, p0/m, z1.h, z19.h
   8dd54:	206f7672 	.inst	0x206f7672 ; undefined
   8dd58:	7c6e7572 	.inst	0x7c6e7572 ; undefined
   8dd5c:	706f7473 	adr	x19, 16cbeb <__bss_end+0xbdbeb>
   8dd60:	20202020 	.inst	0x20202020 ; undefined
   8dd64:	20202020 	.inst	0x20202020 ; undefined
   8dd68:	74756120 	.inst	0x74756120 ; undefined
   8dd6c:	77732d6f 	.inst	0x77732d6f ; undefined
   8dd70:	20706565 	.inst	0x20706565 ; undefined
   8dd74:	6f2f6e6f 	.inst	0x6f2f6e6f ; undefined
   8dd78:	0a0d6666 	and	w6, w19, w13, lsl #25
   8dd7c:	00000000 	udf	#0
   8dd80:	65732020 	fmls	z0.h, p0/m, z1.h, z19.h
   8dd84:	206f7672 	.inst	0x206f7672 ; undefined
   8dd88:	65657073 	fnmls	z19.h, p4/m, z3.h, z5.h
   8dd8c:	313c2064 	adds	w4, w3, #0xf08
   8dd90:	3e30332d 	.inst	0x3e30332d ; undefined
   8dd94:	20202020 	.inst	0x20202020 ; undefined
   8dd98:	65777320 	fnmls	z0.h, p4/m, z25.h, z23.h
   8dd9c:	64207065 	.inst	0x64207065 ; undefined
   8dda0:	70206765 	adr	x5, cea8f <__bss_end+0x1fa8f>
   8dda4:	74207265 	.inst	0x74207265 ; undefined
   8dda8:	0d6b6369 	.inst	0x0d6b6369 ; undefined
   8ddac:	0000000a 	udf	#10
   8ddb0:	65732020 	fmls	z0.h, p0/m, z1.h, z19.h
   8ddb4:	206f7672 	.inst	0x206f7672 ; undefined
   8ddb8:	20726964 	.inst	0x20726964 ; undefined
   8ddbc:	317c303c 	adds	w28, w1, #0xf0c, lsl #12
   8ddc0:	2020203e 	.inst	0x2020203e ; undefined
   8ddc4:	20202020 	.inst	0x20202020 ; undefined
   8ddc8:	65777320 	fnmls	z0.h, p4/m, z25.h, z23.h
   8ddcc:	64207065 	.inst	0x64207065 ; undefined
   8ddd0:	63657269 	.inst	0x63657269 ; undefined
   8ddd4:	6e6f6974 	.inst	0x6e6f6974 ; undefined
   8ddd8:	00000a0d 	udf	#2573
   8dddc:	00000000 	udf	#0
   8dde0:	74732020 	.inst	0x74732020 ; undefined
   8dde4:	20207065 	.inst	0x20207065 ; undefined
   8dde8:	7c6e7572 	.inst	0x7c6e7572 ; undefined
   8ddec:	706f7473 	adr	x19, 16cc7b <__bss_end+0xbdc7b>
   8ddf0:	20202020 	.inst	0x20202020 ; undefined
   8ddf4:	20202020 	.inst	0x20202020 ; undefined
   8ddf8:	65747320 	fnmls	z0.h, p4/m, z25.h, z20.h
   8ddfc:	72657070 	.inst	0x72657070 ; undefined
   8de00:	2f6e6f20 	.inst	0x2f6e6f20 ; undefined
   8de04:	0d66666f 	.inst	0x0d66666f ; undefined
   8de08:	0000000a 	udf	#10
   8de0c:	00000000 	udf	#0
   8de10:	74732020 	.inst	0x74732020 ; undefined
   8de14:	20207065 	.inst	0x20207065 ; undefined
   8de18:	65657073 	fnmls	z19.h, p4/m, z3.h, z5.h
   8de1c:	313c2064 	adds	w4, w3, #0xf08
   8de20:	3030312d 	adr	x13, ee445 <__bss_end+0x3f445>
   8de24:	20203e30 	.inst	0x20203e30 ; undefined
   8de28:	65747320 	fnmls	z0.h, p4/m, z25.h, z20.h
   8de2c:	72657070 	.inst	0x72657070 ; undefined
   8de30:	65747320 	fnmls	z0.h, p4/m, z25.h, z20.h
   8de34:	732f7370 	.inst	0x732f7370 ; undefined
   8de38:	0a0d6365 	and	w5, w27, w13, lsl #24
   8de3c:	00000000 	udf	#0
   8de40:	74732020 	.inst	0x74732020 ; undefined
   8de44:	20207065 	.inst	0x20207065 ; undefined
   8de48:	20726964 	.inst	0x20726964 ; undefined
   8de4c:	317c303c 	adds	w28, w1, #0xf0c, lsl #12
   8de50:	2020203e 	.inst	0x2020203e ; undefined
   8de54:	20202020 	.inst	0x20202020 ; undefined
   8de58:	65747320 	fnmls	z0.h, p4/m, z25.h, z20.h
   8de5c:	72657070 	.inst	0x72657070 ; undefined
   8de60:	2f574320 	mls	v0.4h, v25.4h, v7.h[1]
   8de64:	0d574343 	.inst	0x0d574343 ; undefined
   8de68:	0000000a 	udf	#10
   8de6c:	00000000 	udf	#0
   8de70:	72622020 	.inst	0x72622020 ; undefined
   8de74:	74686769 	.inst	0x74686769 ; undefined
   8de78:	2d303c20 	stp	s0, s15, [x1, #-128]
   8de7c:	203e3531 	.inst	0x203e3531 ; undefined
   8de80:	20202020 	.inst	0x20202020 ; undefined
   8de84:	20202020 	.inst	0x20202020 ; undefined
   8de88:	58414d20 	ldr	x0, 11082c <__bss_end+0x6182c>
   8de8c:	39313237 	strb	w23, [x17, #3148]
   8de90:	746e6920 	.inst	0x746e6920 ; undefined
   8de94:	69736e65 	ldpsw	x5, x27, [x19, #-104]
   8de98:	0a0d7974 	and	w20, w11, w13, lsl #30
   8de9c:	00000000 	udf	#0
   8dea0:	72702020 	.inst	0x72702020 ; undefined
   8dea4:	72657961 	.inst	0x72657961 ; undefined
   8dea8:	2d303c20 	stp	s0, s15, [x1, #-128]
   8deac:	3c203e35 	.inst	0x3c203e35 ; undefined
   8deb0:	454d414e 	saddwb	z14.h, z10.h, z13.b
   8deb4:	483c203e 	.inst	0x483c203e ; undefined
   8deb8:	4d4d3a48 	.inst	0x4d4d3a48 ; undefined
   8debc:	2020203e 	.inst	0x2020203e ; undefined
   8dec0:	20746573 	.inst	0x20746573 ; undefined
   8dec4:	72702061 	.inst	0x72702061 ; undefined
   8dec8:	72657961 	.inst	0x72657961 ; undefined
   8decc:	6f6c7320 	fcmla	v0.8h, v25.8h, v12.h[1], #270
   8ded0:	000a0d74 	.inst	0x000a0d74 ; undefined
   8ded4:	00000000 	udf	#0
   8ded8:	72702020 	.inst	0x72702020 ; undefined
   8dedc:	3c207961 	str	b1, [x11, x0, lsl #0]
   8dee0:	454d414e 	saddwb	z14.h, z10.h, z13.b
   8dee4:	483c203e 	.inst	0x483c203e ; undefined
   8dee8:	4d4d3a48 	.inst	0x4d4d3a48 ; undefined
   8deec:	2020203e 	.inst	0x2020203e ; undefined
   8def0:	6e6e6120 	rsubhn2	v0.8h, v9.4s, v14.4s
   8def4:	636e756f 	.inst	0x636e756f ; undefined
   8def8:	20612065 	.inst	0x20612065 ; undefined
   8defc:	79617270 	ldrh	w16, [x19, #4280]
   8df00:	6e207265 	uabdl2	v5.8h, v19.16b, v0.16b
   8df04:	0a0d776f 	and	w15, w27, w13, lsl #29
	...
   8df10:	72702020 	.inst	0x72702020 ; undefined
   8df14:	72657961 	.inst	0x72657961 ; undefined
   8df18:	20726c63 	.inst	0x20726c63 ; undefined
   8df1c:	696c207c 	ldpsw	x28, x8, [x3, #-160]
   8df20:	20207473 	.inst	0x20207473 ; undefined
   8df24:	20202020 	.inst	0x20202020 ; undefined
   8df28:	656c6320 	fnmls	z0.h, p0/m, z25.h, z12.h
   8df2c:	2f207261 	.inst	0x2f207261 ; undefined
   8df30:	73696c20 	.inst	0x73696c20 ; undefined
   8df34:	72702074 	.inst	0x72702074 ; undefined
   8df38:	72657961 	.inst	0x72657961 ; undefined
   8df3c:	000a0d73 	.inst	0x000a0d73 ; undefined
   8df40:	616d2020 	.inst	0x616d2020 ; undefined
   8df44:	6e696863 	.inst	0x6e696863 ; undefined
   8df48:	6e6f2065 	usubl2	v5.4s, v3.8h, v15.8h
   8df4c:	66666f7c 	.inst	0x66666f7c ; undefined
   8df50:	20202020 	.inst	0x20202020 ; undefined
   8df54:	20202020 	.inst	0x20202020 ; undefined
   8df58:	70757320 	adr	x0, 178dbf <__bss_end+0xc9dbf>
   8df5c:	73657270 	.inst	0x73657270 ; undefined
   8df60:	63652073 	.inst	0x63652073 ; undefined
   8df64:	702f6f68 	adr	x8, ecd53 <__bss_end+0x3dd53>
   8df68:	706d6f72 	adr	x18, 168d57 <__bss_end+0xb9d57>
   8df6c:	45282074 	sqshrnb	z20.b, z3.h, #8
   8df70:	32335053 	orr	w19, w2, #0xffffe003
   8df74:	6e696c20 	umin	v0.8h, v1.8h, v9.8h
   8df78:	0a0d296b 	and	w11, w11, w13, lsl #10
   8df7c:	00000000 	udf	#0
   8df80:	006e7572 	.inst	0x006e7572 ; undefined
   8df84:	00000000 	udf	#0
   8df88:	706f7473 	adr	x19, 16ce17 <__bss_end+0xbde17>
   8df8c:	00000000 	udf	#0
   8df90:	70206b6f 	adr	x15, cecff <__bss_end+0x1fcff>
   8df94:	65796172 	fnmls	z18.h, p0/m, z11.h, z25.h
   8df98:	726c6372 	.inst	0x726c6372 ; undefined
   8df9c:	00000a0d 	udf	#2573
   8dfa0:	74206b6f 	.inst	0x74206b6f ; undefined
   8dfa4:	0d656d69 	.inst	0x0d656d69 ; undefined
   8dfa8:	0000000a 	udf	#10
   8dfac:	00000000 	udf	#0
   8dfb0:	62206b6f 	.inst	0x62206b6f ; undefined
   8dfb4:	68676972 	.inst	0x68676972 ; undefined
   8dfb8:	000a0d74 	.inst	0x000a0d74 ; undefined
   8dfbc:	00000000 	udf	#0
   8dfc0:	70206b6f 	adr	x15, ced2f <__bss_end+0x1fd2f>
   8dfc4:	65796172 	fnmls	z18.h, p0/m, z11.h, z25.h
   8dfc8:	000a0d72 	.inst	0x000a0d72 ; undefined
   8dfcc:	00000000 	udf	#0
   8dfd0:	656d6974 	fnmls	z20.h, p2/m, z11.h, z13.h
   8dfd4:	00000020 	udf	#32
   8dfd8:	65777320 	fnmls	z0.h, p4/m, z25.h, z23.h
   8dfdc:	003d7065 	.inst	0x003d7065 ; NYI
   8dfe0:	64707320 	.inst	0x64707320 ; undefined
   8dfe4:	0000003d 	udf	#61
   8dfe8:	61656820 	.inst	0x61656820 ; undefined
   8dfec:	00003d70 	udf	#15728
   8dff0:	005b2020 	.inst	0x005b2020 ; undefined
   8dff4:	00000000 	udf	#0
   8dff8:	0000205d 	udf	#8285
   8dffc:	00000000 	udf	#0
   8e000:	2067736d 	.inst	0x2067736d ; undefined
   8e004:	70736964 	adr	x4, 174d33 <__bss_end+0xc5d33>
   8e008:	3a79616c 	.inst	0x3a79616c ; undefined
   8e00c:	0d4e4f20 	.inst	0x0d4e4f20 ; undefined
   8e010:	0000000a 	udf	#10
   8e014:	00000000 	udf	#0
   8e018:	2067736d 	.inst	0x2067736d ; undefined
   8e01c:	70736964 	adr	x4, 174d4b <__bss_end+0xc5d4b>
   8e020:	3a79616c 	.inst	0x3a79616c ; undefined
   8e024:	46464f20 	.inst	0x46464f20 ; undefined
   8e028:	00000a0d 	udf	#2573
   8e02c:	00000000 	udf	#0
   8e030:	4d495420 	.inst	0x4d495420 ; undefined
   8e034:	00002045 	udf	#8261
   8e038:	696d6468 	ldpsw	x8, x25, [x3, #-152]
   8e03c:	6266203a 	.inst	0x6266203a ; undefined
   8e040:	696e695f 	ldpsw	xzr, x26, [x10, #-144]
   8e044:	41462074 	.inst	0x41462074 ; undefined
   8e048:	44454c49 	umlalt	z9.h, z2.b, z5.b
   8e04c:	00000a0d 	udf	#2573
   8e050:	696d6468 	ldpsw	x8, x25, [x3, #-152]
   8e054:	0000203a 	udf	#8250
   8e058:	00000078 	udf	#120
   8e05c:	00000000 	udf	#0
   8e060:	74697020 	.inst	0x74697020 ; undefined
   8e064:	003d6863 	.inst	0x003d6863 ; NYI
   8e068:	73616220 	.inst	0x73616220 ; undefined
   8e06c:	00003d65 	udf	#15717
   8e070:	00007830 	udf	#30768
   8e074:	00000000 	udf	#0
   8e078:	203a7271 	.inst	0x203a7271 ; undefined
   8e07c:	6f636e65 	.inst	0x6f636e65 ; undefined
   8e080:	66206564 	.inst	0x66206564 ; undefined
   8e084:	656c6961 	fnmls	z1.h, p2/m, z11.h, z12.h
   8e088:	74282064 	.inst	0x74282064 ; undefined
   8e08c:	20747865 	.inst	0x20747865 ; undefined
   8e090:	206f6f74 	.inst	0x206f6f74 ; undefined
   8e094:	676e6f6c 	.inst	0x676e6f6c ; undefined
   8e098:	0a0d293f 	and	wzr, w9, w13, lsl #10
   8e09c:	00000000 	udf	#0
   8e0a0:	0066666f 	.inst	0x0066666f ; undefined
   8e0a4:	00000000 	udf	#0
   8e0a8:	61656c63 	.inst	0x61656c63 ; undefined
   8e0ac:	00000072 	udf	#114
   8e0b0:	71206b6f 	subs	w15, w27, #0x81a
   8e0b4:	666f2072 	.inst	0x666f2072 ; undefined
   8e0b8:	000a0d66 	.inst	0x000a0d66 ; undefined
   8e0bc:	00000000 	udf	#0
   8e0c0:	20727265 	.inst	0x20727265 ; undefined
   8e0c4:	74706d65 	.inst	0x74706d65 ; undefined
   8e0c8:	000a0d79 	.inst	0x000a0d79 ; undefined
   8e0cc:	00000000 	udf	#0
   8e0d0:	71206b6f 	subs	w15, w27, #0x81a
   8e0d4:	000a0d72 	.inst	0x000a0d72 ; undefined
   8e0d8:	6c63726b 	ldnp	d11, d28, [x19, #-464]
   8e0dc:	3e6b636f 	.inst	0x3e6b636f ; undefined
   8e0e0:	00000020 	udf	#32
   8e0e4:	00000000 	udf	#0
   8e0e8:	00746573 	.inst	0x00746573 ; undefined
   8e0ec:	00000000 	udf	#0
   8e0f0:	20727265 	.inst	0x20727265 ; undefined
   8e0f4:	676e6172 	.inst	0x676e6172 ; undefined
   8e0f8:	000a0d65 	.inst	0x000a0d65 ; undefined
   8e0fc:	00000000 	udf	#0
   8e100:	656d6974 	fnmls	z20.h, p2/m, z11.h, z13.h
   8e104:	00000000 	udf	#0
   8e108:	0067736d 	.inst	0x0067736d ; undefined
   8e10c:	00000000 	udf	#0
   8e110:	6d74656e 	ldp	d14, d25, [x11, #-192]
   8e114:	00006773 	udf	#26483
   8e118:	00007271 	udf	#29297
   8e11c:	00000000 	udf	#0
   8e120:	75667271 	.inst	0x75667271 ; undefined
   8e124:	00006c6c 	udf	#27756
   8e128:	6d737271 	ldp	d17, d28, [x19, #-208]
   8e12c:	006c6c61 	.inst	0x006c6c61 ; undefined
   8e130:	0000616c 	udf	#24940
   8e134:	00000000 	udf	#0
   8e138:	6c206b6f 	stnp	d15, d26, [x27, #-512]
   8e13c:	666f2061 	.inst	0x666f2061 ; undefined
   8e140:	000a0d66 	.inst	0x000a0d66 ; undefined
   8e144:	00000000 	udf	#0
   8e148:	00006373 	udf	#25459
   8e14c:	00000000 	udf	#0
   8e150:	73206b6f 	.inst	0x73206b6f ; undefined
   8e154:	666f2063 	.inst	0x666f2063 ; undefined
   8e158:	000a0d66 	.inst	0x000a0d66 ; undefined
   8e15c:	00000000 	udf	#0
   8e160:	72206b6f 	ands	w15, w27, #0x7ffffff
   8e164:	0a0d6e75 	and	w21, w19, w13, lsl #27
	...
   8e170:	73206b6f 	.inst	0x73206b6f ; undefined
   8e174:	0d706f74 	.inst	0x0d706f74 ; undefined
   8e178:	0000000a 	udf	#10
   8e17c:	00000000 	udf	#0
   8e180:	65657073 	fnmls	z19.h, p4/m, z3.h, z5.h
   8e184:	00000064 	udf	#100
   8e188:	73206b6f 	.inst	0x73206b6f ; undefined
   8e18c:	64656570 	.inst	0x64656570 ; undefined
   8e190:	00000a0d 	udf	#2573
   8e194:	00000000 	udf	#0
   8e198:	7364656c 	.inst	0x7364656c ; undefined
   8e19c:	00000000 	udf	#0
   8e1a0:	6c206b6f 	stnp	d15, d26, [x27, #-512]
   8e1a4:	0d736465 	.inst	0x0d736465 ; undefined
   8e1a8:	0000000a 	udf	#10
   8e1ac:	00000000 	udf	#0
   8e1b0:	76726573 	.inst	0x76726573 ; undefined
   8e1b4:	0000006f 	udf	#111
   8e1b8:	73206b6f 	.inst	0x73206b6f ; undefined
   8e1bc:	6f767265 	fcmla	v5.8h, v19.8h, v22.h[1], #270
   8e1c0:	6e757220 	uabdl2	v0.4s, v17.8h, v21.8h
   8e1c4:	00000a0d 	udf	#2573
   8e1c8:	73206b6f 	.inst	0x73206b6f ; undefined
   8e1cc:	6f767265 	fcmla	v5.8h, v19.8h, v22.h[1], #270
   8e1d0:	6f747320 	fcmla	v0.8h, v25.8h, v20.h[1], #270
   8e1d4:	000a0d70 	.inst	0x000a0d70 ; undefined
   8e1d8:	73206b6f 	.inst	0x73206b6f ; undefined
   8e1dc:	6f767265 	fcmla	v5.8h, v19.8h, v22.h[1], #270
   8e1e0:	65707320 	fnmls	z0.h, p4/m, z25.h, z16.h
   8e1e4:	0a0d6465 	and	w5, w3, w13, lsl #25
	...
   8e1f0:	00726964 	.inst	0x00726964 ; undefined
   8e1f4:	00000000 	udf	#0
   8e1f8:	73206b6f 	.inst	0x73206b6f ; undefined
   8e1fc:	6f767265 	fcmla	v5.8h, v19.8h, v22.h[1], #270
   8e200:	72696420 	.inst	0x72696420 ; undefined
   8e204:	00000a0d 	udf	#2573
   8e208:	73206b6f 	.inst	0x73206b6f ; undefined
   8e20c:	6f767265 	fcmla	v5.8h, v19.8h, v22.h[1], #270
   8e210:	00000a0d 	udf	#2573
   8e214:	00000000 	udf	#0
   8e218:	70657473 	adr	x19, 1590a7 <__bss_end+0xaa0a7>
   8e21c:	00000000 	udf	#0
   8e220:	73206b6f 	.inst	0x73206b6f ; undefined
   8e224:	20706574 	.inst	0x20706574 ; undefined
   8e228:	0d6e7572 	.inst	0x0d6e7572 ; undefined
   8e22c:	0000000a 	udf	#10
   8e230:	73206b6f 	.inst	0x73206b6f ; undefined
   8e234:	20706574 	.inst	0x20706574 ; undefined
   8e238:	706f7473 	adr	x19, 16d0c7 <__bss_end+0xbe0c7>
   8e23c:	00000a0d 	udf	#2573
   8e240:	73206b6f 	.inst	0x73206b6f ; undefined
   8e244:	20706574 	.inst	0x20706574 ; undefined
   8e248:	65657073 	fnmls	z19.h, p4/m, z3.h, z5.h
   8e24c:	000a0d64 	.inst	0x000a0d64 ; undefined
   8e250:	73206b6f 	.inst	0x73206b6f ; undefined
   8e254:	20706574 	.inst	0x20706574 ; undefined
   8e258:	0d726964 	.inst	0x0d726964 ; undefined
   8e25c:	0000000a 	udf	#10
   8e260:	20727265 	.inst	0x20727265 ; undefined
   8e264:	70657473 	adr	x19, 1590f3 <__bss_end+0xaa0f3>
   8e268:	7572203a 	.inst	0x7572203a ; undefined
   8e26c:	74737c6e 	.inst	0x74737c6e ; undefined
   8e270:	737c706f 	.inst	0x737c706f ; undefined
   8e274:	64656570 	.inst	0x64656570 ; undefined
   8e278:	2d313c20 	stp	s0, s15, [x1, #-120]
   8e27c:	30303031 	adr	x17, ee881 <__bss_end+0x3f881>
   8e280:	69647c3e 	ldpsw	x30, xzr, [x1, #-224]
   8e284:	303c2072 	adr	x18, 106691 <__bss_end+0x57691>
   8e288:	0d3e317c 	.inst	0x0d3e317c ; undefined
   8e28c:	0000000a 	udf	#10
   8e290:	67697262 	.inst	0x67697262 ; undefined
   8e294:	00007468 	udf	#29800
   8e298:	79617270 	ldrh	w16, [x19, #4280]
   8e29c:	00007265 	udf	#29285
   8e2a0:	79617270 	ldrh	w16, [x19, #4280]
   8e2a4:	00000000 	udf	#0
   8e2a8:	79617270 	ldrh	w16, [x19, #4280]
   8e2ac:	6c637265 	ldnp	d5, d28, [x19, #-464]
   8e2b0:	00000072 	udf	#114
   8e2b4:	00000000 	udf	#0
   8e2b8:	7473696c 	.inst	0x7473696c ; undefined
   8e2bc:	00000000 	udf	#0
   8e2c0:	6863616d 	.inst	0x6863616d ; undefined
   8e2c4:	00656e69 	.inst	0x00656e69 ; undefined
   8e2c8:	00006e6f 	udf	#28271
   8e2cc:	00000000 	udf	#0
   8e2d0:	6d206b6f 	stp	d15, d26, [x27, #-512]
   8e2d4:	69686361 	ldpsw	x1, x24, [x27, #-192]
   8e2d8:	0a0d656e 	and	w14, w11, w13, lsl #25
   8e2dc:	00000000 	udf	#0
   8e2e0:	68206b6f 	.inst	0x68206b6f ; undefined
   8e2e4:	6e616d75 	umin	v21.8h, v11.8h, v1.8h
   8e2e8:	00000a0d 	udf	#2573
   8e2ec:	00000000 	udf	#0
   8e2f0:	706c6568 	adr	x8, 166f9f <__bss_end+0xb7f9f>
   8e2f4:	00000000 	udf	#0
   8e2f8:	6568203f 	fmls	z31.h, p0/m, z1.h, z8.h
   8e2fc:	0a0d706c 	and	w12, w3, w13, lsl #28
	...
   8e308:	00082008 	.inst	0x00082008 ; undefined
   8e30c:	00000000 	udf	#0
   8e310:	3d3d0a0d 	str	b13, [x16, #3906]
   8e314:	6e4b203d 	.inst	0x6e4b203d ; undefined
   8e318:	74686769 	.inst	0x74686769 ; undefined
   8e31c:	64695220 	.inst	0x64695220 ; undefined
   8e320:	43207265 	.inst	0x43207265 ; undefined
   8e324:	6b636f6c 	.inst	0x6b636f6c ; undefined
   8e328:	46282020 	.inst	0x46282020 ; undefined
   8e32c:	52656572 	.inst	0x52656572 ; undefined
   8e330:	20534f54 	.inst	0x20534f54 ; undefined
   8e334:	656c696d 	fnmls	z13.h, p2/m, z11.h, z12.h
   8e338:	6e6f7473 	uabd	v19.8h, v3.8h, v15.8h
   8e33c:	2c362d65 	stnp	s5, s11, [x11, #-80]
   8e340:	20695020 	.inst	0x20695020 ; undefined
   8e344:	20332f32 	.inst	0x20332f32 ; undefined
   8e348:	4d434228 	.inst	0x4d434228 ; undefined
   8e34c:	36333832 	tbz	w18, #6, 94a50 <ucHeap+0x4a50>
   8e350:	2c29372f 	stnp	s15, s13, [x25, #-184]
   8e354:	72414120 	.inst	0x72414120 ; undefined
   8e358:	34366863 	cbz	w3, fb064 <__bss_end+0x4c064>
   8e35c:	3d3d2029 	str	b9, [x1, #3912]
   8e360:	000a0d3d 	.inst	0x000a0d3d ; undefined
   8e364:	00000000 	udf	#0
   8e368:	75657571 	.inst	0x75657571 ; undefined
   8e36c:	6c612065 	ldnp	d5, d8, [x3, #-496]
   8e370:	20636f6c 	.inst	0x20636f6c ; undefined
   8e374:	6c696166 	ldnp	d6, d24, [x11, #-368]
   8e378:	0a0d6465 	and	w5, w3, w13, lsl #25
   8e37c:	00000000 	udf	#0
   8e380:	636f6c63 	.inst	0x636f6c63 ; undefined
   8e384:	0000006b 	udf	#107
   8e388:	74726175 	.inst	0x74726175 ; undefined
   8e38c:	00000000 	udf	#0
   8e390:	65657773 	fnmls	z19.h, p5/m, z27.h, z5.h
   8e394:	00000070 	udf	#112
   8e398:	696d6468 	ldpsw	x8, x25, [x3, #-152]
   8e39c:	00000000 	udf	#0
   8e3a0:	006e7462 	.inst	0x006e7462 ; undefined
   8e3a4:	00000000 	udf	#0
   8e3a8:	43415453 	.inst	0x43415453 ; undefined
   8e3ac:	46564f4b 	.inst	0x46564f4b ; undefined
   8e3b0:	0000003a 	udf	#58
   8e3b4:	00000000 	udf	#0
   8e3b8:	4c4c414d 	.inst	0x4c4c414d ; undefined
   8e3bc:	4146434f 	.inst	0x4146434f ; undefined
   8e3c0:	0a0d4c49 	and	w9, w2, w13, lsl #19
   8e3c4:	00000000 	udf	#0

000000000008e3c8 <font5x7>:
	...
   8e408:	08080800 	stxrb	w8, w0, [x0]
   8e40c:	60000808 	.inst	0x60000808 ; undefined
   8e410:	10000060 	adr	x0, 8e41c <font5x7+0x54>
   8e414:	01020408 	.inst	0x01020408 ; undefined
   8e418:	4549513e 	ssubwb	z30.h, z9.h, z9.b
   8e41c:	7f42003e 	.inst	0x7f42003e ; undefined
   8e420:	61420040 	.inst	0x61420040 ; undefined
   8e424:	21464951 	.inst	0x21464951 ; undefined
   8e428:	314b4541 	adds	w1, w10, #0x2d1, lsl #12
   8e42c:	7f121418 	.inst	0x7f121418 ; undefined
   8e430:	45452710 	.inst	0x45452710 ; undefined
   8e434:	4a3c3945 	eon	w5, w10, w28, lsl #14
   8e438:	01304949 	.inst	0x01304949 ; undefined
   8e43c:	03050971 	.inst	0x03050971 ; undefined
   8e440:	49494936 	.inst	0x49494936 ; undefined
   8e444:	49490636 	.inst	0x49490636 ; undefined
   8e448:	00001e29 	udf	#7721
   8e44c:	00000036 	udf	#54
	...
   8e46c:	09097e00 	.inst	0x09097e00 ; undefined
   8e470:	497f7e09 	.inst	0x497f7e09 ; undefined
   8e474:	3e364949 	.inst	0x3e364949 ; undefined
   8e478:	22414141 	.inst	0x22414141 ; undefined
   8e47c:	4141417f 	.inst	0x4141417f ; undefined
   8e480:	49497f3e 	.inst	0x49497f3e ; undefined
   8e484:	097f4149 	.inst	0x097f4149 ; undefined
   8e488:	3e010909 	.inst	0x3e010909 ; undefined
   8e48c:	7a494941 	ccmp	w10, #0x9, #0x1, mi  // mi = first
   8e490:	0808087f 	stxrb	w8, wzr, [x3]
   8e494:	7f41007f 	.inst	0x7f41007f ; undefined
   8e498:	40200041 	.inst	0x40200041 ; undefined
   8e49c:	7f013f41 	.inst	0x7f013f41 ; undefined
   8e4a0:	41221408 	.inst	0x41221408 ; undefined
   8e4a4:	4040407f 	.inst	0x4040407f ; undefined
   8e4a8:	0c027f40 	.inst	0x0c027f40 ; undefined
   8e4ac:	027f7f02 	.inst	0x027f7f02 ; undefined
   8e4b0:	3e7f0804 	.inst	0x3e7f0804 ; undefined
   8e4b4:	3e414141 	.inst	0x3e414141 ; undefined
   8e4b8:	0909097f 	.inst	0x0909097f ; undefined
   8e4bc:	51413e06 	sub	w6, w16, #0x4f, lsl #12
   8e4c0:	097f5e21 	.inst	0x097f5e21 ; undefined
   8e4c4:	46462919 	.inst	0x46462919 ; undefined
   8e4c8:	31494949 	adds	w9, w10, #0x252, lsl #12
   8e4cc:	017f0101 	.inst	0x017f0101 ; undefined
   8e4d0:	40403f01 	.inst	0x40403f01 ; undefined
   8e4d4:	201f3f40 	.inst	0x201f3f40 ; undefined
   8e4d8:	7f1f2040 	.inst	0x7f1f2040 ; undefined
   8e4dc:	7f201820 	.inst	0x7f201820 ; undefined
   8e4e0:	14081463 	b	29366c <__bss_end+0x1e466c>
   8e4e4:	78040363 	sturh	w3, [x27, #64]
   8e4e8:	51610304 	sub	w4, w24, #0x840, lsl #12
   8e4ec:	00434549 	.inst	0x00434549 ; undefined
	...
   8e50c:	54542000 	b.eq	13690c <__bss_end+0x8790c>  // b.none
   8e510:	447f7854 	.inst	0x447f7854 ; undefined
   8e514:	38384444 	.inst	0x38384444 ; undefined
   8e518:	44444444 	smlalt	z4.h, z2.b, z4.b
   8e51c:	44444438 	smlalt	z24.h, z1.b, z4.b
   8e520:	5454387f 	.inst	0x5454387f ; undefined
   8e524:	7e081854 	.inst	0x7e081854 ; undefined
   8e528:	0c020109 	.inst	0x0c020109 ; undefined
   8e52c:	3e525252 	.inst	0x3e525252 ; undefined
   8e530:	0404087f 	.inst	0x0404087f ; undefined
   8e534:	7d440078 	ldr	h24, [x3, #512]
   8e538:	40200040 	.inst	0x40200040 ; undefined
   8e53c:	7f003d44 	.inst	0x7f003d44 ; undefined
   8e540:	00442810 	.inst	0x00442810 ; undefined
   8e544:	407f4100 	.inst	0x407f4100 ; undefined
   8e548:	78047c00 	strh	w0, [x0, #71]!
   8e54c:	087c7804 	.inst	0x087c7804 ; undefined
   8e550:	38780404 	.inst	0x38780404 ; undefined
   8e554:	38444444 	ldrb	w4, [x2], #68
   8e558:	1212127e 	and	w30, w19, #0x7c000
   8e55c:	12120c0c 	and	w12, w0, #0x3c000
   8e560:	087c7e12 	caspa	w28, w29, w18, w19, [x16]
   8e564:	48080404 	stxrh	w8, w4, [x0]
   8e568:	24545454 	cmpgt	p4.h, p5/z, z2.h, z20.d
   8e56c:	40443f04 	.inst	0x40443f04 ; undefined
   8e570:	40403c20 	.inst	0x40403c20 ; undefined
   8e574:	201c7c20 	.inst	0x201c7c20 ; undefined
   8e578:	3c1c2040 	stur	b0, [x2, #-62]
   8e57c:	3c403040 	ldur	b0, [x2, #3]
   8e580:	28102844 	stnp	w4, w10, [x2, #128]
   8e584:	50500e44 	adr	x4, 12e74e <__bss_end+0x7f74e>
   8e588:	64443e50 	fcmla	z16.h, p7/m, z18.h, z4.h, #90
   8e58c:	00444c54 	.inst	0x00444c54 ; undefined

000000000008e590 <BAR_COL>:
   8e590:	00ff0000 	.inst	0x00ff0000 ; undefined
   8e594:	00ff8000 	.inst	0x00ff8000 ; undefined
   8e598:	00ffff00 	.inst	0x00ffff00 ; undefined
   8e59c:	0000ff00 	udf	#65280
   8e5a0:	0000ffff 	udf	#65535
   8e5a4:	000080ff 	udf	#33023
   8e5a8:	008000ff 	.inst	0x008000ff ; undefined
   8e5ac:	00ff00ff 	.inst	0x00ff00ff ; undefined

000000000008e5b0 <tmfont>:
   8e5b0:	4f5b063f 	sshr	v31.2d, v17.2d, #37
   8e5b4:	077d6d66 	.inst	0x077d6d66 ; undefined
   8e5b8:	00006f7f 	udf	#28543
   8e5bc:	00000000 	udf	#0

000000000008e5c0 <font5x7>:
	...
   8e600:	08080800 	stxrb	w8, w0, [x0]
   8e604:	60000808 	.inst	0x60000808 ; undefined
   8e608:	10000060 	adr	x0, 8e614 <font5x7+0x54>
   8e60c:	01020408 	.inst	0x01020408 ; undefined
   8e610:	4549513e 	ssubwb	z30.h, z9.h, z9.b
   8e614:	7f42003e 	.inst	0x7f42003e ; undefined
   8e618:	61420040 	.inst	0x61420040 ; undefined
   8e61c:	21464951 	.inst	0x21464951 ; undefined
   8e620:	314b4541 	adds	w1, w10, #0x2d1, lsl #12
   8e624:	7f121418 	.inst	0x7f121418 ; undefined
   8e628:	45452710 	.inst	0x45452710 ; undefined
   8e62c:	4a3c3945 	eon	w5, w10, w28, lsl #14
   8e630:	01304949 	.inst	0x01304949 ; undefined
   8e634:	03050971 	.inst	0x03050971 ; undefined
   8e638:	49494936 	.inst	0x49494936 ; undefined
   8e63c:	49490636 	.inst	0x49490636 ; undefined
   8e640:	00001e29 	udf	#7721
   8e644:	00000036 	udf	#54
	...
   8e664:	09097e00 	.inst	0x09097e00 ; undefined
   8e668:	497f7e09 	.inst	0x497f7e09 ; undefined
   8e66c:	3e364949 	.inst	0x3e364949 ; undefined
   8e670:	22414141 	.inst	0x22414141 ; undefined
   8e674:	4141417f 	.inst	0x4141417f ; undefined
   8e678:	49497f3e 	.inst	0x49497f3e ; undefined
   8e67c:	097f4149 	.inst	0x097f4149 ; undefined
   8e680:	3e010909 	.inst	0x3e010909 ; undefined
   8e684:	7a494941 	ccmp	w10, #0x9, #0x1, mi  // mi = first
   8e688:	0808087f 	stxrb	w8, wzr, [x3]
   8e68c:	7f41007f 	.inst	0x7f41007f ; undefined
   8e690:	40200041 	.inst	0x40200041 ; undefined
   8e694:	7f013f41 	.inst	0x7f013f41 ; undefined
   8e698:	41221408 	.inst	0x41221408 ; undefined
   8e69c:	4040407f 	.inst	0x4040407f ; undefined
   8e6a0:	0c027f40 	.inst	0x0c027f40 ; undefined
   8e6a4:	027f7f02 	.inst	0x027f7f02 ; undefined
   8e6a8:	3e7f0804 	.inst	0x3e7f0804 ; undefined
   8e6ac:	3e414141 	.inst	0x3e414141 ; undefined
   8e6b0:	0909097f 	.inst	0x0909097f ; undefined
   8e6b4:	51413e06 	sub	w6, w16, #0x4f, lsl #12
   8e6b8:	097f5e21 	.inst	0x097f5e21 ; undefined
   8e6bc:	46462919 	.inst	0x46462919 ; undefined
   8e6c0:	31494949 	adds	w9, w10, #0x252, lsl #12
   8e6c4:	017f0101 	.inst	0x017f0101 ; undefined
   8e6c8:	40403f01 	.inst	0x40403f01 ; undefined
   8e6cc:	201f3f40 	.inst	0x201f3f40 ; undefined
   8e6d0:	7f1f2040 	.inst	0x7f1f2040 ; undefined
   8e6d4:	7f201820 	.inst	0x7f201820 ; undefined
   8e6d8:	14081463 	b	293864 <__bss_end+0x1e4864>
   8e6dc:	78040363 	sturh	w3, [x27, #64]
   8e6e0:	51610304 	sub	w4, w24, #0x840, lsl #12
   8e6e4:	00434549 	.inst	0x00434549 ; undefined
	...
   8e704:	54542000 	b.eq	136b04 <__bss_end+0x87b04>  // b.none
   8e708:	447f7854 	.inst	0x447f7854 ; undefined
   8e70c:	38384444 	.inst	0x38384444 ; undefined
   8e710:	44444444 	smlalt	z4.h, z2.b, z4.b
   8e714:	44444438 	smlalt	z24.h, z1.b, z4.b
   8e718:	5454387f 	.inst	0x5454387f ; undefined
   8e71c:	7e081854 	.inst	0x7e081854 ; undefined
   8e720:	0c020109 	.inst	0x0c020109 ; undefined
   8e724:	3e525252 	.inst	0x3e525252 ; undefined
   8e728:	0404087f 	.inst	0x0404087f ; undefined
   8e72c:	7d440078 	ldr	h24, [x3, #512]
   8e730:	40200040 	.inst	0x40200040 ; undefined
   8e734:	7f003d44 	.inst	0x7f003d44 ; undefined
   8e738:	00442810 	.inst	0x00442810 ; undefined
   8e73c:	407f4100 	.inst	0x407f4100 ; undefined
   8e740:	78047c00 	strh	w0, [x0, #71]!
   8e744:	087c7804 	.inst	0x087c7804 ; undefined
   8e748:	38780404 	.inst	0x38780404 ; undefined
   8e74c:	38444444 	ldrb	w4, [x2], #68
   8e750:	1212127e 	and	w30, w19, #0x7c000
   8e754:	12120c0c 	and	w12, w0, #0x3c000
   8e758:	087c7e12 	caspa	w28, w29, w18, w19, [x16]
   8e75c:	48080404 	stxrh	w8, w4, [x0]
   8e760:	24545454 	cmpgt	p4.h, p5/z, z2.h, z20.d
   8e764:	40443f04 	.inst	0x40443f04 ; undefined
   8e768:	40403c20 	.inst	0x40403c20 ; undefined
   8e76c:	201c7c20 	.inst	0x201c7c20 ; undefined
   8e770:	3c1c2040 	stur	b0, [x2, #-62]
   8e774:	3c403040 	ldur	b0, [x2, #3]
   8e778:	28102844 	stnp	w4, w10, [x2, #128]
   8e77c:	50500e44 	adr	x4, 12e946 <__bss_end+0x7f946>
   8e780:	64443e50 	fcmla	z16.h, p7/m, z18.h, z4.h, #90
   8e784:	00444c54 	.inst	0x00444c54 ; undefined
   8e788:	33323130 	.inst	0x33323130 ; undefined
   8e78c:	37363534 	tbnz	w20, #6, 8ae30 <xTaskGenericNotify+0x40>
   8e790:	42413938 	.inst	0x42413938 ; undefined
   8e794:	46454443 	.inst	0x46454443 ; undefined
   8e798:	4a494847 	eor	w7, w2, w9, lsr #18
   8e79c:	4e4d4c4b 	.inst	0x4e4d4c4b ; undefined
   8e7a0:	5251504f 	.inst	0x5251504f ; undefined
   8e7a4:	56555453 	.inst	0x56555453 ; undefined
   8e7a8:	5a595857 	.inst	0x5a595857 ; undefined
   8e7ac:	2a252420 	orn	w0, w1, w5, lsl #9
   8e7b0:	2f2e2d2b 	.inst	0x2f2e2d2b ; undefined
   8e7b4:	0000003a 	udf	#58

000000000008e7b8 <ECC_CODEWORDS_PER_BLOCK>:
   8e7b8:	0f0a07ff 	sshr	v31.8b, v31.8b, #6
   8e7bc:	14121a14 	b	51500c <__bss_end+0x46600c>
   8e7c0:	14121e18 	b	516020 <__bss_end+0x467020>
   8e7c4:	161e1a18 	b	fffffffff8815024 <__bss_end+0xfffffffff8766024>
   8e7c8:	1c1e1c18 	ldr	s24, cab48 <__bss_end+0x1bb48>
   8e7cc:	1e1c1c1c 	.inst	0x1e1c1c1c ; undefined
   8e7d0:	1e1c1a1e 	.inst	0x1e1c1a1e ; undefined
   8e7d4:	1e1e1e1e 	.inst	0x1e1e1e1e ; undefined
   8e7d8:	1e1e1e1e 	.inst	0x1e1e1e1e ; undefined
   8e7dc:	1e1e1e1e 	.inst	0x1e1e1e1e ; undefined
   8e7e0:	100aff1e 	adr	x30, a47c0 <ucHeap+0x147c0>
   8e7e4:	1018121a 	adr	x26, bea24 <__bss_end+0xfa24>
   8e7e8:	1a161612 	.inst	0x1a161612 ; undefined
   8e7ec:	1816161e 	ldr	w30, baaac <__bss_end+0xbaac>
   8e7f0:	1a1c1c18 	.inst	0x1a1c1c18 ; undefined
   8e7f4:	1c1a1a1a 	ldr	s26, c2b34 <__bss_end+0x13b34>
   8e7f8:	1c1c1c1c 	ldr	s28, c6b78 <__bss_end+0x17b78>
   8e7fc:	1c1c1c1c 	ldr	s28, c6b7c <__bss_end+0x17b7c>
   8e800:	1c1c1c1c 	ldr	s28, c6b80 <__bss_end+0x17b80>
   8e804:	1c1c1c1c 	ldr	s28, c6b84 <__bss_end+0x17b84>
   8e808:	0dff1c1c 	ld2	{v28.b, v29.b}[7], [x0], #2
   8e80c:	121a1216 	and	w22, w16, #0x7c0
   8e810:	14161218 	b	613070 <__bss_end+0x564070>
   8e814:	181a1c18 	ldr	w24, c2b94 <__bss_end+0x13b94>
   8e818:	1c181e14 	ldr	s20, bebd8 <__bss_end+0xfbd8>
   8e81c:	1c1e1a1c 	ldr	s28, cab5c <__bss_end+0x1bb5c>
   8e820:	1e1e1e1e 	.inst	0x1e1e1e1e ; undefined
   8e824:	1e1e1e1c 	.inst	0x1e1e1e1c ; undefined
   8e828:	1e1e1e1e 	.inst	0x1e1e1e1e ; undefined
   8e82c:	1e1e1e1e 	.inst	0x1e1e1e1e ; undefined
   8e830:	ff1e1e1e 	.inst	0xff1e1e1e ; undefined
   8e834:	10161c11 	adr	x17, babb4 <__bss_end+0xbbb4>
   8e838:	1a1a1c16 	.inst	0x1a1a1c16 ; undefined
   8e83c:	1c181c18 	ldr	s24, bebbc <__bss_end+0xfbbc>
   8e840:	1e181816 	.inst	0x1e181816 ; undefined
   8e844:	1c1a1c1c 	ldr	s28, c2bc4 <__bss_end+0x13bc4>
   8e848:	1e1e181e 	.inst	0x1e1e181e ; undefined
   8e84c:	1e1e1e1e 	.inst	0x1e1e1e1e ; undefined
   8e850:	1e1e1e1e 	.inst	0x1e1e1e1e ; undefined
   8e854:	1e1e1e1e 	.inst	0x1e1e1e1e ; undefined
   8e858:	1e1e1e1e 	.inst	0x1e1e1e1e ; undefined
   8e85c:	00000000 	udf	#0

000000000008e860 <NUM_ERROR_CORRECTION_BLOCKS>:
   8e860:	010101ff 	.inst	0x010101ff ; undefined
   8e864:	02020101 	.inst	0x02020101 ; undefined
   8e868:	04040202 	.inst	0x04040202 ; undefined
   8e86c:	06040404 	.inst	0x06040404 ; undefined
   8e870:	07060606 	.inst	0x07060606 ; undefined
   8e874:	09090808 	.inst	0x09090808 ; undefined
   8e878:	0c0c0c0a 	.inst	0x0c0c0c0a ; undefined
   8e87c:	100f0e0d 	adr	x13, aca3c <ucHeap+0x1ca3c>
   8e880:	13131211 	sbfiz	w17, w16, #13, #5
   8e884:	18161514 	ldr	w20, bab24 <__bss_end+0xbb24>
   8e888:	0101ff19 	.inst	0x0101ff19 ; undefined
   8e88c:	04020201 	.inst	0x04020201 ; undefined
   8e890:	05050404 	.inst	0x05050404 ; undefined
   8e894:	09090805 	.inst	0x09090805 ; undefined
   8e898:	0d0b0a0a 	.inst	0x0d0b0a0a ; undefined
   8e89c:	1111100e 	add	w14, w0, #0x444
   8e8a0:	17151412 	b	fffffffffc5d38e8 <__bss_end+0xfffffffffc5248e8>
   8e8a4:	1d1c1a19 	.inst	0x1d1c1a19 ; undefined
   8e8a8:	2523211f 	.inst	0x2523211f ; undefined
   8e8ac:	2d2b2826 	stp	s6, s10, [x1, #-168]
   8e8b0:	01ff312f 	.inst	0x01ff312f ; undefined
   8e8b4:	04020201 	.inst	0x04020201 ; undefined
   8e8b8:	08060604 	stxrb	w6, w4, [x16]
   8e8bc:	0c0a0808 	.inst	0x0c0a0808 ; undefined
   8e8c0:	10110c10 	adr	x16, b0a40 <__bss_end+0x1a40>
   8e8c4:	17141512 	b	fffffffffc593d0c <__bss_end+0xfffffffffc4e4d0c>
   8e8c8:	1d1b1917 	.inst	0x1d1b1917 ; undefined
   8e8cc:	26232222 	.inst	0x26232222 ; undefined
   8e8d0:	302d2b28 	adr	x8, e8e35 <__bss_end+0x39e35>
   8e8d4:	3b383533 	.inst	0x3b383533 ; undefined
   8e8d8:	ff44413e 	.inst	0xff44413e ; undefined
   8e8dc:	04020101 	.inst	0x04020101 ; undefined
   8e8e0:	06050404 	.inst	0x06050404 ; undefined
   8e8e4:	0b0b0808 	add	w8, w0, w11, lsl #2
   8e8e8:	10121010 	adr	x16, b2ae8 <__bss_end+0x3ae8>
   8e8ec:	19191513 	.inst	0x19191513 ; undefined
   8e8f0:	201e2219 	.inst	0x201e2219 ; undefined
   8e8f4:	2a282523 	orn	w3, w9, w8, lsl #9
   8e8f8:	3633302d 	tbz	w13, #6, 94efc <ucHeap+0x4efc>
   8e8fc:	423f3c39 	.inst	0x423f3c39 ; undefined
   8e900:	514d4a46 	sub	w6, w18, #0x352, lsl #12
   8e904:	00000000 	udf	#0

000000000008e908 <table.0>:
   8e908:	00000001 	udf	#1
   8e90c:	00000000 	udf	#0
   8e910:	00000003 	udf	#3
   8e914:	00000002 	udf	#2

000000000008e918 <temp.4>:
   8e918:	0000000a 	udf	#10
   8e91c:	0000000c 	udf	#12
   8e920:	0000000e 	udf	#14
   8e924:	00000000 	udf	#0

000000000008e928 <temp.3>:
   8e928:	00000009 	udf	#9
   8e92c:	0000000b 	udf	#11
   8e930:	0000000d 	udf	#13
   8e934:	00000000 	udf	#0

000000000008e938 <temp.2>:
   8e938:	00000008 	udf	#8
   8e93c:	00000010 	udf	#16
   8e940:	00000010 	udf	#16
   8e944:	00000000 	udf	#0

000000000008e948 <temp.1>:
   8e948:	00000008 	udf	#8
   8e94c:	0000000a 	udf	#10
   8e950:	0000000c 	udf	#12
   8e954:	00000000 	udf	#0

000000000008e958 <F_BLANK>:
	...

000000000008e960 <F_DIG>:
   8e960:	4549513e 	ssubwb	z30.h, z9.h, z9.b
   8e964:	7f42003e 	.inst	0x7f42003e ; undefined
   8e968:	61420040 	.inst	0x61420040 ; undefined
   8e96c:	21464951 	.inst	0x21464951 ; undefined
   8e970:	314b4541 	adds	w1, w10, #0x2d1, lsl #12
   8e974:	7f121418 	.inst	0x7f121418 ; undefined
   8e978:	45452710 	.inst	0x45452710 ; undefined
   8e97c:	4a3c3945 	eon	w5, w10, w28, lsl #14
   8e980:	01304949 	.inst	0x01304949 ; undefined
   8e984:	03050971 	.inst	0x03050971 ; undefined
   8e988:	49494936 	.inst	0x49494936 ; undefined
   8e98c:	49490636 	.inst	0x49490636 ; undefined
   8e990:	00001e29 	udf	#7721
   8e994:	00000000 	udf	#0

000000000008e998 <CSWTCH.2>:
   8e998:	0008eb00 	.inst	0x0008eb00 ; undefined
   8e99c:	00000000 	udf	#0
   8e9a0:	0008e958 	.inst	0x0008e958 ; undefined
   8e9a4:	00000000 	udf	#0
   8e9a8:	0008e958 	.inst	0x0008e958 ; undefined
   8e9ac:	00000000 	udf	#0
   8e9b0:	0008e958 	.inst	0x0008e958 ; undefined
   8e9b4:	00000000 	udf	#0
   8e9b8:	0008e958 	.inst	0x0008e958 ; undefined
   8e9bc:	00000000 	udf	#0
   8e9c0:	0008e958 	.inst	0x0008e958 ; undefined
   8e9c4:	00000000 	udf	#0
   8e9c8:	0008e958 	.inst	0x0008e958 ; undefined
   8e9cc:	00000000 	udf	#0
   8e9d0:	0008eaf8 	.inst	0x0008eaf8 ; undefined
   8e9d4:	00000000 	udf	#0
   8e9d8:	0008eaf0 	.inst	0x0008eaf0 ; undefined
   8e9dc:	00000000 	udf	#0
   8e9e0:	0008e958 	.inst	0x0008e958 ; undefined
   8e9e4:	00000000 	udf	#0
   8e9e8:	0008eae8 	.inst	0x0008eae8 ; undefined
   8e9ec:	00000000 	udf	#0
   8e9f0:	0008e958 	.inst	0x0008e958 ; undefined
   8e9f4:	00000000 	udf	#0
   8e9f8:	0008e958 	.inst	0x0008e958 ; undefined
   8e9fc:	00000000 	udf	#0
   8ea00:	0008eae0 	.inst	0x0008eae0 ; undefined
   8ea04:	00000000 	udf	#0
   8ea08:	0008ead8 	.inst	0x0008ead8 ; undefined
   8ea0c:	00000000 	udf	#0
   8ea10:	0008ead0 	.inst	0x0008ead0 ; undefined
   8ea14:	00000000 	udf	#0
   8ea18:	0008e958 	.inst	0x0008e958 ; undefined
   8ea1c:	00000000 	udf	#0
   8ea20:	0008e958 	.inst	0x0008e958 ; undefined
   8ea24:	00000000 	udf	#0
   8ea28:	0008e958 	.inst	0x0008e958 ; undefined
   8ea2c:	00000000 	udf	#0
   8ea30:	0008eac8 	.inst	0x0008eac8 ; undefined
   8ea34:	00000000 	udf	#0
   8ea38:	0008e958 	.inst	0x0008e958 ; undefined
   8ea3c:	00000000 	udf	#0
   8ea40:	0008e958 	.inst	0x0008e958 ; undefined
   8ea44:	00000000 	udf	#0
   8ea48:	0008e958 	.inst	0x0008e958 ; undefined
   8ea4c:	00000000 	udf	#0
   8ea50:	0008e958 	.inst	0x0008e958 ; undefined
   8ea54:	00000000 	udf	#0
   8ea58:	0008eac0 	.inst	0x0008eac0 ; undefined
   8ea5c:	00000000 	udf	#0
   8ea60:	0008eab8 	.inst	0x0008eab8 ; undefined
   8ea64:	00000000 	udf	#0
   8ea68:	0008e958 	.inst	0x0008e958 ; undefined
   8ea6c:	00000000 	udf	#0
   8ea70:	0008eab0 	.inst	0x0008eab0 ; undefined
   8ea74:	00000000 	udf	#0
   8ea78:	0008e958 	.inst	0x0008e958 ; undefined
   8ea7c:	00000000 	udf	#0
   8ea80:	0008e958 	.inst	0x0008e958 ; undefined
   8ea84:	00000000 	udf	#0
   8ea88:	0008e958 	.inst	0x0008e958 ; undefined
   8ea8c:	00000000 	udf	#0
   8ea90:	0008eaa8 	.inst	0x0008eaa8 ; undefined
   8ea94:	00000000 	udf	#0
   8ea98:	0008eaa0 	.inst	0x0008eaa0 ; undefined
   8ea9c:	00000000 	udf	#0

000000000008eaa0 <g.0>:
   8eaa0:	45495161 	ssubwb	z1.h, z11.h, z9.b
   8eaa4:	00000043 	udf	#67

000000000008eaa8 <g.1>:
   8eaa8:	08700807 	.inst	0x08700807 ; undefined
   8eaac:	00000007 	udf	#7

000000000008eab0 <g.2>:
   8eab0:	4040403f 	.inst	0x4040403f ; undefined
   8eab4:	0000003f 	udf	#63

000000000008eab8 <g.3>:
   8eab8:	49494946 	.inst	0x49494946 ; undefined
   8eabc:	00000031 	udf	#49

000000000008eac0 <g.4>:
   8eac0:	2919097f 	stp	wzr, w2, [x11, #200]
   8eac4:	00000046 	udf	#70

000000000008eac8 <g.5>:
   8eac8:	020c027f 	.inst	0x020c027f ; undefined
   8eacc:	0000007f 	udf	#127

000000000008ead0 <g.6>:
   8ead0:	417f4100 	.inst	0x417f4100 ; undefined
   8ead4:	00000000 	udf	#0

000000000008ead8 <g.7>:
   8ead8:	0808087f 	stxrb	w8, wzr, [x3]
   8eadc:	0000007f 	udf	#127

000000000008eae0 <g.8>:
   8eae0:	4949413e 	.inst	0x4949413e ; undefined
   8eae4:	0000007a 	udf	#122

000000000008eae8 <g.9>:
   8eae8:	2241417f 	.inst	0x2241417f ; undefined
   8eaec:	0000001c 	udf	#28

000000000008eaf0 <g.10>:
   8eaf0:	4949497f 	.inst	0x4949497f ; undefined
   8eaf4:	00000036 	udf	#54

000000000008eaf8 <g.11>:
   8eaf8:	1111117e 	add	w30, w11, #0x444
   8eafc:	0000007e 	udf	#126

000000000008eb00 <F_COLON>:
   8eb00:	00140000 	.inst	0x00140000 ; undefined
   8eb04:	00000000 	udf	#0

000000000008eb08 <font8x8_basic>:
	...
   8ec10:	183c3c18 	ldr	w24, 107390 <__bss_end+0x58390>
   8ec14:	00180018 	.inst	0x00180018 ; undefined
   8ec18:	00003636 	udf	#13878
   8ec1c:	00000000 	udf	#0
   8ec20:	367f3636 	tbz	w22, #15, 8d2e4 <sc_chunk+0x94>
   8ec24:	0036367f 	.inst	0x0036367f ; NYI
   8ec28:	1e033e0c 	.inst	0x1e033e0c ; undefined
   8ec2c:	000c1f30 	.inst	0x000c1f30 ; undefined
   8ec30:	18336300 	ldr	w0, f5890 <__bss_end+0x46890>
   8ec34:	0063660c 	.inst	0x0063660c ; undefined
   8ec38:	6e1c361c 	mov	v28.s[3], v16.s[1]
   8ec3c:	006e333b 	.inst	0x006e333b ; undefined
   8ec40:	00030606 	.inst	0x00030606 ; undefined
   8ec44:	00000000 	udf	#0
   8ec48:	06060c18 	.inst	0x06060c18 ; undefined
   8ec4c:	00180c06 	.inst	0x00180c06 ; undefined
   8ec50:	18180c06 	ldr	w6, bedd0 <__bss_end+0xfdd0>
   8ec54:	00060c18 	.inst	0x00060c18 ; undefined
   8ec58:	ff3c6600 	.inst	0xff3c6600 ; undefined
   8ec5c:	0000663c 	udf	#26172
   8ec60:	3f0c0c00 	.inst	0x3f0c0c00 ; undefined
   8ec64:	00000c0c 	udf	#3084
   8ec68:	00000000 	udf	#0
   8ec6c:	060c0c00 	.inst	0x060c0c00 ; undefined
   8ec70:	3f000000 	.inst	0x3f000000 ; undefined
	...
   8ec7c:	000c0c00 	.inst	0x000c0c00 ; undefined
   8ec80:	0c183060 	.inst	0x0c183060 ; undefined
   8ec84:	00010306 	.inst	0x00010306 ; undefined
   8ec88:	7b73633e 	.inst	0x7b73633e ; undefined
   8ec8c:	003e676f 	.inst	0x003e676f ; NYI
   8ec90:	0c0c0e0c 	.inst	0x0c0c0e0c ; undefined
   8ec94:	003f0c0c 	.inst	0x003f0c0c ; NYI
   8ec98:	1c30331e 	ldr	s30, ef2f8 <__bss_end+0x402f8>
   8ec9c:	003f3306 	.inst	0x003f3306 ; NYI
   8eca0:	1c30331e 	ldr	s30, ef300 <__bss_end+0x40300>
   8eca4:	001e3330 	.inst	0x001e3330 ; undefined
   8eca8:	33363c38 	.inst	0x33363c38 ; undefined
   8ecac:	0078307f 	.inst	0x0078307f ; undefined
   8ecb0:	301f033f 	adr	xzr, ccd15 <__bss_end+0x1dd15>
   8ecb4:	001e3330 	.inst	0x001e3330 ; undefined
   8ecb8:	1f03061c 	fmadd	s28, s16, s3, s1
   8ecbc:	001e3333 	.inst	0x001e3333 ; undefined
   8ecc0:	1830333f 	ldr	wzr, ef324 <__bss_end+0x40324>
   8ecc4:	000c0c0c 	.inst	0x000c0c0c ; undefined
   8ecc8:	1e33331e 	.inst	0x1e33331e ; undefined
   8eccc:	001e3333 	.inst	0x001e3333 ; undefined
   8ecd0:	3e33331e 	.inst	0x3e33331e ; undefined
   8ecd4:	000e1830 	.inst	0x000e1830 ; undefined
   8ecd8:	000c0c00 	.inst	0x000c0c00 ; undefined
   8ecdc:	000c0c00 	.inst	0x000c0c00 ; undefined
   8ece0:	000c0c00 	.inst	0x000c0c00 ; undefined
   8ece4:	060c0c00 	.inst	0x060c0c00 ; undefined
   8ece8:	03060c18 	.inst	0x03060c18 ; undefined
   8ecec:	00180c06 	.inst	0x00180c06 ; undefined
   8ecf0:	003f0000 	.inst	0x003f0000 ; NYI
   8ecf4:	00003f00 	udf	#16128
   8ecf8:	30180c06 	adr	x6, bee79 <__bss_end+0xfe79>
   8ecfc:	00060c18 	.inst	0x00060c18 ; undefined
   8ed00:	1830331e 	ldr	w30, ef360 <__bss_end+0x40360>
   8ed04:	000c000c 	.inst	0x000c000c ; undefined
   8ed08:	7b7b633e 	.inst	0x7b7b633e ; undefined
   8ed0c:	001e037b 	.inst	0x001e037b ; undefined
   8ed10:	33331e0c 	.inst	0x33331e0c ; undefined
   8ed14:	0033333f 	.inst	0x0033333f ; NYI
   8ed18:	3e66663f 	.inst	0x3e66663f ; undefined
   8ed1c:	003f6666 	.inst	0x003f6666 ; NYI
   8ed20:	0303663c 	.inst	0x0303663c ; undefined
   8ed24:	003c6603 	.inst	0x003c6603 ; NYI
   8ed28:	6666361f 	.inst	0x6666361f ; undefined
   8ed2c:	001f3666 	.inst	0x001f3666 ; undefined
   8ed30:	1e16467f 	.inst	0x1e16467f ; undefined
   8ed34:	007f4616 	.inst	0x007f4616 ; undefined
   8ed38:	1e16467f 	.inst	0x1e16467f ; undefined
   8ed3c:	000f0616 	.inst	0x000f0616 ; undefined
   8ed40:	0303663c 	.inst	0x0303663c ; undefined
   8ed44:	007c6673 	.inst	0x007c6673 ; undefined
   8ed48:	3f333333 	.inst	0x3f333333 ; undefined
   8ed4c:	00333333 	.inst	0x00333333 ; NYI
   8ed50:	0c0c0c1e 	.inst	0x0c0c0c1e ; undefined
   8ed54:	001e0c0c 	.inst	0x001e0c0c ; undefined
   8ed58:	30303078 	adr	x24, ef365 <__bss_end+0x40365>
   8ed5c:	001e3333 	.inst	0x001e3333 ; undefined
   8ed60:	1e366667 	fccmp	s19, s22, #0x7, vs
   8ed64:	00676636 	.inst	0x00676636 ; undefined
   8ed68:	0606060f 	.inst	0x0606060f ; undefined
   8ed6c:	007f6646 	.inst	0x007f6646 ; undefined
   8ed70:	7f7f7763 	uqshl	d3, d27, #63
   8ed74:	0063636b 	.inst	0x0063636b ; undefined
   8ed78:	7b6f6763 	.inst	0x7b6f6763 ; undefined
   8ed7c:	00636373 	.inst	0x00636373 ; undefined
   8ed80:	6363361c 	.inst	0x6363361c ; undefined
   8ed84:	001c3663 	.inst	0x001c3663 ; undefined
   8ed88:	3e66663f 	.inst	0x3e66663f ; undefined
   8ed8c:	000f0606 	.inst	0x000f0606 ; undefined
   8ed90:	3333331e 	.inst	0x3333331e ; undefined
   8ed94:	00381e3b 	.inst	0x00381e3b ; NYI
   8ed98:	3e66663f 	.inst	0x3e66663f ; undefined
   8ed9c:	00676636 	.inst	0x00676636 ; undefined
   8eda0:	0e07331e 	tbx	v30.8b, {v24.16b, v25.16b}, v7.8b
   8eda4:	001e3338 	.inst	0x001e3338 ; undefined
   8eda8:	0c0c2d3f 	.inst	0x0c0c2d3f ; undefined
   8edac:	001e0c0c 	.inst	0x001e0c0c ; undefined
   8edb0:	33333333 	.inst	0x33333333 ; undefined
   8edb4:	003f3333 	.inst	0x003f3333 ; NYI
   8edb8:	33333333 	.inst	0x33333333 ; undefined
   8edbc:	000c1e33 	.inst	0x000c1e33 ; undefined
   8edc0:	6b636363 	.inst	0x6b636363 ; undefined
   8edc4:	0063777f 	.inst	0x0063777f ; undefined
   8edc8:	1c366363 	ldr	s3, fba34 <__bss_end+0x4ca34>
   8edcc:	0063361c 	.inst	0x0063361c ; undefined
   8edd0:	1e333333 	.inst	0x1e333333 ; undefined
   8edd4:	001e0c0c 	.inst	0x001e0c0c ; undefined
   8edd8:	1831637f 	ldr	wzr, f1a44 <__bss_end+0x42a44>
   8eddc:	007f664c 	.inst	0x007f664c ; undefined
   8ede0:	0606061e 	.inst	0x0606061e ; undefined
   8ede4:	001e0606 	.inst	0x001e0606 ; undefined
   8ede8:	180c0603 	ldr	w3, a6ea8 <ucHeap+0x16ea8>
   8edec:	00406030 	.inst	0x00406030 ; undefined
   8edf0:	1818181e 	ldr	w30, bf0f0 <__bss_end+0x100f0>
   8edf4:	001e1818 	.inst	0x001e1818 ; undefined
   8edf8:	63361c08 	.inst	0x63361c08 ; undefined
	...
   8ee04:	ff000000 	.inst	0xff000000 ; undefined
   8ee08:	00180c0c 	.inst	0x00180c0c ; undefined
   8ee0c:	00000000 	udf	#0
   8ee10:	301e0000 	adr	x0, cae11 <__bss_end+0x1be11>
   8ee14:	006e333e 	.inst	0x006e333e ; undefined
   8ee18:	3e060607 	.inst	0x3e060607 ; undefined
   8ee1c:	003b6666 	.inst	0x003b6666 ; NYI
   8ee20:	331e0000 	bfi	w0, w0, #2, #1
   8ee24:	001e3303 	.inst	0x001e3303 ; undefined
   8ee28:	3e303038 	.inst	0x3e303038 ; undefined
   8ee2c:	006e3333 	.inst	0x006e3333 ; undefined
   8ee30:	331e0000 	bfi	w0, w0, #2, #1
   8ee34:	001e033f 	.inst	0x001e033f ; undefined
   8ee38:	0f06361c 	orr	v28.2s, #0xd0, lsl #8
   8ee3c:	000f0606 	.inst	0x000f0606 ; undefined
   8ee40:	336e0000 	.inst	0x336e0000 ; undefined
   8ee44:	1f303e33 	fnmadd	s19, s17, s16, s15
   8ee48:	6e360607 	uhadd	v7.16b, v16.16b, v22.16b
   8ee4c:	00676666 	.inst	0x00676666 ; undefined
   8ee50:	0c0e000c 	.inst	0x0c0e000c ; undefined
   8ee54:	001e0c0c 	.inst	0x001e0c0c ; undefined
   8ee58:	30300030 	adr	x16, eee5d <__bss_end+0x3fe5d>
   8ee5c:	1e333330 	.inst	0x1e333330 ; undefined
   8ee60:	36660607 	tbz	w7, #12, 8af20 <xTaskGenericNotifyFromISR+0x10>
   8ee64:	0067361e 	.inst	0x0067361e ; undefined
   8ee68:	0c0c0c0e 	.inst	0x0c0c0c0e ; undefined
   8ee6c:	001e0c0c 	.inst	0x001e0c0c ; undefined
   8ee70:	7f330000 	.inst	0x7f330000 ; undefined
   8ee74:	00636b7f 	.inst	0x00636b7f ; undefined
   8ee78:	331f0000 	bfi	w0, w0, #1, #1
   8ee7c:	00333333 	.inst	0x00333333 ; NYI
   8ee80:	331e0000 	bfi	w0, w0, #2, #1
   8ee84:	001e3333 	.inst	0x001e3333 ; undefined
   8ee88:	663b0000 	.inst	0x663b0000 ; undefined
   8ee8c:	0f063e66 	.inst	0x0f063e66 ; undefined
   8ee90:	336e0000 	.inst	0x336e0000 ; undefined
   8ee94:	78303e33 	.inst	0x78303e33 ; undefined
   8ee98:	6e3b0000 	uaddl2	v0.8h, v0.16b, v27.16b
   8ee9c:	000f0666 	.inst	0x000f0666 ; undefined
   8eea0:	033e0000 	.inst	0x033e0000 ; undefined
   8eea4:	001f301e 	.inst	0x001f301e ; undefined
   8eea8:	0c3e0c08 	.inst	0x0c3e0c08 ; undefined
   8eeac:	00182c0c 	.inst	0x00182c0c ; undefined
   8eeb0:	33330000 	.inst	0x33330000 ; undefined
   8eeb4:	006e3333 	.inst	0x006e3333 ; undefined
   8eeb8:	33330000 	.inst	0x33330000 ; undefined
   8eebc:	000c1e33 	.inst	0x000c1e33 ; undefined
   8eec0:	6b630000 	.inst	0x6b630000 ; undefined
   8eec4:	00367f7f 	.inst	0x00367f7f ; NYI
   8eec8:	36630000 	tbz	w0, #12, 94ec8 <ucHeap+0x4ec8>
   8eecc:	0063361c 	.inst	0x0063361c ; undefined
   8eed0:	33330000 	.inst	0x33330000 ; undefined
   8eed4:	1f303e33 	fnmadd	s19, s17, s16, s15
   8eed8:	193f0000 	.inst	0x193f0000 ; undefined
   8eedc:	003f260c 	.inst	0x003f260c ; NYI
   8eee0:	070c0c38 	.inst	0x070c0c38 ; undefined
   8eee4:	00380c0c 	.inst	0x00380c0c ; NYI
   8eee8:	00181818 	.inst	0x00181818 ; undefined
   8eeec:	00181818 	.inst	0x00181818 ; undefined
   8eef0:	380c0c07 	strb	w7, [x0, #192]!
   8eef4:	00070c0c 	.inst	0x00070c0c ; undefined
   8eef8:	00003b6e 	udf	#15214
	...

000000000008ef08 <IN>:
   8ef08:	1a100605 	.inst	0x1a100605 ; undefined
   8ef0c:	00000000 	udf	#0

000000000008ef10 <SEQ>:
   8ef10:	06020301 	.inst	0x06020301 ; undefined
   8ef14:	09080c04 	.inst	0x09080c04 ; undefined

000000000008ef18 <ulCORE0_INT_SRC>:
   8ef18:	40000060 	.inst	0x40000060 ; undefined
   8ef1c:	00000000 	udf	#0
   8ef20:	454c4449 	saddwt	z9.h, z2.h, z12.b
   8ef24:	00000000 	udf	#0
   8ef28:	20726d54 	.inst	0x20726d54 ; undefined
   8ef2c:	00637653 	.inst	0x00637653 ; undefined
   8ef30:	49474f4c 	.inst	0x49474f4c ; undefined
   8ef34:	4e412043 	.inst	0x4e412043 ; undefined
   8ef38:	5a594c41 	.inst	0x5a594c41 ; undefined
   8ef3c:	20205245 	.inst	0x20205245 ; undefined
   8ef40:	35305342 	cbnz	w2, ef9a8 <__bss_end+0x409a8>
   8ef44:	00000055 	udf	#85
   8ef48:	6f20616c 	.inst	0x6f20616c ; undefined
   8ef4c:	3d206666 	str	b6, [x19, #2073]
   8ef50:	63616220 	.inst	0x63616220 ; undefined
   8ef54:	6f74206b 	umlal2	v11.4s, v3.8h, v4.h[3]
   8ef58:	6f6c6320 	umlsl2	v0.4s, v25.8h, v12.h[2]
   8ef5c:	00006b63 	udf	#27491

000000000008ef60 <LANE_COL>:
   8ef60:	00e6194b 	.inst	0x00e6194b ; undefined
   8ef64:	003cb44b 	.inst	0x003cb44b ; NYI
   8ef68:	00ffe119 	.inst	0x00ffe119 ; undefined
   8ef6c:	004363d8 	.inst	0x004363d8 ; undefined
   8ef70:	00f58231 	.inst	0x00f58231 ; undefined
   8ef74:	00911eb4 	.inst	0x00911eb4 ; undefined
   8ef78:	0046f0f0 	.inst	0x0046f0f0 ; undefined
   8ef7c:	00f032e6 	.inst	0x00f032e6 ; undefined
   8ef80:	4943534f 	.inst	0x4943534f ; undefined
   8ef84:	534f4c4c 	.inst	0x534f4c4c ; undefined
   8ef88:	45504f43 	uaddwt	z3.h, z26.h, z16.b
   8ef8c:	53422020 	.inst	0x53422020 ; undefined
   8ef90:	00553530 	.inst	0x00553530 ; undefined
   8ef94:	00000000 	udf	#0
   8ef98:	00414843 	.inst	0x00414843 ; undefined
   8ef9c:	00000000 	udf	#0
   8efa0:	00424843 	.inst	0x00424843 ; undefined
   8efa4:	00000000 	udf	#0
   8efa8:	706f6373 	adr	x19, 16dc17 <__bss_end+0xbec17>
   8efac:	666f2065 	.inst	0x666f2065 ; undefined
   8efb0:	203d2066 	.inst	0x203d2066 ; undefined
   8efb4:	6b636162 	.inst	0x6b636162 ; undefined
   8efb8:	206f7420 	.inst	0x206f7420 ; undefined
   8efbc:	636f6c63 	.inst	0x636f6c63 ; undefined
   8efc0:	Address 0x000000000008efc0 is out of bounds.


Disassembly of section .data:

000000000008efc8 <g_msg_show>:
   8efc8:	00000001 	udf	#1

000000000008efcc <g_step_dir>:
   8efcc:	00000001 	udf	#1

000000000008efd0 <g_step_sps>:
   8efd0:	000000c8 	udf	#200

000000000008efd4 <g_servo_deg>:
   8efd4:	0000005a 	udf	#90

000000000008efd8 <g_servo_speed>:
   8efd8:	00000002 	udf	#2

000000000008efdc <g_servo_dir>:
   8efdc:	00000001 	udf	#1

000000000008efe0 <g_sweep_run>:
   8efe0:	00000001 	udf	#1

000000000008efe4 <g_sweep_ms>:
   8efe4:	00000050 	udf	#80

000000000008efe8 <g_msg>:
   8efe8:	50534152 	adr	x18, 135812 <__bss_end+0x86812>
   8efec:	52524542 	.inst	0x52524542 ; undefined
   8eff0:	49502059 	.inst	0x49502059 ; undefined
   8eff4:	347c3320 	cbz	w0, 187658 <__bss_end+0xd8658>
   8eff8:	46203030 	.inst	0x46203030 ; undefined
   8effc:	52454552 	.inst	0x52454552 ; undefined
   8f000:	20534f54 	.inst	0x20534f54 ; undefined
   8f004:	422d3436 	.inst	0x422d3436 ; undefined
   8f008:	42205449 	.inst	0x42205449 ; undefined
   8f00c:	4d455241 	.inst	0x4d455241 ; undefined
   8f010:	4c415445 	.inst	0x4c415445 ; undefined
   8f014:	4d454420 	.inst	0x4d454420 ; undefined
   8f018:	0000004f 	udf	#79
	...

000000000008f0b0 <g_secs>:
   8f0b0:	0000a8c0 	udf	#43200
   8f0b4:	00000000 	udf	#0

000000000008f0b8 <g_base_msg>:
   8f0b8:	50534152 	adr	x18, 1358e2 <__bss_end+0x868e2>
   8f0bc:	52524542 	.inst	0x52524542 ; undefined
   8f0c0:	49502059 	.inst	0x49502059 ; undefined
   8f0c4:	347c3320 	cbz	w0, 187728 <__bss_end+0xd8728>
   8f0c8:	46203030 	.inst	0x46203030 ; undefined
   8f0cc:	52454552 	.inst	0x52454552 ; undefined
   8f0d0:	20534f54 	.inst	0x20534f54 ; undefined
   8f0d4:	422d3436 	.inst	0x422d3436 ; undefined
   8f0d8:	42205449 	.inst	0x42205449 ; undefined
   8f0dc:	4d455241 	.inst	0x4d455241 ; undefined
   8f0e0:	4c415445 	.inst	0x4c415445 ; undefined
   8f0e4:	4d454420 	.inst	0x4d454420 ; undefined
   8f0e8:	0000004f 	udf	#79
	...

000000000008f180 <pCell.5>:
   8f180:	ffffffff 	.inst	0xffffffff ; undefined

000000000008f184 <mq_head>:
   8f184:	ffffffff 	.inst	0xffffffff ; undefined

000000000008f188 <g_us>:
   8f188:	000005dc 	udf	#1500
   8f18c:	00000000 	udf	#0

000000000008f190 <ullCriticalNesting>:
   8f190:	0000270f 	udf	#9999
   8f194:	00000000 	udf	#0

Disassembly of section .bss:

000000000008f1a0 <timer_tick>:
   8f1a0:	00000000 	udf	#0

000000000008f1a4 <timer_cntfrq>:
   8f1a4:	00000000 	udf	#0

000000000008f1a8 <g_irqfire>:
	...

000000000008f1b0 <g_msg_show_dirty>:
   8f1b0:	00000000 	udf	#0

000000000008f1b4 <g_step_run>:
   8f1b4:	00000000 	udf	#0

000000000008f1b8 <g_servo_run>:
	...

000000000008f1c0 <g_qr_buf>:
	...

000000000008f358 <g_led_mask>:
	...

000000000008f359 <g_led_display>:
   8f359:	00000000 	udf	#0
   8f35d:	 	udf	#0

000000000008f360 <g_pray>:
	...

000000000008f3d8 <g_cmdq>:
	...

000000000008f3e0 <g_spi_mutex>:
	...

000000000008f3e8 <g_qr_req>:
   8f3e8:	00000000 	udf	#0

000000000008f3ec <g_qr_on>:
   8f3ec:	00000000 	udf	#0

000000000008f3f0 <g_qr_tmp>:
	...

000000000008f588 <g_qr_text>:
	...

000000000008f628 <g_la_req>:
   8f628:	00000000 	udf	#0

000000000008f62c <g_la_on>:
   8f62c:	00000000 	udf	#0

000000000008f630 <g_sc_on>:
	...

000000000008f638 <g_la>:
	...

000000000008f744 <g_sc_req>:
   8f744:	00000000 	udf	#0

000000000008f748 <g_sc>:
	...

000000000008fb14 <g_machine>:
	...

000000000008fb20 <g_w>:
   8fb20:	00000000 	udf	#0

000000000008fb24 <g_h>:
   8fb24:	00000000 	udf	#0

000000000008fb28 <g_fb>:
	...

000000000008fb30 <g_pitch>:
	...

000000000008fb40 <mbox>:
	...

000000000008fbe0 <g_clock_force>:
	...

000000000008fbe8 <last.4>:
	...

000000000008fbf8 <px0.3>:
   8fbf8:	00000000 	udf	#0

000000000008fbfc <py0.2>:
   8fbfc:	00000000 	udf	#0

000000000008fc00 <pW.1>:
   8fc00:	00000000 	udf	#0

000000000008fc04 <pH.0>:
   8fc04:	00000000 	udf	#0

000000000008fc08 <mq_text>:
	...

000000000008fcd4 <mq_len>:
   8fcd4:	00000000 	udf	#0

000000000008fcd8 <ullPortYieldRequired>:
	...

000000000008fce0 <ullPortInterruptNesting>:
	...

000000000008fce8 <ullPortTaskHasFPUContext>:
	...

000000000008fcf0 <xTickCount>:
	...

000000000008fcf8 <pxCurrentTCB>:
	...

000000000008fd00 <pxOverflowDelayedTaskList>:
	...

000000000008fd08 <pxDelayedTaskList>:
	...

000000000008fd10 <xNextTaskUnblockTime>:
	...

000000000008fd18 <uxDeletedTasksWaitingCleanUp>:
	...

000000000008fd20 <xTasksWaitingTermination>:
	...

000000000008fd48 <uxCurrentNumberOfTasks>:
	...

000000000008fd50 <pxReadyTasksLists>:
	...

000000000008fe90 <xDelayedTaskList1>:
	...

000000000008feb8 <xDelayedTaskList2>:
	...

000000000008fee0 <xPendingReadyList>:
	...

000000000008ff08 <xSchedulerRunning>:
	...

000000000008ff10 <uxTaskNumber>:
	...

000000000008ff18 <uxTopReadyPriority>:
	...

000000000008ff20 <xIdleTaskHandle>:
	...

000000000008ff28 <uxSchedulerSuspended>:
	...

000000000008ff30 <xNumOfOverflows>:
	...

000000000008ff38 <uxPendedTicks>:
	...

000000000008ff40 <xYieldPending>:
	...

000000000008ff48 <xTimerQueue>:
	...

000000000008ff50 <xActiveTimerList1>:
	...

000000000008ff78 <xActiveTimerList2>:
	...

000000000008ffa0 <pxCurrentTimerList>:
	...

000000000008ffa8 <pxOverflowTimerList>:
	...

000000000008ffb0 <xTimerTaskHandle>:
	...

000000000008ffb8 <xLastTime.0>:
	...

000000000008ffc0 <xStart>:
	...

000000000008ffd0 <pxEnd>:
	...

000000000008ffd8 <xBlockAllocatedBit>:
	...

000000000008ffe0 <xMinimumEverFreeBytesRemaining>:
	...

000000000008ffe8 <xFreeBytesRemaining>:
	...

000000000008fff0 <xNumberOfSuccessfulAllocations>:
	...

000000000008fff8 <xNumberOfSuccessfulFrees>:
	...

0000000000090000 <ucHeap>:
	...

Disassembly of section .comment:

0000000000000000 <.comment>:
   0:	3a434347 	ccmn	w26, w3, #0x7, mi  // mi = first
   4:	4e472820 	trn1	v0.8h, v1.8h, v7.8h
   8:	6f542055 	umlal2	v21.4s, v2.8h, v4.h[1]
   c:	68636c6f 	.inst	0x68636c6f ; undefined
  10:	206e6961 	.inst	0x206e6961 ; undefined
  14:	20726f66 	.inst	0x20726f66 ; undefined
  18:	20656874 	.inst	0x20656874 ; undefined
  1c:	72702d41 	.inst	0x72702d41 ; undefined
  20:	6c69666f 	ldnp	d15, d25, [x19, #-368]
  24:	72412065 	.inst	0x72412065 ; undefined
  28:	74696863 	.inst	0x74696863 ; undefined
  2c:	75746365 	.inst	0x75746365 ; undefined
  30:	31206572 	adds	w18, w11, #0x819
  34:	2d332e30 	stp	s16, s11, [x17, #-104]
  38:	31323032 	adds	w18, w1, #0xc8c
  3c:	2037302e 	.inst	0x2037302e ; undefined
  40:	6d726128 	ldp	d8, d24, [x9, #-224]
  44:	2e30312d 	usubw	v13.8h, v9.8h, v16.8b
  48:	29293932 	stp	w18, w14, [x9, #-184]
  4c:	2e303120 	usubw	v0.8h, v9.8h, v16.8b
  50:	20312e33 	.inst	0x20312e33 ; undefined
  54:	31323032 	adds	w18, w1, #0xc8c
  58:	31323630 	adds	w16, w17, #0xc8d
	...
